
i2c_comm.elf:     file format elf32-littlearm

Sections:
Idx Name          Size      VMA       LMA       File off  Algn
  0 .isr_vector   00000188  08000000  08000000  00010000  2**0
                  CONTENTS, ALLOC, LOAD, READONLY, DATA
  1 .text         000064cc  08000190  08000190  00010190  2**4
                  CONTENTS, ALLOC, LOAD, READONLY, CODE
  2 .rodata       00000424  08006660  08006660  00016660  2**3
                  CONTENTS, ALLOC, LOAD, READONLY, DATA
  3 .ARM.extab    00000000  08006a84  08006a84  000201cc  2**0
                  CONTENTS
  4 .ARM          00000000  08006a84  08006a84  000201cc  2**0
                  CONTENTS
  5 .preinit_array 00000000  08006a84  08006a84  000201cc  2**0
                  CONTENTS, ALLOC, LOAD, DATA
  6 .init_array   00000004  08006a84  08006a84  00016a84  2**2
                  CONTENTS, ALLOC, LOAD, DATA
  7 .fini_array   00000004  08006a88  08006a88  00016a88  2**2
                  CONTENTS, ALLOC, LOAD, DATA
  8 .data         000001cc  20000000  08006a8c  00020000  2**2
                  CONTENTS, ALLOC, LOAD, DATA
  9 .bss          000003f0  200001cc  08006c58  000201cc  2**2
                  ALLOC
 10 ._user_heap_stack 00000604  200005bc  08006c58  000205bc  2**0
                  ALLOC
 11 .ARM.attributes 00000030  00000000  00000000  000201cc  2**0
                  CONTENTS, READONLY
 12 .comment      00000043  00000000  00000000  000201fc  2**0
                  CONTENTS, READONLY
 13 .debug_info   00006645  00000000  00000000  0002023f  2**0
                  CONTENTS, READONLY, DEBUGGING, OCTETS
 14 .debug_abbrev 00001bbf  00000000  00000000  00026884  2**0
                  CONTENTS, READONLY, DEBUGGING, OCTETS
 15 .debug_aranges 000008e0  00000000  00000000  00028448  2**3
                  CONTENTS, READONLY, DEBUGGING, OCTETS
 16 .debug_rnglists 00000664  00000000  00000000  00028d28  2**0
                  CONTENTS, READONLY, DEBUGGING, OCTETS
 17 .debug_macro  00004403  00000000  00000000  0002938c  2**0
                  CONTENTS, READONLY, DEBUGGING, OCTETS
 18 .debug_line   00007e6b  00000000  00000000  0002d78f  2**0
                  CONTENTS, READONLY, DEBUGGING, OCTETS
 19 .debug_str    000756ad  00000000  00000000  000355fa  2**0
                  CONTENTS, READONLY, DEBUGGING, OCTETS
 20 .debug_frame  00003644  00000000  00000000  000aaca8  2**2
                  CONTENTS, READONLY, DEBUGGING, OCTETS
 21 .debug_line_str 00000057  00000000  00000000  000ae2ec  2**0
                  CONTENTS, READONLY, DEBUGGING, OCTETS

Disassembly of section .text:

08000190 <__do_global_dtors_aux>:
 8000190:	b510      	push	{r4, lr}
 8000192:	4c05      	ldr	r4, [pc, #20]	; (80001a8 <__do_global_dtors_aux+0x18>)
 8000194:	7823      	ldrb	r3, [r4, #0]
 8000196:	b933      	cbnz	r3, 80001a6 <__do_global_dtors_aux+0x16>
 8000198:	4b04      	ldr	r3, [pc, #16]	; (80001ac <__do_global_dtors_aux+0x1c>)
 800019a:	b113      	cbz	r3, 80001a2 <__do_global_dtors_aux+0x12>
 800019c:	4804      	ldr	r0, [pc, #16]	; (80001b0 <__do_global_dtors_aux+0x20>)
 800019e:	f3af 8000 	nop.w
 80001a2:	2301      	movs	r3, #1
 80001a4:	7023      	strb	r3, [r4, #0]
 80001a6:	bd10      	pop	{r4, pc}
 80001a8:	200001cc 	.word	0x200001cc
 80001ac:	00000000 	.word	0x00000000
 80001b0:	08006644 	.word	0x08006644

080001b4 <frame_dummy>:
 80001b4:	b508      	push	{r3, lr}
 80001b6:	4b03      	ldr	r3, [pc, #12]	; (80001c4 <frame_dummy+0x10>)
 80001b8:	b11b      	cbz	r3, 80001c2 <frame_dummy+0xe>
 80001ba:	4903      	ldr	r1, [pc, #12]	; (80001c8 <frame_dummy+0x14>)
 80001bc:	4803      	ldr	r0, [pc, #12]	; (80001cc <frame_dummy+0x18>)
 80001be:	f3af 8000 	nop.w
 80001c2:	bd08      	pop	{r3, pc}
 80001c4:	00000000 	.word	0x00000000
 80001c8:	200001d0 	.word	0x200001d0
 80001cc:	08006644 	.word	0x08006644

080001d0 <memchr>:
 80001d0:	f001 01ff 	and.w	r1, r1, #255	; 0xff
 80001d4:	2a10      	cmp	r2, #16
 80001d6:	db2b      	blt.n	8000230 <memchr+0x60>
 80001d8:	f010 0f07 	tst.w	r0, #7
 80001dc:	d008      	beq.n	80001f0 <memchr+0x20>
 80001de:	f810 3b01 	ldrb.w	r3, [r0], #1
 80001e2:	3a01      	subs	r2, #1
 80001e4:	428b      	cmp	r3, r1
 80001e6:	d02d      	beq.n	8000244 <memchr+0x74>
 80001e8:	f010 0f07 	tst.w	r0, #7
 80001ec:	b342      	cbz	r2, 8000240 <memchr+0x70>
 80001ee:	d1f6      	bne.n	80001de <memchr+0xe>
 80001f0:	b4f0      	push	{r4, r5, r6, r7}
 80001f2:	ea41 2101 	orr.w	r1, r1, r1, lsl #8
 80001f6:	ea41 4101 	orr.w	r1, r1, r1, lsl #16
 80001fa:	f022 0407 	bic.w	r4, r2, #7
 80001fe:	f07f 0700 	mvns.w	r7, #0
 8000202:	2300      	movs	r3, #0
 8000204:	e8f0 5602 	ldrd	r5, r6, [r0], #8
 8000208:	3c08      	subs	r4, #8
 800020a:	ea85 0501 	eor.w	r5, r5, r1
 800020e:	ea86 0601 	eor.w	r6, r6, r1
 8000212:	fa85 f547 	uadd8	r5, r5, r7
 8000216:	faa3 f587 	sel	r5, r3, r7
 800021a:	fa86 f647 	uadd8	r6, r6, r7
 800021e:	faa5 f687 	sel	r6, r5, r7
 8000222:	b98e      	cbnz	r6, 8000248 <memchr+0x78>
 8000224:	d1ee      	bne.n	8000204 <memchr+0x34>
 8000226:	bcf0      	pop	{r4, r5, r6, r7}
 8000228:	f001 01ff 	and.w	r1, r1, #255	; 0xff
 800022c:	f002 0207 	and.w	r2, r2, #7
 8000230:	b132      	cbz	r2, 8000240 <memchr+0x70>
 8000232:	f810 3b01 	ldrb.w	r3, [r0], #1
 8000236:	3a01      	subs	r2, #1
 8000238:	ea83 0301 	eor.w	r3, r3, r1
 800023c:	b113      	cbz	r3, 8000244 <memchr+0x74>
 800023e:	d1f8      	bne.n	8000232 <memchr+0x62>
 8000240:	2000      	movs	r0, #0
 8000242:	4770      	bx	lr
 8000244:	3801      	subs	r0, #1
 8000246:	4770      	bx	lr
 8000248:	2d00      	cmp	r5, #0
 800024a:	bf06      	itte	eq
 800024c:	4635      	moveq	r5, r6
 800024e:	3803      	subeq	r0, #3
 8000250:	3807      	subne	r0, #7
 8000252:	f015 0f01 	tst.w	r5, #1
 8000256:	d107      	bne.n	8000268 <memchr+0x98>
 8000258:	3001      	adds	r0, #1
 800025a:	f415 7f80 	tst.w	r5, #256	; 0x100
 800025e:	bf02      	ittt	eq
 8000260:	3001      	addeq	r0, #1
 8000262:	f415 3fc0 	tsteq.w	r5, #98304	; 0x18000
 8000266:	3001      	addeq	r0, #1
 8000268:	bcf0      	pop	{r4, r5, r6, r7}
 800026a:	3801      	subs	r0, #1
 800026c:	4770      	bx	lr
 800026e:	bf00      	nop

08000270 <strlen>:
 8000270:	4603      	mov	r3, r0
 8000272:	f813 2b01 	ldrb.w	r2, [r3], #1
 8000276:	2a00      	cmp	r2, #0
 8000278:	d1fb      	bne.n	8000272 <strlen+0x2>
 800027a:	1a18      	subs	r0, r3, r0
 800027c:	3801      	subs	r0, #1
 800027e:	4770      	bx	lr

08000280 <__aeabi_drsub>:
 8000280:	f081 4100 	eor.w	r1, r1, #2147483648	; 0x80000000
 8000284:	e002      	b.n	800028c <__adddf3>
 8000286:	bf00      	nop

08000288 <__aeabi_dsub>:
 8000288:	f083 4300 	eor.w	r3, r3, #2147483648	; 0x80000000

0800028c <__adddf3>:
 800028c:	b530      	push	{r4, r5, lr}
 800028e:	ea4f 0441 	mov.w	r4, r1, lsl #1
 8000292:	ea4f 0543 	mov.w	r5, r3, lsl #1
 8000296:	ea94 0f05 	teq	r4, r5
 800029a:	bf08      	it	eq
 800029c:	ea90 0f02 	teqeq	r0, r2
 80002a0:	bf1f      	itttt	ne
 80002a2:	ea54 0c00 	orrsne.w	ip, r4, r0
 80002a6:	ea55 0c02 	orrsne.w	ip, r5, r2
 80002aa:	ea7f 5c64 	mvnsne.w	ip, r4, asr #21
 80002ae:	ea7f 5c65 	mvnsne.w	ip, r5, asr #21
 80002b2:	f000 80e2 	beq.w	800047a <__adddf3+0x1ee>
 80002b6:	ea4f 5454 	mov.w	r4, r4, lsr #21
 80002ba:	ebd4 5555 	rsbs	r5, r4, r5, lsr #21
 80002be:	bfb8      	it	lt
 80002c0:	426d      	neglt	r5, r5
 80002c2:	dd0c      	ble.n	80002de <__adddf3+0x52>
 80002c4:	442c      	add	r4, r5
 80002c6:	ea80 0202 	eor.w	r2, r0, r2
 80002ca:	ea81 0303 	eor.w	r3, r1, r3
 80002ce:	ea82 0000 	eor.w	r0, r2, r0
 80002d2:	ea83 0101 	eor.w	r1, r3, r1
 80002d6:	ea80 0202 	eor.w	r2, r0, r2
 80002da:	ea81 0303 	eor.w	r3, r1, r3
 80002de:	2d36      	cmp	r5, #54	; 0x36
 80002e0:	bf88      	it	hi
 80002e2:	bd30      	pophi	{r4, r5, pc}
 80002e4:	f011 4f00 	tst.w	r1, #2147483648	; 0x80000000
 80002e8:	ea4f 3101 	mov.w	r1, r1, lsl #12
 80002ec:	f44f 1c80 	mov.w	ip, #1048576	; 0x100000
 80002f0:	ea4c 3111 	orr.w	r1, ip, r1, lsr #12
 80002f4:	d002      	beq.n	80002fc <__adddf3+0x70>
 80002f6:	4240      	negs	r0, r0
 80002f8:	eb61 0141 	sbc.w	r1, r1, r1, lsl #1
 80002fc:	f013 4f00 	tst.w	r3, #2147483648	; 0x80000000
 8000300:	ea4f 3303 	mov.w	r3, r3, lsl #12
 8000304:	ea4c 3313 	orr.w	r3, ip, r3, lsr #12
 8000308:	d002      	beq.n	8000310 <__adddf3+0x84>
 800030a:	4252      	negs	r2, r2
 800030c:	eb63 0343 	sbc.w	r3, r3, r3, lsl #1
 8000310:	ea94 0f05 	teq	r4, r5
 8000314:	f000 80a7 	beq.w	8000466 <__adddf3+0x1da>
 8000318:	f1a4 0401 	sub.w	r4, r4, #1
 800031c:	f1d5 0e20 	rsbs	lr, r5, #32
 8000320:	db0d      	blt.n	800033e <__adddf3+0xb2>
 8000322:	fa02 fc0e 	lsl.w	ip, r2, lr
 8000326:	fa22 f205 	lsr.w	r2, r2, r5
 800032a:	1880      	adds	r0, r0, r2
 800032c:	f141 0100 	adc.w	r1, r1, #0
 8000330:	fa03 f20e 	lsl.w	r2, r3, lr
 8000334:	1880      	adds	r0, r0, r2
 8000336:	fa43 f305 	asr.w	r3, r3, r5
 800033a:	4159      	adcs	r1, r3
 800033c:	e00e      	b.n	800035c <__adddf3+0xd0>
 800033e:	f1a5 0520 	sub.w	r5, r5, #32
 8000342:	f10e 0e20 	add.w	lr, lr, #32
 8000346:	2a01      	cmp	r2, #1
 8000348:	fa03 fc0e 	lsl.w	ip, r3, lr
 800034c:	bf28      	it	cs
 800034e:	f04c 0c02 	orrcs.w	ip, ip, #2
 8000352:	fa43 f305 	asr.w	r3, r3, r5
 8000356:	18c0      	adds	r0, r0, r3
 8000358:	eb51 71e3 	adcs.w	r1, r1, r3, asr #31
 800035c:	f001 4500 	and.w	r5, r1, #2147483648	; 0x80000000
 8000360:	d507      	bpl.n	8000372 <__adddf3+0xe6>
 8000362:	f04f 0e00 	mov.w	lr, #0
 8000366:	f1dc 0c00 	rsbs	ip, ip, #0
 800036a:	eb7e 0000 	sbcs.w	r0, lr, r0
 800036e:	eb6e 0101 	sbc.w	r1, lr, r1
 8000372:	f5b1 1f80 	cmp.w	r1, #1048576	; 0x100000
 8000376:	d31b      	bcc.n	80003b0 <__adddf3+0x124>
 8000378:	f5b1 1f00 	cmp.w	r1, #2097152	; 0x200000
 800037c:	d30c      	bcc.n	8000398 <__adddf3+0x10c>
 800037e:	0849      	lsrs	r1, r1, #1
 8000380:	ea5f 0030 	movs.w	r0, r0, rrx
 8000384:	ea4f 0c3c 	mov.w	ip, ip, rrx
 8000388:	f104 0401 	add.w	r4, r4, #1
 800038c:	ea4f 5244 	mov.w	r2, r4, lsl #21
 8000390:	f512 0f80 	cmn.w	r2, #4194304	; 0x400000
 8000394:	f080 809a 	bcs.w	80004cc <__adddf3+0x240>
 8000398:	f1bc 4f00 	cmp.w	ip, #2147483648	; 0x80000000
 800039c:	bf08      	it	eq
 800039e:	ea5f 0c50 	movseq.w	ip, r0, lsr #1
 80003a2:	f150 0000 	adcs.w	r0, r0, #0
 80003a6:	eb41 5104 	adc.w	r1, r1, r4, lsl #20
 80003aa:	ea41 0105 	orr.w	r1, r1, r5
 80003ae:	bd30      	pop	{r4, r5, pc}
 80003b0:	ea5f 0c4c 	movs.w	ip, ip, lsl #1
 80003b4:	4140      	adcs	r0, r0
 80003b6:	eb41 0101 	adc.w	r1, r1, r1
 80003ba:	3c01      	subs	r4, #1
 80003bc:	bf28      	it	cs
 80003be:	f5b1 1f80 	cmpcs.w	r1, #1048576	; 0x100000
 80003c2:	d2e9      	bcs.n	8000398 <__adddf3+0x10c>
 80003c4:	f091 0f00 	teq	r1, #0
 80003c8:	bf04      	itt	eq
 80003ca:	4601      	moveq	r1, r0
 80003cc:	2000      	moveq	r0, #0
 80003ce:	fab1 f381 	clz	r3, r1
 80003d2:	bf08      	it	eq
 80003d4:	3320      	addeq	r3, #32
 80003d6:	f1a3 030b 	sub.w	r3, r3, #11
 80003da:	f1b3 0220 	subs.w	r2, r3, #32
 80003de:	da0c      	bge.n	80003fa <__adddf3+0x16e>
 80003e0:	320c      	adds	r2, #12
 80003e2:	dd08      	ble.n	80003f6 <__adddf3+0x16a>
 80003e4:	f102 0c14 	add.w	ip, r2, #20
 80003e8:	f1c2 020c 	rsb	r2, r2, #12
 80003ec:	fa01 f00c 	lsl.w	r0, r1, ip
 80003f0:	fa21 f102 	lsr.w	r1, r1, r2
 80003f4:	e00c      	b.n	8000410 <__adddf3+0x184>
 80003f6:	f102 0214 	add.w	r2, r2, #20
 80003fa:	bfd8      	it	le
 80003fc:	f1c2 0c20 	rsble	ip, r2, #32
 8000400:	fa01 f102 	lsl.w	r1, r1, r2
 8000404:	fa20 fc0c 	lsr.w	ip, r0, ip
 8000408:	bfdc      	itt	le
 800040a:	ea41 010c 	orrle.w	r1, r1, ip
 800040e:	4090      	lslle	r0, r2
 8000410:	1ae4      	subs	r4, r4, r3
 8000412:	bfa2      	ittt	ge
 8000414:	eb01 5104 	addge.w	r1, r1, r4, lsl #20
 8000418:	4329      	orrge	r1, r5
 800041a:	bd30      	popge	{r4, r5, pc}
 800041c:	ea6f 0404 	mvn.w	r4, r4
 8000420:	3c1f      	subs	r4, #31
 8000422:	da1c      	bge.n	800045e <__adddf3+0x1d2>
 8000424:	340c      	adds	r4, #12
 8000426:	dc0e      	bgt.n	8000446 <__adddf3+0x1ba>
 8000428:	f104 0414 	add.w	r4, r4, #20
 800042c:	f1c4 0220 	rsb	r2, r4, #32
 8000430:	fa20 f004 	lsr.w	r0, r0, r4
 8000434:	fa01 f302 	lsl.w	r3, r1, r2
 8000438:	ea40 0003 	orr.w	r0, r0, r3
 800043c:	fa21 f304 	lsr.w	r3, r1, r4
 8000440:	ea45 0103 	orr.w	r1, r5, r3
 8000444:	bd30      	pop	{r4, r5, pc}
 8000446:	f1c4 040c 	rsb	r4, r4, #12
 800044a:	f1c4 0220 	rsb	r2, r4, #32
 800044e:	fa20 f002 	lsr.w	r0, r0, r2
 8000452:	fa01 f304 	lsl.w	r3, r1, r4
 8000456:	ea40 0003 	orr.w	r0, r0, r3
 800045a:	4629      	mov	r1, r5
 800045c:	bd30      	pop	{r4, r5, pc}
 800045e:	fa21 f004 	lsr.w	r0, r1, r4
 8000462:	4629      	mov	r1, r5
 8000464:	bd30      	pop	{r4, r5, pc}
 8000466:	f094 0f00 	teq	r4, #0
 800046a:	f483 1380 	eor.w	r3, r3, #1048576	; 0x100000
 800046e:	bf06      	itte	eq
 8000470:	f481 1180 	eoreq.w	r1, r1, #1048576	; 0x100000
 8000474:	3401      	addeq	r4, #1
 8000476:	3d01      	subne	r5, #1
 8000478:	e74e      	b.n	8000318 <__adddf3+0x8c>
 800047a:	ea7f 5c64 	mvns.w	ip, r4, asr #21
 800047e:	bf18      	it	ne
 8000480:	ea7f 5c65 	mvnsne.w	ip, r5, asr #21
 8000484:	d029      	beq.n	80004da <__adddf3+0x24e>
 8000486:	ea94 0f05 	teq	r4, r5
 800048a:	bf08      	it	eq
 800048c:	ea90 0f02 	teqeq	r0, r2
 8000490:	d005      	beq.n	800049e <__adddf3+0x212>
 8000492:	ea54 0c00 	orrs.w	ip, r4, r0
 8000496:	bf04      	itt	eq
 8000498:	4619      	moveq	r1, r3
 800049a:	4610      	moveq	r0, r2
 800049c:	bd30      	pop	{r4, r5, pc}
 800049e:	ea91 0f03 	teq	r1, r3
 80004a2:	bf1e      	ittt	ne
 80004a4:	2100      	movne	r1, #0
 80004a6:	2000      	movne	r0, #0
 80004a8:	bd30      	popne	{r4, r5, pc}
 80004aa:	ea5f 5c54 	movs.w	ip, r4, lsr #21
 80004ae:	d105      	bne.n	80004bc <__adddf3+0x230>
 80004b0:	0040      	lsls	r0, r0, #1
 80004b2:	4149      	adcs	r1, r1
 80004b4:	bf28      	it	cs
 80004b6:	f041 4100 	orrcs.w	r1, r1, #2147483648	; 0x80000000
 80004ba:	bd30      	pop	{r4, r5, pc}
 80004bc:	f514 0480 	adds.w	r4, r4, #4194304	; 0x400000
 80004c0:	bf3c      	itt	cc
 80004c2:	f501 1180 	addcc.w	r1, r1, #1048576	; 0x100000
 80004c6:	bd30      	popcc	{r4, r5, pc}
 80004c8:	f001 4500 	and.w	r5, r1, #2147483648	; 0x80000000
 80004cc:	f045 41fe 	orr.w	r1, r5, #2130706432	; 0x7f000000
 80004d0:	f441 0170 	orr.w	r1, r1, #15728640	; 0xf00000
 80004d4:	f04f 0000 	mov.w	r0, #0
 80004d8:	bd30      	pop	{r4, r5, pc}
 80004da:	ea7f 5c64 	mvns.w	ip, r4, asr #21
 80004de:	bf1a      	itte	ne
 80004e0:	4619      	movne	r1, r3
 80004e2:	4610      	movne	r0, r2
 80004e4:	ea7f 5c65 	mvnseq.w	ip, r5, asr #21
 80004e8:	bf1c      	itt	ne
 80004ea:	460b      	movne	r3, r1
 80004ec:	4602      	movne	r2, r0
 80004ee:	ea50 3401 	orrs.w	r4, r0, r1, lsl #12
 80004f2:	bf06      	itte	eq
 80004f4:	ea52 3503 	orrseq.w	r5, r2, r3, lsl #12
 80004f8:	ea91 0f03 	teqeq	r1, r3
 80004fc:	f441 2100 	orrne.w	r1, r1, #524288	; 0x80000
 8000500:	bd30      	pop	{r4, r5, pc}
 8000502:	bf00      	nop

08000504 <__aeabi_ui2d>:
 8000504:	f090 0f00 	teq	r0, #0
 8000508:	bf04      	itt	eq
 800050a:	2100      	moveq	r1, #0
 800050c:	4770      	bxeq	lr
 800050e:	b530      	push	{r4, r5, lr}
 8000510:	f44f 6480 	mov.w	r4, #1024	; 0x400
 8000514:	f104 0432 	add.w	r4, r4, #50	; 0x32
 8000518:	f04f 0500 	mov.w	r5, #0
 800051c:	f04f 0100 	mov.w	r1, #0
 8000520:	e750      	b.n	80003c4 <__adddf3+0x138>
 8000522:	bf00      	nop

08000524 <__aeabi_i2d>:
 8000524:	f090 0f00 	teq	r0, #0
 8000528:	bf04      	itt	eq
 800052a:	2100      	moveq	r1, #0
 800052c:	4770      	bxeq	lr
 800052e:	b530      	push	{r4, r5, lr}
 8000530:	f44f 6480 	mov.w	r4, #1024	; 0x400
 8000534:	f104 0432 	add.w	r4, r4, #50	; 0x32
 8000538:	f010 4500 	ands.w	r5, r0, #2147483648	; 0x80000000
 800053c:	bf48      	it	mi
 800053e:	4240      	negmi	r0, r0
 8000540:	f04f 0100 	mov.w	r1, #0
 8000544:	e73e      	b.n	80003c4 <__adddf3+0x138>
 8000546:	bf00      	nop

08000548 <__aeabi_f2d>:
 8000548:	0042      	lsls	r2, r0, #1
 800054a:	ea4f 01e2 	mov.w	r1, r2, asr #3
 800054e:	ea4f 0131 	mov.w	r1, r1, rrx
 8000552:	ea4f 7002 	mov.w	r0, r2, lsl #28
 8000556:	bf1f      	itttt	ne
 8000558:	f012 437f 	andsne.w	r3, r2, #4278190080	; 0xff000000
 800055c:	f093 4f7f 	teqne	r3, #4278190080	; 0xff000000
 8000560:	f081 5160 	eorne.w	r1, r1, #939524096	; 0x38000000
 8000564:	4770      	bxne	lr
 8000566:	f032 427f 	bics.w	r2, r2, #4278190080	; 0xff000000
 800056a:	bf08      	it	eq
 800056c:	4770      	bxeq	lr
 800056e:	f093 4f7f 	teq	r3, #4278190080	; 0xff000000
 8000572:	bf04      	itt	eq
 8000574:	f441 2100 	orreq.w	r1, r1, #524288	; 0x80000
 8000578:	4770      	bxeq	lr
 800057a:	b530      	push	{r4, r5, lr}
 800057c:	f44f 7460 	mov.w	r4, #896	; 0x380
 8000580:	f001 4500 	and.w	r5, r1, #2147483648	; 0x80000000
 8000584:	f021 4100 	bic.w	r1, r1, #2147483648	; 0x80000000
 8000588:	e71c      	b.n	80003c4 <__adddf3+0x138>
 800058a:	bf00      	nop

0800058c <__aeabi_ul2d>:
 800058c:	ea50 0201 	orrs.w	r2, r0, r1
 8000590:	bf08      	it	eq
 8000592:	4770      	bxeq	lr
 8000594:	b530      	push	{r4, r5, lr}
 8000596:	f04f 0500 	mov.w	r5, #0
 800059a:	e00a      	b.n	80005b2 <__aeabi_l2d+0x16>

0800059c <__aeabi_l2d>:
 800059c:	ea50 0201 	orrs.w	r2, r0, r1
 80005a0:	bf08      	it	eq
 80005a2:	4770      	bxeq	lr
 80005a4:	b530      	push	{r4, r5, lr}
 80005a6:	f011 4500 	ands.w	r5, r1, #2147483648	; 0x80000000
 80005aa:	d502      	bpl.n	80005b2 <__aeabi_l2d+0x16>
 80005ac:	4240      	negs	r0, r0
 80005ae:	eb61 0141 	sbc.w	r1, r1, r1, lsl #1
 80005b2:	f44f 6480 	mov.w	r4, #1024	; 0x400
 80005b6:	f104 0432 	add.w	r4, r4, #50	; 0x32
 80005ba:	ea5f 5c91 	movs.w	ip, r1, lsr #22
 80005be:	f43f aed8 	beq.w	8000372 <__adddf3+0xe6>
 80005c2:	f04f 0203 	mov.w	r2, #3
 80005c6:	ea5f 0cdc 	movs.w	ip, ip, lsr #3
 80005ca:	bf18      	it	ne
 80005cc:	3203      	addne	r2, #3
 80005ce:	ea5f 0cdc 	movs.w	ip, ip, lsr #3
 80005d2:	bf18      	it	ne
 80005d4:	3203      	addne	r2, #3
 80005d6:	eb02 02dc 	add.w	r2, r2, ip, lsr #3
 80005da:	f1c2 0320 	rsb	r3, r2, #32
 80005de:	fa00 fc03 	lsl.w	ip, r0, r3
 80005e2:	fa20 f002 	lsr.w	r0, r0, r2
 80005e6:	fa01 fe03 	lsl.w	lr, r1, r3
 80005ea:	ea40 000e 	orr.w	r0, r0, lr
 80005ee:	fa21 f102 	lsr.w	r1, r1, r2
 80005f2:	4414      	add	r4, r2
 80005f4:	e6bd      	b.n	8000372 <__adddf3+0xe6>
 80005f6:	bf00      	nop

080005f8 <__aeabi_dmul>:
 80005f8:	b570      	push	{r4, r5, r6, lr}
 80005fa:	f04f 0cff 	mov.w	ip, #255	; 0xff
 80005fe:	f44c 6ce0 	orr.w	ip, ip, #1792	; 0x700
 8000602:	ea1c 5411 	ands.w	r4, ip, r1, lsr #20
 8000606:	bf1d      	ittte	ne
 8000608:	ea1c 5513 	andsne.w	r5, ip, r3, lsr #20
 800060c:	ea94 0f0c 	teqne	r4, ip
 8000610:	ea95 0f0c 	teqne	r5, ip
 8000614:	f000 f8de 	bleq	80007d4 <__aeabi_dmul+0x1dc>
 8000618:	442c      	add	r4, r5
 800061a:	ea81 0603 	eor.w	r6, r1, r3
 800061e:	ea21 514c 	bic.w	r1, r1, ip, lsl #21
 8000622:	ea23 534c 	bic.w	r3, r3, ip, lsl #21
 8000626:	ea50 3501 	orrs.w	r5, r0, r1, lsl #12
 800062a:	bf18      	it	ne
 800062c:	ea52 3503 	orrsne.w	r5, r2, r3, lsl #12
 8000630:	f441 1180 	orr.w	r1, r1, #1048576	; 0x100000
 8000634:	f443 1380 	orr.w	r3, r3, #1048576	; 0x100000
 8000638:	d038      	beq.n	80006ac <__aeabi_dmul+0xb4>
 800063a:	fba0 ce02 	umull	ip, lr, r0, r2
 800063e:	f04f 0500 	mov.w	r5, #0
 8000642:	fbe1 e502 	umlal	lr, r5, r1, r2
 8000646:	f006 4200 	and.w	r2, r6, #2147483648	; 0x80000000
 800064a:	fbe0 e503 	umlal	lr, r5, r0, r3
 800064e:	f04f 0600 	mov.w	r6, #0
 8000652:	fbe1 5603 	umlal	r5, r6, r1, r3
 8000656:	f09c 0f00 	teq	ip, #0
 800065a:	bf18      	it	ne
 800065c:	f04e 0e01 	orrne.w	lr, lr, #1
 8000660:	f1a4 04ff 	sub.w	r4, r4, #255	; 0xff
 8000664:	f5b6 7f00 	cmp.w	r6, #512	; 0x200
 8000668:	f564 7440 	sbc.w	r4, r4, #768	; 0x300
 800066c:	d204      	bcs.n	8000678 <__aeabi_dmul+0x80>
 800066e:	ea5f 0e4e 	movs.w	lr, lr, lsl #1
 8000672:	416d      	adcs	r5, r5
 8000674:	eb46 0606 	adc.w	r6, r6, r6
 8000678:	ea42 21c6 	orr.w	r1, r2, r6, lsl #11
 800067c:	ea41 5155 	orr.w	r1, r1, r5, lsr #21
 8000680:	ea4f 20c5 	mov.w	r0, r5, lsl #11
 8000684:	ea40 505e 	orr.w	r0, r0, lr, lsr #21
 8000688:	ea4f 2ece 	mov.w	lr, lr, lsl #11
 800068c:	f1b4 0cfd 	subs.w	ip, r4, #253	; 0xfd
 8000690:	bf88      	it	hi
 8000692:	f5bc 6fe0 	cmphi.w	ip, #1792	; 0x700
 8000696:	d81e      	bhi.n	80006d6 <__aeabi_dmul+0xde>
 8000698:	f1be 4f00 	cmp.w	lr, #2147483648	; 0x80000000
 800069c:	bf08      	it	eq
 800069e:	ea5f 0e50 	movseq.w	lr, r0, lsr #1
 80006a2:	f150 0000 	adcs.w	r0, r0, #0
 80006a6:	eb41 5104 	adc.w	r1, r1, r4, lsl #20
 80006aa:	bd70      	pop	{r4, r5, r6, pc}
 80006ac:	f006 4600 	and.w	r6, r6, #2147483648	; 0x80000000
 80006b0:	ea46 0101 	orr.w	r1, r6, r1
 80006b4:	ea40 0002 	orr.w	r0, r0, r2
 80006b8:	ea81 0103 	eor.w	r1, r1, r3
 80006bc:	ebb4 045c 	subs.w	r4, r4, ip, lsr #1
 80006c0:	bfc2      	ittt	gt
 80006c2:	ebd4 050c 	rsbsgt	r5, r4, ip
 80006c6:	ea41 5104 	orrgt.w	r1, r1, r4, lsl #20
 80006ca:	bd70      	popgt	{r4, r5, r6, pc}
 80006cc:	f441 1180 	orr.w	r1, r1, #1048576	; 0x100000
 80006d0:	f04f 0e00 	mov.w	lr, #0
 80006d4:	3c01      	subs	r4, #1
 80006d6:	f300 80ab 	bgt.w	8000830 <__aeabi_dmul+0x238>
 80006da:	f114 0f36 	cmn.w	r4, #54	; 0x36
 80006de:	bfde      	ittt	le
 80006e0:	2000      	movle	r0, #0
 80006e2:	f001 4100 	andle.w	r1, r1, #2147483648	; 0x80000000
 80006e6:	bd70      	pople	{r4, r5, r6, pc}
 80006e8:	f1c4 0400 	rsb	r4, r4, #0
 80006ec:	3c20      	subs	r4, #32
 80006ee:	da35      	bge.n	800075c <__aeabi_dmul+0x164>
 80006f0:	340c      	adds	r4, #12
 80006f2:	dc1b      	bgt.n	800072c <__aeabi_dmul+0x134>
 80006f4:	f104 0414 	add.w	r4, r4, #20
 80006f8:	f1c4 0520 	rsb	r5, r4, #32
 80006fc:	fa00 f305 	lsl.w	r3, r0, r5
 8000700:	fa20 f004 	lsr.w	r0, r0, r4
 8000704:	fa01 f205 	lsl.w	r2, r1, r5
 8000708:	ea40 0002 	orr.w	r0, r0, r2
 800070c:	f001 4200 	and.w	r2, r1, #2147483648	; 0x80000000
 8000710:	f021 4100 	bic.w	r1, r1, #2147483648	; 0x80000000
 8000714:	eb10 70d3 	adds.w	r0, r0, r3, lsr #31
 8000718:	fa21 f604 	lsr.w	r6, r1, r4
 800071c:	eb42 0106 	adc.w	r1, r2, r6
 8000720:	ea5e 0e43 	orrs.w	lr, lr, r3, lsl #1
 8000724:	bf08      	it	eq
 8000726:	ea20 70d3 	biceq.w	r0, r0, r3, lsr #31
 800072a:	bd70      	pop	{r4, r5, r6, pc}
 800072c:	f1c4 040c 	rsb	r4, r4, #12
 8000730:	f1c4 0520 	rsb	r5, r4, #32
 8000734:	fa00 f304 	lsl.w	r3, r0, r4
 8000738:	fa20 f005 	lsr.w	r0, r0, r5
 800073c:	fa01 f204 	lsl.w	r2, r1, r4
 8000740:	ea40 0002 	orr.w	r0, r0, r2
 8000744:	f001 4100 	and.w	r1, r1, #2147483648	; 0x80000000
 8000748:	eb10 70d3 	adds.w	r0, r0, r3, lsr #31
 800074c:	f141 0100 	adc.w	r1, r1, #0
 8000750:	ea5e 0e43 	orrs.w	lr, lr, r3, lsl #1
 8000754:	bf08      	it	eq
 8000756:	ea20 70d3 	biceq.w	r0, r0, r3, lsr #31
 800075a:	bd70      	pop	{r4, r5, r6, pc}
 800075c:	f1c4 0520 	rsb	r5, r4, #32
 8000760:	fa00 f205 	lsl.w	r2, r0, r5
 8000764:	ea4e 0e02 	orr.w	lr, lr, r2
 8000768:	fa20 f304 	lsr.w	r3, r0, r4
 800076c:	fa01 f205 	lsl.w	r2, r1, r5
 8000770:	ea43 0302 	orr.w	r3, r3, r2
 8000774:	fa21 f004 	lsr.w	r0, r1, r4
 8000778:	f001 4100 	and.w	r1, r1, #2147483648	; 0x80000000
 800077c:	fa21 f204 	lsr.w	r2, r1, r4
 8000780:	ea20 0002 	bic.w	r0, r0, r2
 8000784:	eb00 70d3 	add.w	r0, r0, r3, lsr #31
 8000788:	ea5e 0e43 	orrs.w	lr, lr, r3, lsl #1
 800078c:	bf08      	it	eq
 800078e:	ea20 70d3 	biceq.w	r0, r0, r3, lsr #31
 8000792:	bd70      	pop	{r4, r5, r6, pc}
 8000794:	f094 0f00 	teq	r4, #0
 8000798:	d10f      	bne.n	80007ba <__aeabi_dmul+0x1c2>
 800079a:	f001 4600 	and.w	r6, r1, #2147483648	; 0x80000000
 800079e:	0040      	lsls	r0, r0, #1
 80007a0:	eb41 0101 	adc.w	r1, r1, r1
 80007a4:	f411 1f80 	tst.w	r1, #1048576	; 0x100000
 80007a8:	bf08      	it	eq
 80007aa:	3c01      	subeq	r4, #1
 80007ac:	d0f7      	beq.n	800079e <__aeabi_dmul+0x1a6>
 80007ae:	ea41 0106 	orr.w	r1, r1, r6
 80007b2:	f095 0f00 	teq	r5, #0
 80007b6:	bf18      	it	ne
 80007b8:	4770      	bxne	lr
 80007ba:	f003 4600 	and.w	r6, r3, #2147483648	; 0x80000000
 80007be:	0052      	lsls	r2, r2, #1
 80007c0:	eb43 0303 	adc.w	r3, r3, r3
 80007c4:	f413 1f80 	tst.w	r3, #1048576	; 0x100000
 80007c8:	bf08      	it	eq
 80007ca:	3d01      	subeq	r5, #1
 80007cc:	d0f7      	beq.n	80007be <__aeabi_dmul+0x1c6>
 80007ce:	ea43 0306 	orr.w	r3, r3, r6
 80007d2:	4770      	bx	lr
 80007d4:	ea94 0f0c 	teq	r4, ip
 80007d8:	ea0c 5513 	and.w	r5, ip, r3, lsr #20
 80007dc:	bf18      	it	ne
 80007de:	ea95 0f0c 	teqne	r5, ip
 80007e2:	d00c      	beq.n	80007fe <__aeabi_dmul+0x206>
 80007e4:	ea50 0641 	orrs.w	r6, r0, r1, lsl #1
 80007e8:	bf18      	it	ne
 80007ea:	ea52 0643 	orrsne.w	r6, r2, r3, lsl #1
 80007ee:	d1d1      	bne.n	8000794 <__aeabi_dmul+0x19c>
 80007f0:	ea81 0103 	eor.w	r1, r1, r3
 80007f4:	f001 4100 	and.w	r1, r1, #2147483648	; 0x80000000
 80007f8:	f04f 0000 	mov.w	r0, #0
 80007fc:	bd70      	pop	{r4, r5, r6, pc}
 80007fe:	ea50 0641 	orrs.w	r6, r0, r1, lsl #1
 8000802:	bf06      	itte	eq
 8000804:	4610      	moveq	r0, r2
 8000806:	4619      	moveq	r1, r3
 8000808:	ea52 0643 	orrsne.w	r6, r2, r3, lsl #1
 800080c:	d019      	beq.n	8000842 <__aeabi_dmul+0x24a>
 800080e:	ea94 0f0c 	teq	r4, ip
 8000812:	d102      	bne.n	800081a <__aeabi_dmul+0x222>
 8000814:	ea50 3601 	orrs.w	r6, r0, r1, lsl #12
 8000818:	d113      	bne.n	8000842 <__aeabi_dmul+0x24a>
 800081a:	ea95 0f0c 	teq	r5, ip
 800081e:	d105      	bne.n	800082c <__aeabi_dmul+0x234>
 8000820:	ea52 3603 	orrs.w	r6, r2, r3, lsl #12
 8000824:	bf1c      	itt	ne
 8000826:	4610      	movne	r0, r2
 8000828:	4619      	movne	r1, r3
 800082a:	d10a      	bne.n	8000842 <__aeabi_dmul+0x24a>
 800082c:	ea81 0103 	eor.w	r1, r1, r3
 8000830:	f001 4100 	and.w	r1, r1, #2147483648	; 0x80000000
 8000834:	f041 41fe 	orr.w	r1, r1, #2130706432	; 0x7f000000
 8000838:	f441 0170 	orr.w	r1, r1, #15728640	; 0xf00000
 800083c:	f04f 0000 	mov.w	r0, #0
 8000840:	bd70      	pop	{r4, r5, r6, pc}
 8000842:	f041 41fe 	orr.w	r1, r1, #2130706432	; 0x7f000000
 8000846:	f441 0178 	orr.w	r1, r1, #16252928	; 0xf80000
 800084a:	bd70      	pop	{r4, r5, r6, pc}

0800084c <__aeabi_ddiv>:
 800084c:	b570      	push	{r4, r5, r6, lr}
 800084e:	f04f 0cff 	mov.w	ip, #255	; 0xff
 8000852:	f44c 6ce0 	orr.w	ip, ip, #1792	; 0x700
 8000856:	ea1c 5411 	ands.w	r4, ip, r1, lsr #20
 800085a:	bf1d      	ittte	ne
 800085c:	ea1c 5513 	andsne.w	r5, ip, r3, lsr #20
 8000860:	ea94 0f0c 	teqne	r4, ip
 8000864:	ea95 0f0c 	teqne	r5, ip
 8000868:	f000 f8a7 	bleq	80009ba <__aeabi_ddiv+0x16e>
 800086c:	eba4 0405 	sub.w	r4, r4, r5
 8000870:	ea81 0e03 	eor.w	lr, r1, r3
 8000874:	ea52 3503 	orrs.w	r5, r2, r3, lsl #12
 8000878:	ea4f 3101 	mov.w	r1, r1, lsl #12
 800087c:	f000 8088 	beq.w	8000990 <__aeabi_ddiv+0x144>
 8000880:	ea4f 3303 	mov.w	r3, r3, lsl #12
 8000884:	f04f 5580 	mov.w	r5, #268435456	; 0x10000000
 8000888:	ea45 1313 	orr.w	r3, r5, r3, lsr #4
 800088c:	ea43 6312 	orr.w	r3, r3, r2, lsr #24
 8000890:	ea4f 2202 	mov.w	r2, r2, lsl #8
 8000894:	ea45 1511 	orr.w	r5, r5, r1, lsr #4
 8000898:	ea45 6510 	orr.w	r5, r5, r0, lsr #24
 800089c:	ea4f 2600 	mov.w	r6, r0, lsl #8
 80008a0:	f00e 4100 	and.w	r1, lr, #2147483648	; 0x80000000
 80008a4:	429d      	cmp	r5, r3
 80008a6:	bf08      	it	eq
 80008a8:	4296      	cmpeq	r6, r2
 80008aa:	f144 04fd 	adc.w	r4, r4, #253	; 0xfd
 80008ae:	f504 7440 	add.w	r4, r4, #768	; 0x300
 80008b2:	d202      	bcs.n	80008ba <__aeabi_ddiv+0x6e>
 80008b4:	085b      	lsrs	r3, r3, #1
 80008b6:	ea4f 0232 	mov.w	r2, r2, rrx
 80008ba:	1ab6      	subs	r6, r6, r2
 80008bc:	eb65 0503 	sbc.w	r5, r5, r3
 80008c0:	085b      	lsrs	r3, r3, #1
 80008c2:	ea4f 0232 	mov.w	r2, r2, rrx
 80008c6:	f44f 1080 	mov.w	r0, #1048576	; 0x100000
 80008ca:	f44f 2c00 	mov.w	ip, #524288	; 0x80000
 80008ce:	ebb6 0e02 	subs.w	lr, r6, r2
 80008d2:	eb75 0e03 	sbcs.w	lr, r5, r3
 80008d6:	bf22      	ittt	cs
 80008d8:	1ab6      	subcs	r6, r6, r2
 80008da:	4675      	movcs	r5, lr
 80008dc:	ea40 000c 	orrcs.w	r0, r0, ip
 80008e0:	085b      	lsrs	r3, r3, #1
 80008e2:	ea4f 0232 	mov.w	r2, r2, rrx
 80008e6:	ebb6 0e02 	subs.w	lr, r6, r2
 80008ea:	eb75 0e03 	sbcs.w	lr, r5, r3
 80008ee:	bf22      	ittt	cs
 80008f0:	1ab6      	subcs	r6, r6, r2
 80008f2:	4675      	movcs	r5, lr
 80008f4:	ea40 005c 	orrcs.w	r0, r0, ip, lsr #1
 80008f8:	085b      	lsrs	r3, r3, #1
 80008fa:	ea4f 0232 	mov.w	r2, r2, rrx
 80008fe:	ebb6 0e02 	subs.w	lr, r6, r2
 8000902:	eb75 0e03 	sbcs.w	lr, r5, r3
 8000906:	bf22      	ittt	cs
 8000908:	1ab6      	subcs	r6, r6, r2
 800090a:	4675      	movcs	r5, lr
 800090c:	ea40 009c 	orrcs.w	r0, r0, ip, lsr #2
 8000910:	085b      	lsrs	r3, r3, #1
 8000912:	ea4f 0232 	mov.w	r2, r2, rrx
 8000916:	ebb6 0e02 	subs.w	lr, r6, r2
 800091a:	eb75 0e03 	sbcs.w	lr, r5, r3
 800091e:	bf22      	ittt	cs
 8000920:	1ab6      	subcs	r6, r6, r2
 8000922:	4675      	movcs	r5, lr
 8000924:	ea40 00dc 	orrcs.w	r0, r0, ip, lsr #3
 8000928:	ea55 0e06 	orrs.w	lr, r5, r6
 800092c:	d018      	beq.n	8000960 <__aeabi_ddiv+0x114>
 800092e:	ea4f 1505 	mov.w	r5, r5, lsl #4
 8000932:	ea45 7516 	orr.w	r5, r5, r6, lsr #28
 8000936:	ea4f 1606 	mov.w	r6, r6, lsl #4
 800093a:	ea4f 03c3 	mov.w	r3, r3, lsl #3
 800093e:	ea43 7352 	orr.w	r3, r3, r2, lsr #29
 8000942:	ea4f 02c2 	mov.w	r2, r2, lsl #3
 8000946:	ea5f 1c1c 	movs.w	ip, ip, lsr #4
 800094a:	d1c0      	bne.n	80008ce <__aeabi_ddiv+0x82>
 800094c:	f411 1f80 	tst.w	r1, #1048576	; 0x100000
 8000950:	d10b      	bne.n	800096a <__aeabi_ddiv+0x11e>
 8000952:	ea41 0100 	orr.w	r1, r1, r0
 8000956:	f04f 0000 	mov.w	r0, #0
 800095a:	f04f 4c00 	mov.w	ip, #2147483648	; 0x80000000
 800095e:	e7b6      	b.n	80008ce <__aeabi_ddiv+0x82>
 8000960:	f411 1f80 	tst.w	r1, #1048576	; 0x100000
 8000964:	bf04      	itt	eq
 8000966:	4301      	orreq	r1, r0
 8000968:	2000      	moveq	r0, #0
 800096a:	f1b4 0cfd 	subs.w	ip, r4, #253	; 0xfd
 800096e:	bf88      	it	hi
 8000970:	f5bc 6fe0 	cmphi.w	ip, #1792	; 0x700
 8000974:	f63f aeaf 	bhi.w	80006d6 <__aeabi_dmul+0xde>
 8000978:	ebb5 0c03 	subs.w	ip, r5, r3
 800097c:	bf04      	itt	eq
 800097e:	ebb6 0c02 	subseq.w	ip, r6, r2
 8000982:	ea5f 0c50 	movseq.w	ip, r0, lsr #1
 8000986:	f150 0000 	adcs.w	r0, r0, #0
 800098a:	eb41 5104 	adc.w	r1, r1, r4, lsl #20
 800098e:	bd70      	pop	{r4, r5, r6, pc}
 8000990:	f00e 4e00 	and.w	lr, lr, #2147483648	; 0x80000000
 8000994:	ea4e 3111 	orr.w	r1, lr, r1, lsr #12
 8000998:	eb14 045c 	adds.w	r4, r4, ip, lsr #1
 800099c:	bfc2      	ittt	gt
 800099e:	ebd4 050c 	rsbsgt	r5, r4, ip
 80009a2:	ea41 5104 	orrgt.w	r1, r1, r4, lsl #20
 80009a6:	bd70      	popgt	{r4, r5, r6, pc}
 80009a8:	f441 1180 	orr.w	r1, r1, #1048576	; 0x100000
 80009ac:	f04f 0e00 	mov.w	lr, #0
 80009b0:	3c01      	subs	r4, #1
 80009b2:	e690      	b.n	80006d6 <__aeabi_dmul+0xde>
 80009b4:	ea45 0e06 	orr.w	lr, r5, r6
 80009b8:	e68d      	b.n	80006d6 <__aeabi_dmul+0xde>
 80009ba:	ea0c 5513 	and.w	r5, ip, r3, lsr #20
 80009be:	ea94 0f0c 	teq	r4, ip
 80009c2:	bf08      	it	eq
 80009c4:	ea95 0f0c 	teqeq	r5, ip
 80009c8:	f43f af3b 	beq.w	8000842 <__aeabi_dmul+0x24a>
 80009cc:	ea94 0f0c 	teq	r4, ip
 80009d0:	d10a      	bne.n	80009e8 <__aeabi_ddiv+0x19c>
 80009d2:	ea50 3401 	orrs.w	r4, r0, r1, lsl #12
 80009d6:	f47f af34 	bne.w	8000842 <__aeabi_dmul+0x24a>
 80009da:	ea95 0f0c 	teq	r5, ip
 80009de:	f47f af25 	bne.w	800082c <__aeabi_dmul+0x234>
 80009e2:	4610      	mov	r0, r2
 80009e4:	4619      	mov	r1, r3
 80009e6:	e72c      	b.n	8000842 <__aeabi_dmul+0x24a>
 80009e8:	ea95 0f0c 	teq	r5, ip
 80009ec:	d106      	bne.n	80009fc <__aeabi_ddiv+0x1b0>
 80009ee:	ea52 3503 	orrs.w	r5, r2, r3, lsl #12
 80009f2:	f43f aefd 	beq.w	80007f0 <__aeabi_dmul+0x1f8>
 80009f6:	4610      	mov	r0, r2
 80009f8:	4619      	mov	r1, r3
 80009fa:	e722      	b.n	8000842 <__aeabi_dmul+0x24a>
 80009fc:	ea50 0641 	orrs.w	r6, r0, r1, lsl #1
 8000a00:	bf18      	it	ne
 8000a02:	ea52 0643 	orrsne.w	r6, r2, r3, lsl #1
 8000a06:	f47f aec5 	bne.w	8000794 <__aeabi_dmul+0x19c>
 8000a0a:	ea50 0441 	orrs.w	r4, r0, r1, lsl #1
 8000a0e:	f47f af0d 	bne.w	800082c <__aeabi_dmul+0x234>
 8000a12:	ea52 0543 	orrs.w	r5, r2, r3, lsl #1
 8000a16:	f47f aeeb 	bne.w	80007f0 <__aeabi_dmul+0x1f8>
 8000a1a:	e712      	b.n	8000842 <__aeabi_dmul+0x24a>

08000a1c <__gedf2>:
 8000a1c:	f04f 3cff 	mov.w	ip, #4294967295
 8000a20:	e006      	b.n	8000a30 <__cmpdf2+0x4>
 8000a22:	bf00      	nop

08000a24 <__ledf2>:
 8000a24:	f04f 0c01 	mov.w	ip, #1
 8000a28:	e002      	b.n	8000a30 <__cmpdf2+0x4>
 8000a2a:	bf00      	nop

08000a2c <__cmpdf2>:
 8000a2c:	f04f 0c01 	mov.w	ip, #1
 8000a30:	f84d cd04 	str.w	ip, [sp, #-4]!
 8000a34:	ea4f 0c41 	mov.w	ip, r1, lsl #1
 8000a38:	ea7f 5c6c 	mvns.w	ip, ip, asr #21
 8000a3c:	ea4f 0c43 	mov.w	ip, r3, lsl #1
 8000a40:	bf18      	it	ne
 8000a42:	ea7f 5c6c 	mvnsne.w	ip, ip, asr #21
 8000a46:	d01b      	beq.n	8000a80 <__cmpdf2+0x54>
 8000a48:	b001      	add	sp, #4
 8000a4a:	ea50 0c41 	orrs.w	ip, r0, r1, lsl #1
 8000a4e:	bf0c      	ite	eq
 8000a50:	ea52 0c43 	orrseq.w	ip, r2, r3, lsl #1
 8000a54:	ea91 0f03 	teqne	r1, r3
 8000a58:	bf02      	ittt	eq
 8000a5a:	ea90 0f02 	teqeq	r0, r2
 8000a5e:	2000      	moveq	r0, #0
 8000a60:	4770      	bxeq	lr
 8000a62:	f110 0f00 	cmn.w	r0, #0
 8000a66:	ea91 0f03 	teq	r1, r3
 8000a6a:	bf58      	it	pl
 8000a6c:	4299      	cmppl	r1, r3
 8000a6e:	bf08      	it	eq
 8000a70:	4290      	cmpeq	r0, r2
 8000a72:	bf2c      	ite	cs
 8000a74:	17d8      	asrcs	r0, r3, #31
 8000a76:	ea6f 70e3 	mvncc.w	r0, r3, asr #31
 8000a7a:	f040 0001 	orr.w	r0, r0, #1
 8000a7e:	4770      	bx	lr
 8000a80:	ea4f 0c41 	mov.w	ip, r1, lsl #1
 8000a84:	ea7f 5c6c 	mvns.w	ip, ip, asr #21
 8000a88:	d102      	bne.n	8000a90 <__cmpdf2+0x64>
 8000a8a:	ea50 3c01 	orrs.w	ip, r0, r1, lsl #12
 8000a8e:	d107      	bne.n	8000aa0 <__cmpdf2+0x74>
 8000a90:	ea4f 0c43 	mov.w	ip, r3, lsl #1
 8000a94:	ea7f 5c6c 	mvns.w	ip, ip, asr #21
 8000a98:	d1d6      	bne.n	8000a48 <__cmpdf2+0x1c>
 8000a9a:	ea52 3c03 	orrs.w	ip, r2, r3, lsl #12
 8000a9e:	d0d3      	beq.n	8000a48 <__cmpdf2+0x1c>
 8000aa0:	f85d 0b04 	ldr.w	r0, [sp], #4
 8000aa4:	4770      	bx	lr
 8000aa6:	bf00      	nop

08000aa8 <__aeabi_cdrcmple>:
 8000aa8:	4684      	mov	ip, r0
 8000aaa:	4610      	mov	r0, r2
 8000aac:	4662      	mov	r2, ip
 8000aae:	468c      	mov	ip, r1
 8000ab0:	4619      	mov	r1, r3
 8000ab2:	4663      	mov	r3, ip
 8000ab4:	e000      	b.n	8000ab8 <__aeabi_cdcmpeq>
 8000ab6:	bf00      	nop

08000ab8 <__aeabi_cdcmpeq>:
 8000ab8:	b501      	push	{r0, lr}
 8000aba:	f7ff ffb7 	bl	8000a2c <__cmpdf2>
 8000abe:	2800      	cmp	r0, #0
 8000ac0:	bf48      	it	mi
 8000ac2:	f110 0f00 	cmnmi.w	r0, #0
 8000ac6:	bd01      	pop	{r0, pc}

08000ac8 <__aeabi_dcmpeq>:
 8000ac8:	f84d ed08 	str.w	lr, [sp, #-8]!
 8000acc:	f7ff fff4 	bl	8000ab8 <__aeabi_cdcmpeq>
 8000ad0:	bf0c      	ite	eq
 8000ad2:	2001      	moveq	r0, #1
 8000ad4:	2000      	movne	r0, #0
 8000ad6:	f85d fb08 	ldr.w	pc, [sp], #8
 8000ada:	bf00      	nop

08000adc <__aeabi_dcmplt>:
 8000adc:	f84d ed08 	str.w	lr, [sp, #-8]!
 8000ae0:	f7ff ffea 	bl	8000ab8 <__aeabi_cdcmpeq>
 8000ae4:	bf34      	ite	cc
 8000ae6:	2001      	movcc	r0, #1
 8000ae8:	2000      	movcs	r0, #0
 8000aea:	f85d fb08 	ldr.w	pc, [sp], #8
 8000aee:	bf00      	nop

08000af0 <__aeabi_dcmple>:
 8000af0:	f84d ed08 	str.w	lr, [sp, #-8]!
 8000af4:	f7ff ffe0 	bl	8000ab8 <__aeabi_cdcmpeq>
 8000af8:	bf94      	ite	ls
 8000afa:	2001      	movls	r0, #1
 8000afc:	2000      	movhi	r0, #0
 8000afe:	f85d fb08 	ldr.w	pc, [sp], #8
 8000b02:	bf00      	nop

08000b04 <__aeabi_dcmpge>:
 8000b04:	f84d ed08 	str.w	lr, [sp, #-8]!
 8000b08:	f7ff ffce 	bl	8000aa8 <__aeabi_cdrcmple>
 8000b0c:	bf94      	ite	ls
 8000b0e:	2001      	movls	r0, #1
 8000b10:	2000      	movhi	r0, #0
 8000b12:	f85d fb08 	ldr.w	pc, [sp], #8
 8000b16:	bf00      	nop

08000b18 <__aeabi_dcmpgt>:
 8000b18:	f84d ed08 	str.w	lr, [sp, #-8]!
 8000b1c:	f7ff ffc4 	bl	8000aa8 <__aeabi_cdrcmple>
 8000b20:	bf34      	ite	cc
 8000b22:	2001      	movcc	r0, #1
 8000b24:	2000      	movcs	r0, #0
 8000b26:	f85d fb08 	ldr.w	pc, [sp], #8
 8000b2a:	bf00      	nop

08000b2c <__aeabi_dcmpun>:
 8000b2c:	ea4f 0c41 	mov.w	ip, r1, lsl #1
 8000b30:	ea7f 5c6c 	mvns.w	ip, ip, asr #21
 8000b34:	d102      	bne.n	8000b3c <__aeabi_dcmpun+0x10>
 8000b36:	ea50 3c01 	orrs.w	ip, r0, r1, lsl #12
 8000b3a:	d10a      	bne.n	8000b52 <__aeabi_dcmpun+0x26>
 8000b3c:	ea4f 0c43 	mov.w	ip, r3, lsl #1
 8000b40:	ea7f 5c6c 	mvns.w	ip, ip, asr #21
 8000b44:	d102      	bne.n	8000b4c <__aeabi_dcmpun+0x20>
 8000b46:	ea52 3c03 	orrs.w	ip, r2, r3, lsl #12
 8000b4a:	d102      	bne.n	8000b52 <__aeabi_dcmpun+0x26>
 8000b4c:	f04f 0000 	mov.w	r0, #0
 8000b50:	4770      	bx	lr
 8000b52:	f04f 0001 	mov.w	r0, #1
 8000b56:	4770      	bx	lr

08000b58 <__aeabi_d2iz>:
 8000b58:	ea4f 0241 	mov.w	r2, r1, lsl #1
 8000b5c:	f512 1200 	adds.w	r2, r2, #2097152	; 0x200000
 8000b60:	d215      	bcs.n	8000b8e <__aeabi_d2iz+0x36>
 8000b62:	d511      	bpl.n	8000b88 <__aeabi_d2iz+0x30>
 8000b64:	f46f 7378 	mvn.w	r3, #992	; 0x3e0
 8000b68:	ebb3 5262 	subs.w	r2, r3, r2, asr #21
 8000b6c:	d912      	bls.n	8000b94 <__aeabi_d2iz+0x3c>
 8000b6e:	ea4f 23c1 	mov.w	r3, r1, lsl #11
 8000b72:	f043 4300 	orr.w	r3, r3, #2147483648	; 0x80000000
 8000b76:	ea43 5350 	orr.w	r3, r3, r0, lsr #21
 8000b7a:	f011 4f00 	tst.w	r1, #2147483648	; 0x80000000
 8000b7e:	fa23 f002 	lsr.w	r0, r3, r2
 8000b82:	bf18      	it	ne
 8000b84:	4240      	negne	r0, r0
 8000b86:	4770      	bx	lr
 8000b88:	f04f 0000 	mov.w	r0, #0
 8000b8c:	4770      	bx	lr
 8000b8e:	ea50 3001 	orrs.w	r0, r0, r1, lsl #12
 8000b92:	d105      	bne.n	8000ba0 <__aeabi_d2iz+0x48>
 8000b94:	f011 4000 	ands.w	r0, r1, #2147483648	; 0x80000000
 8000b98:	bf08      	it	eq
 8000b9a:	f06f 4000 	mvneq.w	r0, #2147483648	; 0x80000000
 8000b9e:	4770      	bx	lr
 8000ba0:	f04f 0000 	mov.w	r0, #0
 8000ba4:	4770      	bx	lr
 8000ba6:	bf00      	nop

08000ba8 <LL_GPIO_SetPinMode>:
  *         @arg @ref LL_GPIO_MODE_ALTERNATE
  *         @arg @ref LL_GPIO_MODE_ANALOG
  * @retval None
  */
__STATIC_INLINE void LL_GPIO_SetPinMode(GPIO_TypeDef *GPIOx, uint32_t Pin, uint32_t Mode)
{
 8000ba8:	b480      	push	{r7}
 8000baa:	b089      	sub	sp, #36	; 0x24
 8000bac:	af00      	add	r7, sp, #0
 8000bae:	60f8      	str	r0, [r7, #12]
 8000bb0:	60b9      	str	r1, [r7, #8]
 8000bb2:	607a      	str	r2, [r7, #4]
  MODIFY_REG(GPIOx->MODER, (GPIO_MODER_MODER0 << (POSITION_VAL(Pin) * 2U)), (Mode << (POSITION_VAL(Pin) * 2U)));
 8000bb4:	68fb      	ldr	r3, [r7, #12]
 8000bb6:	681a      	ldr	r2, [r3, #0]
 8000bb8:	68bb      	ldr	r3, [r7, #8]
 8000bba:	617b      	str	r3, [r7, #20]
__attribute__((always_inline)) __STATIC_INLINE uint32_t __RBIT(uint32_t value)
{
  uint32_t result;

#if       (__CORTEX_M >= 0x03U) || (__CORTEX_SC >= 300U)
   __ASM volatile ("rbit %0, %1" : "=r" (result) : "r" (value) );
 8000bbc:	697b      	ldr	r3, [r7, #20]
 8000bbe:	fa93 f3a3 	rbit	r3, r3
 8000bc2:	613b      	str	r3, [r7, #16]
    result |= value & 1U;
    s--;
  }
  result <<= s;                        /* shift when v's highest bits are zero */
#endif
  return(result);
 8000bc4:	693b      	ldr	r3, [r7, #16]
 8000bc6:	fab3 f383 	clz	r3, r3
 8000bca:	005b      	lsls	r3, r3, #1
 8000bcc:	2103      	movs	r1, #3
 8000bce:	fa01 f303 	lsl.w	r3, r1, r3
 8000bd2:	43db      	mvns	r3, r3
 8000bd4:	401a      	ands	r2, r3
 8000bd6:	68bb      	ldr	r3, [r7, #8]
 8000bd8:	61fb      	str	r3, [r7, #28]
   __ASM volatile ("rbit %0, %1" : "=r" (result) : "r" (value) );
 8000bda:	69fb      	ldr	r3, [r7, #28]
 8000bdc:	fa93 f3a3 	rbit	r3, r3
 8000be0:	61bb      	str	r3, [r7, #24]
  return(result);
 8000be2:	69bb      	ldr	r3, [r7, #24]
 8000be4:	fab3 f383 	clz	r3, r3
 8000be8:	005b      	lsls	r3, r3, #1
 8000bea:	6879      	ldr	r1, [r7, #4]
 8000bec:	fa01 f303 	lsl.w	r3, r1, r3
 8000bf0:	431a      	orrs	r2, r3
 8000bf2:	68fb      	ldr	r3, [r7, #12]
 8000bf4:	601a      	str	r2, [r3, #0]
}
 8000bf6:	bf00      	nop
 8000bf8:	3724      	adds	r7, #36	; 0x24
 8000bfa:	46bd      	mov	sp, r7
 8000bfc:	f85d 7b04 	ldr.w	r7, [sp], #4
 8000c00:	4770      	bx	lr

08000c02 <LL_GPIO_SetPinOutputType>:
  *         @arg @ref LL_GPIO_OUTPUT_PUSHPULL
  *         @arg @ref LL_GPIO_OUTPUT_OPENDRAIN
  * @retval None
  */
__STATIC_INLINE void LL_GPIO_SetPinOutputType(GPIO_TypeDef *GPIOx, uint32_t PinMask, uint32_t OutputType)
{
 8000c02:	b480      	push	{r7}
 8000c04:	b085      	sub	sp, #20
 8000c06:	af00      	add	r7, sp, #0
 8000c08:	60f8      	str	r0, [r7, #12]
 8000c0a:	60b9      	str	r1, [r7, #8]
 8000c0c:	607a      	str	r2, [r7, #4]
  MODIFY_REG(GPIOx->OTYPER, PinMask, (PinMask * OutputType));
 8000c0e:	68fb      	ldr	r3, [r7, #12]
 8000c10:	685a      	ldr	r2, [r3, #4]
 8000c12:	68bb      	ldr	r3, [r7, #8]
 8000c14:	43db      	mvns	r3, r3
 8000c16:	401a      	ands	r2, r3
 8000c18:	68bb      	ldr	r3, [r7, #8]
 8000c1a:	6879      	ldr	r1, [r7, #4]
 8000c1c:	fb01 f303 	mul.w	r3, r1, r3
 8000c20:	431a      	orrs	r2, r3
 8000c22:	68fb      	ldr	r3, [r7, #12]
 8000c24:	605a      	str	r2, [r3, #4]
}
 8000c26:	bf00      	nop
 8000c28:	3714      	adds	r7, #20
 8000c2a:	46bd      	mov	sp, r7
 8000c2c:	f85d 7b04 	ldr.w	r7, [sp], #4
 8000c30:	4770      	bx	lr

08000c32 <LL_GPIO_SetPinSpeed>:
  *         @arg @ref LL_GPIO_SPEED_FREQ_MEDIUM
  *         @arg @ref LL_GPIO_SPEED_FREQ_HIGH
  * @retval None
  */
__STATIC_INLINE void LL_GPIO_SetPinSpeed(GPIO_TypeDef *GPIOx, uint32_t Pin, uint32_t  Speed)
{
 8000c32:	b480      	push	{r7}
 8000c34:	b089      	sub	sp, #36	; 0x24
 8000c36:	af00      	add	r7, sp, #0
 8000c38:	60f8      	str	r0, [r7, #12]
 8000c3a:	60b9      	str	r1, [r7, #8]
 8000c3c:	607a      	str	r2, [r7, #4]
  MODIFY_REG(GPIOx->OSPEEDR, (GPIO_OSPEEDER_OSPEEDR0 << (POSITION_VAL(Pin) * 2U)),
 8000c3e:	68fb      	ldr	r3, [r7, #12]
 8000c40:	689a      	ldr	r2, [r3, #8]
 8000c42:	68bb      	ldr	r3, [r7, #8]
 8000c44:	617b      	str	r3, [r7, #20]
   __ASM volatile ("rbit %0, %1" : "=r" (result) : "r" (value) );
 8000c46:	697b      	ldr	r3, [r7, #20]
 8000c48:	fa93 f3a3 	rbit	r3, r3
 8000c4c:	613b      	str	r3, [r7, #16]
  return(result);
 8000c4e:	693b      	ldr	r3, [r7, #16]
 8000c50:	fab3 f383 	clz	r3, r3
 8000c54:	005b      	lsls	r3, r3, #1
 8000c56:	2103      	movs	r1, #3
 8000c58:	fa01 f303 	lsl.w	r3, r1, r3
 8000c5c:	43db      	mvns	r3, r3
 8000c5e:	401a      	ands	r2, r3
 8000c60:	68bb      	ldr	r3, [r7, #8]
 8000c62:	61fb      	str	r3, [r7, #28]
   __ASM volatile ("rbit %0, %1" : "=r" (result) : "r" (value) );
 8000c64:	69fb      	ldr	r3, [r7, #28]
 8000c66:	fa93 f3a3 	rbit	r3, r3
 8000c6a:	61bb      	str	r3, [r7, #24]
  return(result);
 8000c6c:	69bb      	ldr	r3, [r7, #24]
 8000c6e:	fab3 f383 	clz	r3, r3
 8000c72:	005b      	lsls	r3, r3, #1
 8000c74:	6879      	ldr	r1, [r7, #4]
 8000c76:	fa01 f303 	lsl.w	r3, r1, r3
 8000c7a:	431a      	orrs	r2, r3
 8000c7c:	68fb      	ldr	r3, [r7, #12]
 8000c7e:	609a      	str	r2, [r3, #8]
             (Speed << (POSITION_VAL(Pin) * 2U)));
}
 8000c80:	bf00      	nop
 8000c82:	3724      	adds	r7, #36	; 0x24
 8000c84:	46bd      	mov	sp, r7
 8000c86:	f85d 7b04 	ldr.w	r7, [sp], #4
 8000c8a:	4770      	bx	lr

08000c8c <LL_GPIO_SetPinPull>:
  *         @arg @ref LL_GPIO_PULL_UP
  *         @arg @ref LL_GPIO_PULL_DOWN
  * @retval None
  */
__STATIC_INLINE void LL_GPIO_SetPinPull(GPIO_TypeDef *GPIOx, uint32_t Pin, uint32_t Pull)
{
 8000c8c:	b480      	push	{r7}
 8000c8e:	b089      	sub	sp, #36	; 0x24
 8000c90:	af00      	add	r7, sp, #0
 8000c92:	60f8      	str	r0, [r7, #12]
 8000c94:	60b9      	str	r1, [r7, #8]
 8000c96:	607a      	str	r2, [r7, #4]
  MODIFY_REG(GPIOx->PUPDR, (GPIO_PUPDR_PUPDR0 << (POSITION_VAL(Pin) * 2U)), (Pull << (POSITION_VAL(Pin) * 2U)));
 8000c98:	68fb      	ldr	r3, [r7, #12]
 8000c9a:	68da      	ldr	r2, [r3, #12]
 8000c9c:	68bb      	ldr	r3, [r7, #8]
 8000c9e:	617b      	str	r3, [r7, #20]
   __ASM volatile ("rbit %0, %1" : "=r" (result) : "r" (value) );
 8000ca0:	697b      	ldr	r3, [r7, #20]
 8000ca2:	fa93 f3a3 	rbit	r3, r3
 8000ca6:	613b      	str	r3, [r7, #16]
  return(result);
 8000ca8:	693b      	ldr	r3, [r7, #16]
 8000caa:	fab3 f383 	clz	r3, r3
 8000cae:	005b      	lsls	r3, r3, #1
 8000cb0:	2103      	movs	r1, #3
 8000cb2:	fa01 f303 	lsl.w	r3, r1, r3
 8000cb6:	43db      	mvns	r3, r3
 8000cb8:	401a      	ands	r2, r3
 8000cba:	68bb      	ldr	r3, [r7, #8]
 8000cbc:	61fb      	str	r3, [r7, #28]
   __ASM volatile ("rbit %0, %1" : "=r" (result) : "r" (value) );
 8000cbe:	69fb      	ldr	r3, [r7, #28]
 8000cc0:	fa93 f3a3 	rbit	r3, r3
 8000cc4:	61bb      	str	r3, [r7, #24]
  return(result);
 8000cc6:	69bb      	ldr	r3, [r7, #24]
 8000cc8:	fab3 f383 	clz	r3, r3
 8000ccc:	005b      	lsls	r3, r3, #1
 8000cce:	6879      	ldr	r1, [r7, #4]
 8000cd0:	fa01 f303 	lsl.w	r3, r1, r3
 8000cd4:	431a      	orrs	r2, r3
 8000cd6:	68fb      	ldr	r3, [r7, #12]
 8000cd8:	60da      	str	r2, [r3, #12]
}
 8000cda:	bf00      	nop
 8000cdc:	3724      	adds	r7, #36	; 0x24
 8000cde:	46bd      	mov	sp, r7
 8000ce0:	f85d 7b04 	ldr.w	r7, [sp], #4
 8000ce4:	4770      	bx	lr

08000ce6 <LL_GPIO_SetAFPin_0_7>:
  *         @arg @ref LL_GPIO_AF_14
  *         @arg @ref LL_GPIO_AF_15
  * @retval None
  */
__STATIC_INLINE void LL_GPIO_SetAFPin_0_7(GPIO_TypeDef *GPIOx, uint32_t Pin, uint32_t Alternate)
{
 8000ce6:	b480      	push	{r7}
 8000ce8:	b089      	sub	sp, #36	; 0x24
 8000cea:	af00      	add	r7, sp, #0
 8000cec:	60f8      	str	r0, [r7, #12]
 8000cee:	60b9      	str	r1, [r7, #8]
 8000cf0:	607a      	str	r2, [r7, #4]
  MODIFY_REG(GPIOx->AFR[0], (GPIO_AFRL_AFRL0 << (POSITION_VAL(Pin) * 4U)),
 8000cf2:	68fb      	ldr	r3, [r7, #12]
 8000cf4:	6a1a      	ldr	r2, [r3, #32]
 8000cf6:	68bb      	ldr	r3, [r7, #8]
 8000cf8:	617b      	str	r3, [r7, #20]
   __ASM volatile ("rbit %0, %1" : "=r" (result) : "r" (value) );
 8000cfa:	697b      	ldr	r3, [r7, #20]
 8000cfc:	fa93 f3a3 	rbit	r3, r3
 8000d00:	613b      	str	r3, [r7, #16]
  return(result);
 8000d02:	693b      	ldr	r3, [r7, #16]
 8000d04:	fab3 f383 	clz	r3, r3
 8000d08:	009b      	lsls	r3, r3, #2
 8000d0a:	210f      	movs	r1, #15
 8000d0c:	fa01 f303 	lsl.w	r3, r1, r3
 8000d10:	43db      	mvns	r3, r3
 8000d12:	401a      	ands	r2, r3
 8000d14:	68bb      	ldr	r3, [r7, #8]
 8000d16:	61fb      	str	r3, [r7, #28]
   __ASM volatile ("rbit %0, %1" : "=r" (result) : "r" (value) );
 8000d18:	69fb      	ldr	r3, [r7, #28]
 8000d1a:	fa93 f3a3 	rbit	r3, r3
 8000d1e:	61bb      	str	r3, [r7, #24]
  return(result);
 8000d20:	69bb      	ldr	r3, [r7, #24]
 8000d22:	fab3 f383 	clz	r3, r3
 8000d26:	009b      	lsls	r3, r3, #2
 8000d28:	6879      	ldr	r1, [r7, #4]
 8000d2a:	fa01 f303 	lsl.w	r3, r1, r3
 8000d2e:	431a      	orrs	r2, r3
 8000d30:	68fb      	ldr	r3, [r7, #12]
 8000d32:	621a      	str	r2, [r3, #32]
             (Alternate << (POSITION_VAL(Pin) * 4U)));
}
 8000d34:	bf00      	nop
 8000d36:	3724      	adds	r7, #36	; 0x24
 8000d38:	46bd      	mov	sp, r7
 8000d3a:	f85d 7b04 	ldr.w	r7, [sp], #4
 8000d3e:	4770      	bx	lr

08000d40 <LL_GPIO_SetAFPin_8_15>:
  *         @arg @ref LL_GPIO_AF_14
  *         @arg @ref LL_GPIO_AF_15
  * @retval None
  */
__STATIC_INLINE void LL_GPIO_SetAFPin_8_15(GPIO_TypeDef *GPIOx, uint32_t Pin, uint32_t Alternate)
{
 8000d40:	b480      	push	{r7}
 8000d42:	b089      	sub	sp, #36	; 0x24
 8000d44:	af00      	add	r7, sp, #0
 8000d46:	60f8      	str	r0, [r7, #12]
 8000d48:	60b9      	str	r1, [r7, #8]
 8000d4a:	607a      	str	r2, [r7, #4]
  MODIFY_REG(GPIOx->AFR[1], (GPIO_AFRH_AFRH0 << (POSITION_VAL(Pin >> 8U) * 4U)),
 8000d4c:	68fb      	ldr	r3, [r7, #12]
 8000d4e:	6a5a      	ldr	r2, [r3, #36]	; 0x24
 8000d50:	68bb      	ldr	r3, [r7, #8]
 8000d52:	0a1b      	lsrs	r3, r3, #8
 8000d54:	617b      	str	r3, [r7, #20]
   __ASM volatile ("rbit %0, %1" : "=r" (result) : "r" (value) );
 8000d56:	697b      	ldr	r3, [r7, #20]
 8000d58:	fa93 f3a3 	rbit	r3, r3
 8000d5c:	613b      	str	r3, [r7, #16]
  return(result);
 8000d5e:	693b      	ldr	r3, [r7, #16]
 8000d60:	fab3 f383 	clz	r3, r3
 8000d64:	009b      	lsls	r3, r3, #2
 8000d66:	210f      	movs	r1, #15
 8000d68:	fa01 f303 	lsl.w	r3, r1, r3
 8000d6c:	43db      	mvns	r3, r3
 8000d6e:	401a      	ands	r2, r3
 8000d70:	68bb      	ldr	r3, [r7, #8]
 8000d72:	0a1b      	lsrs	r3, r3, #8
 8000d74:	61fb      	str	r3, [r7, #28]
   __ASM volatile ("rbit %0, %1" : "=r" (result) : "r" (value) );
 8000d76:	69fb      	ldr	r3, [r7, #28]
 8000d78:	fa93 f3a3 	rbit	r3, r3
 8000d7c:	61bb      	str	r3, [r7, #24]
  return(result);
 8000d7e:	69bb      	ldr	r3, [r7, #24]
 8000d80:	fab3 f383 	clz	r3, r3
 8000d84:	009b      	lsls	r3, r3, #2
 8000d86:	6879      	ldr	r1, [r7, #4]
 8000d88:	fa01 f303 	lsl.w	r3, r1, r3
 8000d8c:	431a      	orrs	r2, r3
 8000d8e:	68fb      	ldr	r3, [r7, #12]
 8000d90:	625a      	str	r2, [r3, #36]	; 0x24
             (Alternate << (POSITION_VAL(Pin >> 8U) * 4U)));
}
 8000d92:	bf00      	nop
 8000d94:	3724      	adds	r7, #36	; 0x24
 8000d96:	46bd      	mov	sp, r7
 8000d98:	f85d 7b04 	ldr.w	r7, [sp], #4
 8000d9c:	4770      	bx	lr

08000d9e <LL_GPIO_Init>:
  * @retval An ErrorStatus enumeration value:
  *          - SUCCESS: GPIO registers are initialized according to GPIO_InitStruct content
  *          - ERROR:   Not applicable
  */
ErrorStatus LL_GPIO_Init(GPIO_TypeDef *GPIOx, LL_GPIO_InitTypeDef *GPIO_InitStruct)
{
 8000d9e:	b580      	push	{r7, lr}
 8000da0:	b088      	sub	sp, #32
 8000da2:	af00      	add	r7, sp, #0
 8000da4:	6078      	str	r0, [r7, #4]
 8000da6:	6039      	str	r1, [r7, #0]
  uint32_t pinpos     = 0x00000000U;
 8000da8:	2300      	movs	r3, #0
 8000daa:	61fb      	str	r3, [r7, #28]
  uint32_t currentpin = 0x00000000U;
 8000dac:	2300      	movs	r3, #0
 8000dae:	61bb      	str	r3, [r7, #24]
  assert_param(IS_LL_GPIO_MODE(GPIO_InitStruct->Mode));
  assert_param(IS_LL_GPIO_PULL(GPIO_InitStruct->Pull));

  /* ------------------------- Configure the port pins ---------------- */
  /* Initialize  pinpos on first pin set */
  pinpos = POSITION_VAL(GPIO_InitStruct->Pin);
 8000db0:	683b      	ldr	r3, [r7, #0]
 8000db2:	681b      	ldr	r3, [r3, #0]
 8000db4:	617b      	str	r3, [r7, #20]
   __ASM volatile ("rbit %0, %1" : "=r" (result) : "r" (value) );
 8000db6:	697b      	ldr	r3, [r7, #20]
 8000db8:	fa93 f3a3 	rbit	r3, r3
 8000dbc:	613b      	str	r3, [r7, #16]
  return(result);
 8000dbe:	693b      	ldr	r3, [r7, #16]
 8000dc0:	fab3 f383 	clz	r3, r3
 8000dc4:	61fb      	str	r3, [r7, #28]

  /* Configure the port pins */
  while (((GPIO_InitStruct->Pin) >> pinpos) != 0x00000000U)
 8000dc6:	e048      	b.n	8000e5a <LL_GPIO_Init+0xbc>
  {
    /* Get current io position */
    currentpin = (GPIO_InitStruct->Pin) & (0x00000001U << pinpos);
 8000dc8:	683b      	ldr	r3, [r7, #0]
 8000dca:	681a      	ldr	r2, [r3, #0]
 8000dcc:	2101      	movs	r1, #1
 8000dce:	69fb      	ldr	r3, [r7, #28]
 8000dd0:	fa01 f303 	lsl.w	r3, r1, r3
 8000dd4:	4013      	ands	r3, r2
 8000dd6:	61bb      	str	r3, [r7, #24]

    if (currentpin)
 8000dd8:	69bb      	ldr	r3, [r7, #24]
 8000dda:	2b00      	cmp	r3, #0
 8000ddc:	d03a      	beq.n	8000e54 <LL_GPIO_Init+0xb6>
    {
      /* Pin Mode configuration */
      LL_GPIO_SetPinMode(GPIOx, currentpin, GPIO_InitStruct->Mode);
 8000dde:	683b      	ldr	r3, [r7, #0]
 8000de0:	685b      	ldr	r3, [r3, #4]
 8000de2:	461a      	mov	r2, r3
 8000de4:	69b9      	ldr	r1, [r7, #24]
 8000de6:	6878      	ldr	r0, [r7, #4]
 8000de8:	f7ff fede 	bl	8000ba8 <LL_GPIO_SetPinMode>

      if ((GPIO_InitStruct->Mode == LL_GPIO_MODE_OUTPUT) || (GPIO_InitStruct->Mode == LL_GPIO_MODE_ALTERNATE))
 8000dec:	683b      	ldr	r3, [r7, #0]
 8000dee:	685b      	ldr	r3, [r3, #4]
 8000df0:	2b01      	cmp	r3, #1
 8000df2:	d003      	beq.n	8000dfc <LL_GPIO_Init+0x5e>
 8000df4:	683b      	ldr	r3, [r7, #0]
 8000df6:	685b      	ldr	r3, [r3, #4]
 8000df8:	2b02      	cmp	r3, #2
 8000dfa:	d106      	bne.n	8000e0a <LL_GPIO_Init+0x6c>
      {
        /* Check Speed mode parameters */
        assert_param(IS_LL_GPIO_SPEED(GPIO_InitStruct->Speed));

        /* Speed mode configuration */
        LL_GPIO_SetPinSpeed(GPIOx, currentpin, GPIO_InitStruct->Speed);
 8000dfc:	683b      	ldr	r3, [r7, #0]
 8000dfe:	689b      	ldr	r3, [r3, #8]
 8000e00:	461a      	mov	r2, r3
 8000e02:	69b9      	ldr	r1, [r7, #24]
 8000e04:	6878      	ldr	r0, [r7, #4]
 8000e06:	f7ff ff14 	bl	8000c32 <LL_GPIO_SetPinSpeed>
      }

      /* Pull-up Pull down resistor configuration*/
      LL_GPIO_SetPinPull(GPIOx, currentpin, GPIO_InitStruct->Pull);
 8000e0a:	683b      	ldr	r3, [r7, #0]
 8000e0c:	691b      	ldr	r3, [r3, #16]
 8000e0e:	461a      	mov	r2, r3
 8000e10:	69b9      	ldr	r1, [r7, #24]
 8000e12:	6878      	ldr	r0, [r7, #4]
 8000e14:	f7ff ff3a 	bl	8000c8c <LL_GPIO_SetPinPull>

      if (GPIO_InitStruct->Mode == LL_GPIO_MODE_ALTERNATE)
 8000e18:	683b      	ldr	r3, [r7, #0]
 8000e1a:	685b      	ldr	r3, [r3, #4]
 8000e1c:	2b02      	cmp	r3, #2
 8000e1e:	d119      	bne.n	8000e54 <LL_GPIO_Init+0xb6>
 8000e20:	69bb      	ldr	r3, [r7, #24]
 8000e22:	60fb      	str	r3, [r7, #12]
   __ASM volatile ("rbit %0, %1" : "=r" (result) : "r" (value) );
 8000e24:	68fb      	ldr	r3, [r7, #12]
 8000e26:	fa93 f3a3 	rbit	r3, r3
 8000e2a:	60bb      	str	r3, [r7, #8]
  return(result);
 8000e2c:	68bb      	ldr	r3, [r7, #8]
      {
        /* Check Alternate parameter */
        assert_param(IS_LL_GPIO_ALTERNATE(GPIO_InitStruct->Alternate));

        /* Speed mode configuration */
        if (POSITION_VAL(currentpin) < 0x00000008U)
 8000e2e:	fab3 f383 	clz	r3, r3
 8000e32:	2b07      	cmp	r3, #7
 8000e34:	d807      	bhi.n	8000e46 <LL_GPIO_Init+0xa8>
        {
          LL_GPIO_SetAFPin_0_7(GPIOx, currentpin, GPIO_InitStruct->Alternate);
 8000e36:	683b      	ldr	r3, [r7, #0]
 8000e38:	695b      	ldr	r3, [r3, #20]
 8000e3a:	461a      	mov	r2, r3
 8000e3c:	69b9      	ldr	r1, [r7, #24]
 8000e3e:	6878      	ldr	r0, [r7, #4]
 8000e40:	f7ff ff51 	bl	8000ce6 <LL_GPIO_SetAFPin_0_7>
 8000e44:	e006      	b.n	8000e54 <LL_GPIO_Init+0xb6>
        }
        else
        {
          LL_GPIO_SetAFPin_8_15(GPIOx, currentpin, GPIO_InitStruct->Alternate);
 8000e46:	683b      	ldr	r3, [r7, #0]
 8000e48:	695b      	ldr	r3, [r3, #20]
 8000e4a:	461a      	mov	r2, r3
 8000e4c:	69b9      	ldr	r1, [r7, #24]
 8000e4e:	6878      	ldr	r0, [r7, #4]
 8000e50:	f7ff ff76 	bl	8000d40 <LL_GPIO_SetAFPin_8_15>
        }
      }
    }
    pinpos++;
 8000e54:	69fb      	ldr	r3, [r7, #28]
 8000e56:	3301      	adds	r3, #1
 8000e58:	61fb      	str	r3, [r7, #28]
  while (((GPIO_InitStruct->Pin) >> pinpos) != 0x00000000U)
 8000e5a:	683b      	ldr	r3, [r7, #0]
 8000e5c:	681a      	ldr	r2, [r3, #0]
 8000e5e:	69fb      	ldr	r3, [r7, #28]
 8000e60:	fa22 f303 	lsr.w	r3, r2, r3
 8000e64:	2b00      	cmp	r3, #0
 8000e66:	d1af      	bne.n	8000dc8 <LL_GPIO_Init+0x2a>
  }

  if ((GPIO_InitStruct->Mode == LL_GPIO_MODE_OUTPUT) || (GPIO_InitStruct->Mode == LL_GPIO_MODE_ALTERNATE))
 8000e68:	683b      	ldr	r3, [r7, #0]
 8000e6a:	685b      	ldr	r3, [r3, #4]
 8000e6c:	2b01      	cmp	r3, #1
 8000e6e:	d003      	beq.n	8000e78 <LL_GPIO_Init+0xda>
 8000e70:	683b      	ldr	r3, [r7, #0]
 8000e72:	685b      	ldr	r3, [r3, #4]
 8000e74:	2b02      	cmp	r3, #2
 8000e76:	d107      	bne.n	8000e88 <LL_GPIO_Init+0xea>
  {
    /* Check Output mode parameters */
    assert_param(IS_LL_GPIO_OUTPUT_TYPE(GPIO_InitStruct->OutputType));

    /* Output mode configuration*/
    LL_GPIO_SetPinOutputType(GPIOx, GPIO_InitStruct->Pin, GPIO_InitStruct->OutputType);
 8000e78:	683b      	ldr	r3, [r7, #0]
 8000e7a:	6819      	ldr	r1, [r3, #0]
 8000e7c:	683b      	ldr	r3, [r7, #0]
 8000e7e:	68db      	ldr	r3, [r3, #12]
 8000e80:	461a      	mov	r2, r3
 8000e82:	6878      	ldr	r0, [r7, #4]
 8000e84:	f7ff febd 	bl	8000c02 <LL_GPIO_SetPinOutputType>

  }
  return (SUCCESS);
 8000e88:	2300      	movs	r3, #0
}
 8000e8a:	4618      	mov	r0, r3
 8000e8c:	3720      	adds	r7, #32
 8000e8e:	46bd      	mov	sp, r7
 8000e90:	bd80      	pop	{r7, pc}

08000e92 <LL_I2C_Enable>:
  * @rmtoll CR1          PE            LL_I2C_Enable
  * @param  I2Cx I2C Instance.
  * @retval None
  */
__STATIC_INLINE void LL_I2C_Enable(I2C_TypeDef *I2Cx)
{
 8000e92:	b480      	push	{r7}
 8000e94:	b083      	sub	sp, #12
 8000e96:	af00      	add	r7, sp, #0
 8000e98:	6078      	str	r0, [r7, #4]
  SET_BIT(I2Cx->CR1, I2C_CR1_PE);
 8000e9a:	687b      	ldr	r3, [r7, #4]
 8000e9c:	681b      	ldr	r3, [r3, #0]
 8000e9e:	f043 0201 	orr.w	r2, r3, #1
 8000ea2:	687b      	ldr	r3, [r7, #4]
 8000ea4:	601a      	str	r2, [r3, #0]
}
 8000ea6:	bf00      	nop
 8000ea8:	370c      	adds	r7, #12
 8000eaa:	46bd      	mov	sp, r7
 8000eac:	f85d 7b04 	ldr.w	r7, [sp], #4
 8000eb0:	4770      	bx	lr

08000eb2 <LL_I2C_Disable>:
  * @rmtoll CR1          PE            LL_I2C_Disable
  * @param  I2Cx I2C Instance.
  * @retval None
  */
__STATIC_INLINE void LL_I2C_Disable(I2C_TypeDef *I2Cx)
{
 8000eb2:	b480      	push	{r7}
 8000eb4:	b083      	sub	sp, #12
 8000eb6:	af00      	add	r7, sp, #0
 8000eb8:	6078      	str	r0, [r7, #4]
  CLEAR_BIT(I2Cx->CR1, I2C_CR1_PE);
 8000eba:	687b      	ldr	r3, [r7, #4]
 8000ebc:	681b      	ldr	r3, [r3, #0]
 8000ebe:	f023 0201 	bic.w	r2, r3, #1
 8000ec2:	687b      	ldr	r3, [r7, #4]
 8000ec4:	601a      	str	r2, [r3, #0]
}
 8000ec6:	bf00      	nop
 8000ec8:	370c      	adds	r7, #12
 8000eca:	46bd      	mov	sp, r7
 8000ecc:	f85d 7b04 	ldr.w	r7, [sp], #4
 8000ed0:	4770      	bx	lr

08000ed2 <LL_I2C_ConfigFilters>:
  *         This parameter is used to configure the digital noise filter on SDA and SCL input.
  *         The digital filter will filter spikes with a length of up to DNF[3:0]*ti2cclk.
  * @retval None
  */
__STATIC_INLINE void LL_I2C_ConfigFilters(I2C_TypeDef *I2Cx, uint32_t AnalogFilter, uint32_t DigitalFilter)
{
 8000ed2:	b480      	push	{r7}
 8000ed4:	b085      	sub	sp, #20
 8000ed6:	af00      	add	r7, sp, #0
 8000ed8:	60f8      	str	r0, [r7, #12]
 8000eda:	60b9      	str	r1, [r7, #8]
 8000edc:	607a      	str	r2, [r7, #4]
  MODIFY_REG(I2Cx->CR1, I2C_CR1_ANFOFF | I2C_CR1_DNF, AnalogFilter | (DigitalFilter << I2C_CR1_DNF_Pos));
 8000ede:	68fb      	ldr	r3, [r7, #12]
 8000ee0:	681b      	ldr	r3, [r3, #0]
 8000ee2:	f423 52f8 	bic.w	r2, r3, #7936	; 0x1f00
 8000ee6:	687b      	ldr	r3, [r7, #4]
 8000ee8:	0219      	lsls	r1, r3, #8
 8000eea:	68bb      	ldr	r3, [r7, #8]
 8000eec:	430b      	orrs	r3, r1
 8000eee:	431a      	orrs	r2, r3
 8000ef0:	68fb      	ldr	r3, [r7, #12]
 8000ef2:	601a      	str	r2, [r3, #0]
}
 8000ef4:	bf00      	nop
 8000ef6:	3714      	adds	r7, #20
 8000ef8:	46bd      	mov	sp, r7
 8000efa:	f85d 7b04 	ldr.w	r7, [sp], #4
 8000efe:	4770      	bx	lr

08000f00 <LL_I2C_SetOwnAddress1>:
  *         @arg @ref LL_I2C_OWNADDRESS1_7BIT
  *         @arg @ref LL_I2C_OWNADDRESS1_10BIT
  * @retval None
  */
__STATIC_INLINE void LL_I2C_SetOwnAddress1(I2C_TypeDef *I2Cx, uint32_t OwnAddress1, uint32_t OwnAddrSize)
{
 8000f00:	b480      	push	{r7}
 8000f02:	b085      	sub	sp, #20
 8000f04:	af00      	add	r7, sp, #0
 8000f06:	60f8      	str	r0, [r7, #12]
 8000f08:	60b9      	str	r1, [r7, #8]
 8000f0a:	607a      	str	r2, [r7, #4]
  MODIFY_REG(I2Cx->OAR1, I2C_OAR1_OA1 | I2C_OAR1_OA1MODE, OwnAddress1 | OwnAddrSize);
 8000f0c:	68fb      	ldr	r3, [r7, #12]
 8000f0e:	689b      	ldr	r3, [r3, #8]
 8000f10:	f423 63ff 	bic.w	r3, r3, #2040	; 0x7f8
 8000f14:	f023 0307 	bic.w	r3, r3, #7
 8000f18:	68b9      	ldr	r1, [r7, #8]
 8000f1a:	687a      	ldr	r2, [r7, #4]
 8000f1c:	430a      	orrs	r2, r1
 8000f1e:	431a      	orrs	r2, r3
 8000f20:	68fb      	ldr	r3, [r7, #12]
 8000f22:	609a      	str	r2, [r3, #8]
}
 8000f24:	bf00      	nop
 8000f26:	3714      	adds	r7, #20
 8000f28:	46bd      	mov	sp, r7
 8000f2a:	f85d 7b04 	ldr.w	r7, [sp], #4
 8000f2e:	4770      	bx	lr

08000f30 <LL_I2C_EnableOwnAddress1>:
  * @rmtoll OAR1         OA1EN         LL_I2C_EnableOwnAddress1
  * @param  I2Cx I2C Instance.
  * @retval None
  */
__STATIC_INLINE void LL_I2C_EnableOwnAddress1(I2C_TypeDef *I2Cx)
{
 8000f30:	b480      	push	{r7}
 8000f32:	b083      	sub	sp, #12
 8000f34:	af00      	add	r7, sp, #0
 8000f36:	6078      	str	r0, [r7, #4]
  SET_BIT(I2Cx->OAR1, I2C_OAR1_OA1EN);
 8000f38:	687b      	ldr	r3, [r7, #4]
 8000f3a:	689b      	ldr	r3, [r3, #8]
 8000f3c:	f443 4200 	orr.w	r2, r3, #32768	; 0x8000
 8000f40:	687b      	ldr	r3, [r7, #4]
 8000f42:	609a      	str	r2, [r3, #8]
}
 8000f44:	bf00      	nop
 8000f46:	370c      	adds	r7, #12
 8000f48:	46bd      	mov	sp, r7
 8000f4a:	f85d 7b04 	ldr.w	r7, [sp], #4
 8000f4e:	4770      	bx	lr

08000f50 <LL_I2C_DisableOwnAddress1>:
  * @rmtoll OAR1         OA1EN         LL_I2C_DisableOwnAddress1
  * @param  I2Cx I2C Instance.
  * @retval None
  */
__STATIC_INLINE void LL_I2C_DisableOwnAddress1(I2C_TypeDef *I2Cx)
{
 8000f50:	b480      	push	{r7}
 8000f52:	b083      	sub	sp, #12
 8000f54:	af00      	add	r7, sp, #0
 8000f56:	6078      	str	r0, [r7, #4]
  CLEAR_BIT(I2Cx->OAR1, I2C_OAR1_OA1EN);
 8000f58:	687b      	ldr	r3, [r7, #4]
 8000f5a:	689b      	ldr	r3, [r3, #8]
 8000f5c:	f423 4200 	bic.w	r2, r3, #32768	; 0x8000
 8000f60:	687b      	ldr	r3, [r7, #4]
 8000f62:	609a      	str	r2, [r3, #8]
}
 8000f64:	bf00      	nop
 8000f66:	370c      	adds	r7, #12
 8000f68:	46bd      	mov	sp, r7
 8000f6a:	f85d 7b04 	ldr.w	r7, [sp], #4
 8000f6e:	4770      	bx	lr

08000f70 <LL_I2C_SetTiming>:
  * @param  Timing This parameter must be a value between Min_Data=0 and Max_Data=0xFFFFFFFF.
  * @note   This parameter is computed with the STM32CubeMX Tool.
  * @retval None
  */
__STATIC_INLINE void LL_I2C_SetTiming(I2C_TypeDef *I2Cx, uint32_t Timing)
{
 8000f70:	b480      	push	{r7}
 8000f72:	b083      	sub	sp, #12
 8000f74:	af00      	add	r7, sp, #0
 8000f76:	6078      	str	r0, [r7, #4]
 8000f78:	6039      	str	r1, [r7, #0]
  WRITE_REG(I2Cx->TIMINGR, Timing);
 8000f7a:	687b      	ldr	r3, [r7, #4]
 8000f7c:	683a      	ldr	r2, [r7, #0]
 8000f7e:	611a      	str	r2, [r3, #16]
}
 8000f80:	bf00      	nop
 8000f82:	370c      	adds	r7, #12
 8000f84:	46bd      	mov	sp, r7
 8000f86:	f85d 7b04 	ldr.w	r7, [sp], #4
 8000f8a:	4770      	bx	lr

08000f8c <LL_I2C_SetMode>:
  *         @arg @ref LL_I2C_MODE_SMBUS_DEVICE
  *         @arg @ref LL_I2C_MODE_SMBUS_DEVICE_ARP
  * @retval None
  */
__STATIC_INLINE void LL_I2C_SetMode(I2C_TypeDef *I2Cx, uint32_t PeripheralMode)
{
 8000f8c:	b480      	push	{r7}
 8000f8e:	b083      	sub	sp, #12
 8000f90:	af00      	add	r7, sp, #0
 8000f92:	6078      	str	r0, [r7, #4]
 8000f94:	6039      	str	r1, [r7, #0]
  MODIFY_REG(I2Cx->CR1, I2C_CR1_SMBHEN | I2C_CR1_SMBDEN, PeripheralMode);
 8000f96:	687b      	ldr	r3, [r7, #4]
 8000f98:	681b      	ldr	r3, [r3, #0]
 8000f9a:	f423 1240 	bic.w	r2, r3, #3145728	; 0x300000
 8000f9e:	683b      	ldr	r3, [r7, #0]
 8000fa0:	431a      	orrs	r2, r3
 8000fa2:	687b      	ldr	r3, [r7, #4]
 8000fa4:	601a      	str	r2, [r3, #0]
}
 8000fa6:	bf00      	nop
 8000fa8:	370c      	adds	r7, #12
 8000faa:	46bd      	mov	sp, r7
 8000fac:	f85d 7b04 	ldr.w	r7, [sp], #4
 8000fb0:	4770      	bx	lr

08000fb2 <LL_I2C_AcknowledgeNextData>:
  *         @arg @ref LL_I2C_ACK
  *         @arg @ref LL_I2C_NACK
  * @retval None
  */
__STATIC_INLINE void LL_I2C_AcknowledgeNextData(I2C_TypeDef *I2Cx, uint32_t TypeAcknowledge)
{
 8000fb2:	b480      	push	{r7}
 8000fb4:	b083      	sub	sp, #12
 8000fb6:	af00      	add	r7, sp, #0
 8000fb8:	6078      	str	r0, [r7, #4]
 8000fba:	6039      	str	r1, [r7, #0]
  MODIFY_REG(I2Cx->CR2, I2C_CR2_NACK, TypeAcknowledge);
 8000fbc:	687b      	ldr	r3, [r7, #4]
 8000fbe:	685b      	ldr	r3, [r3, #4]
 8000fc0:	f423 4200 	bic.w	r2, r3, #32768	; 0x8000
 8000fc4:	683b      	ldr	r3, [r7, #0]
 8000fc6:	431a      	orrs	r2, r3
 8000fc8:	687b      	ldr	r3, [r7, #4]
 8000fca:	605a      	str	r2, [r3, #4]
}
 8000fcc:	bf00      	nop
 8000fce:	370c      	adds	r7, #12
 8000fd0:	46bd      	mov	sp, r7
 8000fd2:	f85d 7b04 	ldr.w	r7, [sp], #4
 8000fd6:	4770      	bx	lr

08000fd8 <LL_I2C_Init>:
  * @retval An ErrorStatus enumeration value:
  *          - SUCCESS: I2C registers are initialized
  *          - ERROR: Not applicable
  */
uint32_t LL_I2C_Init(I2C_TypeDef *I2Cx, LL_I2C_InitTypeDef *I2C_InitStruct)
{
 8000fd8:	b580      	push	{r7, lr}
 8000fda:	b082      	sub	sp, #8
 8000fdc:	af00      	add	r7, sp, #0
 8000fde:	6078      	str	r0, [r7, #4]
 8000fe0:	6039      	str	r1, [r7, #0]
  assert_param(IS_LL_I2C_OWN_ADDRESS1(I2C_InitStruct->OwnAddress1));
  assert_param(IS_LL_I2C_TYPE_ACKNOWLEDGE(I2C_InitStruct->TypeAcknowledge));
  assert_param(IS_LL_I2C_OWN_ADDRSIZE(I2C_InitStruct->OwnAddrSize));

  /* Disable the selected I2Cx Peripheral */
  LL_I2C_Disable(I2Cx);
 8000fe2:	6878      	ldr	r0, [r7, #4]
 8000fe4:	f7ff ff65 	bl	8000eb2 <LL_I2C_Disable>
  /*---------------------------- I2Cx CR1 Configuration ------------------------
   * Configure the analog and digital noise filters with parameters :
   * - AnalogFilter: I2C_CR1_ANFOFF bit
   * - DigitalFilter: I2C_CR1_DNF[3:0] bits
   */
  LL_I2C_ConfigFilters(I2Cx, I2C_InitStruct->AnalogFilter, I2C_InitStruct->DigitalFilter);
 8000fe8:	683b      	ldr	r3, [r7, #0]
 8000fea:	6899      	ldr	r1, [r3, #8]
 8000fec:	683b      	ldr	r3, [r7, #0]
 8000fee:	68db      	ldr	r3, [r3, #12]
 8000ff0:	461a      	mov	r2, r3
 8000ff2:	6878      	ldr	r0, [r7, #4]
 8000ff4:	f7ff ff6d 	bl	8000ed2 <LL_I2C_ConfigFilters>
  /*---------------------------- I2Cx TIMINGR Configuration --------------------
   * Configure the SDA setup, hold time and the SCL high, low period with parameter :
   * - Timing: I2C_TIMINGR_PRESC[3:0], I2C_TIMINGR_SCLDEL[3:0], I2C_TIMINGR_SDADEL[3:0],
   *           I2C_TIMINGR_SCLH[7:0] and I2C_TIMINGR_SCLL[7:0] bits
   */
  LL_I2C_SetTiming(I2Cx, I2C_InitStruct->Timing);
 8000ff8:	683b      	ldr	r3, [r7, #0]
 8000ffa:	685b      	ldr	r3, [r3, #4]
 8000ffc:	4619      	mov	r1, r3
 8000ffe:	6878      	ldr	r0, [r7, #4]
 8001000:	f7ff ffb6 	bl	8000f70 <LL_I2C_SetTiming>

  /* Enable the selected I2Cx Peripheral */
  LL_I2C_Enable(I2Cx);
 8001004:	6878      	ldr	r0, [r7, #4]
 8001006:	f7ff ff44 	bl	8000e92 <LL_I2C_Enable>
  /*---------------------------- I2Cx OAR1 Configuration -----------------------
   * Disable, Configure and Enable I2Cx device own address 1 with parameters :
   * - OwnAddress1:  I2C_OAR1_OA1[9:0] bits
   * - OwnAddrSize:  I2C_OAR1_OA1MODE bit
   */
  LL_I2C_DisableOwnAddress1(I2Cx);
 800100a:	6878      	ldr	r0, [r7, #4]
 800100c:	f7ff ffa0 	bl	8000f50 <LL_I2C_DisableOwnAddress1>
  LL_I2C_SetOwnAddress1(I2Cx, I2C_InitStruct->OwnAddress1, I2C_InitStruct->OwnAddrSize);
 8001010:	683b      	ldr	r3, [r7, #0]
 8001012:	6919      	ldr	r1, [r3, #16]
 8001014:	683b      	ldr	r3, [r7, #0]
 8001016:	699b      	ldr	r3, [r3, #24]
 8001018:	461a      	mov	r2, r3
 800101a:	6878      	ldr	r0, [r7, #4]
 800101c:	f7ff ff70 	bl	8000f00 <LL_I2C_SetOwnAddress1>

  /* OwnAdress1 == 0 is reserved for General Call address */
  if (I2C_InitStruct->OwnAddress1 != 0U)
 8001020:	683b      	ldr	r3, [r7, #0]
 8001022:	691b      	ldr	r3, [r3, #16]
 8001024:	2b00      	cmp	r3, #0
 8001026:	d002      	beq.n	800102e <LL_I2C_Init+0x56>
  {
    LL_I2C_EnableOwnAddress1(I2Cx);
 8001028:	6878      	ldr	r0, [r7, #4]
 800102a:	f7ff ff81 	bl	8000f30 <LL_I2C_EnableOwnAddress1>

  /*---------------------------- I2Cx MODE Configuration -----------------------
  * Configure I2Cx peripheral mode with parameter :
   * - PeripheralMode: I2C_CR1_SMBDEN and I2C_CR1_SMBHEN bits
   */
  LL_I2C_SetMode(I2Cx, I2C_InitStruct->PeripheralMode);
 800102e:	683b      	ldr	r3, [r7, #0]
 8001030:	681b      	ldr	r3, [r3, #0]
 8001032:	4619      	mov	r1, r3
 8001034:	6878      	ldr	r0, [r7, #4]
 8001036:	f7ff ffa9 	bl	8000f8c <LL_I2C_SetMode>
  /*---------------------------- I2Cx CR2 Configuration ------------------------
   * Configure the ACKnowledge or Non ACKnowledge condition
   * after the address receive match code or next received byte with parameter :
   * - TypeAcknowledge: I2C_CR2_NACK bit
   */
  LL_I2C_AcknowledgeNextData(I2Cx, I2C_InitStruct->TypeAcknowledge);
 800103a:	683b      	ldr	r3, [r7, #0]
 800103c:	695b      	ldr	r3, [r3, #20]
 800103e:	4619      	mov	r1, r3
 8001040:	6878      	ldr	r0, [r7, #4]
 8001042:	f7ff ffb6 	bl	8000fb2 <LL_I2C_AcknowledgeNextData>

  return SUCCESS;
 8001046:	2300      	movs	r3, #0
}
 8001048:	4618      	mov	r0, r3
 800104a:	3708      	adds	r7, #8
 800104c:	46bd      	mov	sp, r7
 800104e:	bd80      	pop	{r7, pc}

08001050 <LL_RCC_HSI_IsReady>:
  * @brief  Check if HSI clock is ready
  * @rmtoll CR           HSIRDY        LL_RCC_HSI_IsReady
  * @retval State of bit (1 or 0).
  */
__STATIC_INLINE uint32_t LL_RCC_HSI_IsReady(void)
{
 8001050:	b480      	push	{r7}
 8001052:	af00      	add	r7, sp, #0
  return (READ_BIT(RCC->CR, RCC_CR_HSIRDY) == (RCC_CR_HSIRDY));
 8001054:	4b06      	ldr	r3, [pc, #24]	; (8001070 <LL_RCC_HSI_IsReady+0x20>)
 8001056:	681b      	ldr	r3, [r3, #0]
 8001058:	f003 0302 	and.w	r3, r3, #2
 800105c:	2b02      	cmp	r3, #2
 800105e:	bf0c      	ite	eq
 8001060:	2301      	moveq	r3, #1
 8001062:	2300      	movne	r3, #0
 8001064:	b2db      	uxtb	r3, r3
}
 8001066:	4618      	mov	r0, r3
 8001068:	46bd      	mov	sp, r7
 800106a:	f85d 7b04 	ldr.w	r7, [sp], #4
 800106e:	4770      	bx	lr
 8001070:	40021000 	.word	0x40021000

08001074 <LL_RCC_LSE_IsReady>:
  * @brief  Check if LSE oscillator Ready
  * @rmtoll BDCR         LSERDY        LL_RCC_LSE_IsReady
  * @retval State of bit (1 or 0).
  */
__STATIC_INLINE uint32_t LL_RCC_LSE_IsReady(void)
{
 8001074:	b480      	push	{r7}
 8001076:	af00      	add	r7, sp, #0
  return (READ_BIT(RCC->BDCR, RCC_BDCR_LSERDY) == (RCC_BDCR_LSERDY));
 8001078:	4b06      	ldr	r3, [pc, #24]	; (8001094 <LL_RCC_LSE_IsReady+0x20>)
 800107a:	6a1b      	ldr	r3, [r3, #32]
 800107c:	f003 0302 	and.w	r3, r3, #2
 8001080:	2b02      	cmp	r3, #2
 8001082:	bf0c      	ite	eq
 8001084:	2301      	moveq	r3, #1
 8001086:	2300      	movne	r3, #0
 8001088:	b2db      	uxtb	r3, r3
}
 800108a:	4618      	mov	r0, r3
 800108c:	46bd      	mov	sp, r7
 800108e:	f85d 7b04 	ldr.w	r7, [sp], #4
 8001092:	4770      	bx	lr
 8001094:	40021000 	.word	0x40021000

08001098 <LL_RCC_GetSysClkSource>:
  *         @arg @ref LL_RCC_SYS_CLKSOURCE_STATUS_HSI
  *         @arg @ref LL_RCC_SYS_CLKSOURCE_STATUS_HSE
  *         @arg @ref LL_RCC_SYS_CLKSOURCE_STATUS_PLL
  */
__STATIC_INLINE uint32_t LL_RCC_GetSysClkSource(void)
{
 8001098:	b480      	push	{r7}
 800109a:	af00      	add	r7, sp, #0
  return (uint32_t)(READ_BIT(RCC->CFGR, RCC_CFGR_SWS));
 800109c:	4b04      	ldr	r3, [pc, #16]	; (80010b0 <LL_RCC_GetSysClkSource+0x18>)
 800109e:	685b      	ldr	r3, [r3, #4]
 80010a0:	f003 030c 	and.w	r3, r3, #12
}
 80010a4:	4618      	mov	r0, r3
 80010a6:	46bd      	mov	sp, r7
 80010a8:	f85d 7b04 	ldr.w	r7, [sp], #4
 80010ac:	4770      	bx	lr
 80010ae:	bf00      	nop
 80010b0:	40021000 	.word	0x40021000

080010b4 <LL_RCC_GetAHBPrescaler>:
  *         @arg @ref LL_RCC_SYSCLK_DIV_128
  *         @arg @ref LL_RCC_SYSCLK_DIV_256
  *         @arg @ref LL_RCC_SYSCLK_DIV_512
  */
__STATIC_INLINE uint32_t LL_RCC_GetAHBPrescaler(void)
{
 80010b4:	b480      	push	{r7}
 80010b6:	af00      	add	r7, sp, #0
  return (uint32_t)(READ_BIT(RCC->CFGR, RCC_CFGR_HPRE));
 80010b8:	4b04      	ldr	r3, [pc, #16]	; (80010cc <LL_RCC_GetAHBPrescaler+0x18>)
 80010ba:	685b      	ldr	r3, [r3, #4]
 80010bc:	f003 03f0 	and.w	r3, r3, #240	; 0xf0
}
 80010c0:	4618      	mov	r0, r3
 80010c2:	46bd      	mov	sp, r7
 80010c4:	f85d 7b04 	ldr.w	r7, [sp], #4
 80010c8:	4770      	bx	lr
 80010ca:	bf00      	nop
 80010cc:	40021000 	.word	0x40021000

080010d0 <LL_RCC_GetAPB1Prescaler>:
  *         @arg @ref LL_RCC_APB1_DIV_4
  *         @arg @ref LL_RCC_APB1_DIV_8
  *         @arg @ref LL_RCC_APB1_DIV_16
  */
__STATIC_INLINE uint32_t LL_RCC_GetAPB1Prescaler(void)
{
 80010d0:	b480      	push	{r7}
 80010d2:	af00      	add	r7, sp, #0
  return (uint32_t)(READ_BIT(RCC->CFGR, RCC_CFGR_PPRE1));
 80010d4:	4b04      	ldr	r3, [pc, #16]	; (80010e8 <LL_RCC_GetAPB1Prescaler+0x18>)
 80010d6:	685b      	ldr	r3, [r3, #4]
 80010d8:	f403 63e0 	and.w	r3, r3, #1792	; 0x700
}
 80010dc:	4618      	mov	r0, r3
 80010de:	46bd      	mov	sp, r7
 80010e0:	f85d 7b04 	ldr.w	r7, [sp], #4
 80010e4:	4770      	bx	lr
 80010e6:	bf00      	nop
 80010e8:	40021000 	.word	0x40021000

080010ec <LL_RCC_GetAPB2Prescaler>:
  *         @arg @ref LL_RCC_APB2_DIV_4
  *         @arg @ref LL_RCC_APB2_DIV_8
  *         @arg @ref LL_RCC_APB2_DIV_16
  */
__STATIC_INLINE uint32_t LL_RCC_GetAPB2Prescaler(void)
{
 80010ec:	b480      	push	{r7}
 80010ee:	af00      	add	r7, sp, #0
  return (uint32_t)(READ_BIT(RCC->CFGR, RCC_CFGR_PPRE2));
 80010f0:	4b04      	ldr	r3, [pc, #16]	; (8001104 <LL_RCC_GetAPB2Prescaler+0x18>)
 80010f2:	685b      	ldr	r3, [r3, #4]
 80010f4:	f403 5360 	and.w	r3, r3, #14336	; 0x3800
}
 80010f8:	4618      	mov	r0, r3
 80010fa:	46bd      	mov	sp, r7
 80010fc:	f85d 7b04 	ldr.w	r7, [sp], #4
 8001100:	4770      	bx	lr
 8001102:	bf00      	nop
 8001104:	40021000 	.word	0x40021000

08001108 <LL_RCC_GetUSARTClockSource>:
  *         @arg @ref LL_RCC_USART3_CLKSOURCE_HSI (*)
  *
  *         (*) value not defined in all devices.
  */
__STATIC_INLINE uint32_t LL_RCC_GetUSARTClockSource(uint32_t USARTx)
{
 8001108:	b480      	push	{r7}
 800110a:	b083      	sub	sp, #12
 800110c:	af00      	add	r7, sp, #0
 800110e:	6078      	str	r0, [r7, #4]
  return (uint32_t)(READ_BIT(RCC->CFGR3, (RCC_CFGR3_USART1SW << USARTx)) | (USARTx << 24U));
 8001110:	4b07      	ldr	r3, [pc, #28]	; (8001130 <LL_RCC_GetUSARTClockSource+0x28>)
 8001112:	6b1a      	ldr	r2, [r3, #48]	; 0x30
 8001114:	2103      	movs	r1, #3
 8001116:	687b      	ldr	r3, [r7, #4]
 8001118:	fa01 f303 	lsl.w	r3, r1, r3
 800111c:	401a      	ands	r2, r3
 800111e:	687b      	ldr	r3, [r7, #4]
 8001120:	061b      	lsls	r3, r3, #24
 8001122:	4313      	orrs	r3, r2
}
 8001124:	4618      	mov	r0, r3
 8001126:	370c      	adds	r7, #12
 8001128:	46bd      	mov	sp, r7
 800112a:	f85d 7b04 	ldr.w	r7, [sp], #4
 800112e:	4770      	bx	lr
 8001130:	40021000 	.word	0x40021000

08001134 <LL_RCC_PLL_GetMainSource>:
  *         @arg @ref LL_RCC_PLLSOURCE_HSE
  *
  *         (*) value not defined in all devices
  */
__STATIC_INLINE uint32_t LL_RCC_PLL_GetMainSource(void)
{
 8001134:	b480      	push	{r7}
 8001136:	af00      	add	r7, sp, #0
  return (uint32_t)(READ_BIT(RCC->CFGR, RCC_CFGR_PLLSRC));
 8001138:	4b04      	ldr	r3, [pc, #16]	; (800114c <LL_RCC_PLL_GetMainSource+0x18>)
 800113a:	685b      	ldr	r3, [r3, #4]
 800113c:	f403 3380 	and.w	r3, r3, #65536	; 0x10000
}
 8001140:	4618      	mov	r0, r3
 8001142:	46bd      	mov	sp, r7
 8001144:	f85d 7b04 	ldr.w	r7, [sp], #4
 8001148:	4770      	bx	lr
 800114a:	bf00      	nop
 800114c:	40021000 	.word	0x40021000

08001150 <LL_RCC_PLL_GetMultiplicator>:
  *         @arg @ref LL_RCC_PLL_MUL_14
  *         @arg @ref LL_RCC_PLL_MUL_15
  *         @arg @ref LL_RCC_PLL_MUL_16
  */
__STATIC_INLINE uint32_t LL_RCC_PLL_GetMultiplicator(void)
{
 8001150:	b480      	push	{r7}
 8001152:	af00      	add	r7, sp, #0
  return (uint32_t)(READ_BIT(RCC->CFGR, RCC_CFGR_PLLMUL));
 8001154:	4b04      	ldr	r3, [pc, #16]	; (8001168 <LL_RCC_PLL_GetMultiplicator+0x18>)
 8001156:	685b      	ldr	r3, [r3, #4]
 8001158:	f403 1370 	and.w	r3, r3, #3932160	; 0x3c0000
}
 800115c:	4618      	mov	r0, r3
 800115e:	46bd      	mov	sp, r7
 8001160:	f85d 7b04 	ldr.w	r7, [sp], #4
 8001164:	4770      	bx	lr
 8001166:	bf00      	nop
 8001168:	40021000 	.word	0x40021000

0800116c <LL_RCC_PLL_GetPrediv>:
  *         @arg @ref LL_RCC_PREDIV_DIV_14
  *         @arg @ref LL_RCC_PREDIV_DIV_15
  *         @arg @ref LL_RCC_PREDIV_DIV_16
  */
__STATIC_INLINE uint32_t LL_RCC_PLL_GetPrediv(void)
{
 800116c:	b480      	push	{r7}
 800116e:	af00      	add	r7, sp, #0
  return (uint32_t)(READ_BIT(RCC->CFGR2, RCC_CFGR2_PREDIV));
 8001170:	4b04      	ldr	r3, [pc, #16]	; (8001184 <LL_RCC_PLL_GetPrediv+0x18>)
 8001172:	6adb      	ldr	r3, [r3, #44]	; 0x2c
 8001174:	f003 030f 	and.w	r3, r3, #15
}
 8001178:	4618      	mov	r0, r3
 800117a:	46bd      	mov	sp, r7
 800117c:	f85d 7b04 	ldr.w	r7, [sp], #4
 8001180:	4770      	bx	lr
 8001182:	bf00      	nop
 8001184:	40021000 	.word	0x40021000

08001188 <LL_RCC_GetSystemClocksFreq>:
  *         configuration based on this function will be incorrect.
  * @param  RCC_Clocks pointer to a @ref LL_RCC_ClocksTypeDef structure which will hold the clocks frequencies
  * @retval None
  */
void LL_RCC_GetSystemClocksFreq(LL_RCC_ClocksTypeDef *RCC_Clocks)
{
 8001188:	b580      	push	{r7, lr}
 800118a:	b082      	sub	sp, #8
 800118c:	af00      	add	r7, sp, #0
 800118e:	6078      	str	r0, [r7, #4]
  /* Get SYSCLK frequency */
  RCC_Clocks->SYSCLK_Frequency = RCC_GetSystemClockFreq();
 8001190:	f000 f862 	bl	8001258 <RCC_GetSystemClockFreq>
 8001194:	4602      	mov	r2, r0
 8001196:	687b      	ldr	r3, [r7, #4]
 8001198:	601a      	str	r2, [r3, #0]

  /* HCLK clock frequency */
  RCC_Clocks->HCLK_Frequency   = RCC_GetHCLKClockFreq(RCC_Clocks->SYSCLK_Frequency);
 800119a:	687b      	ldr	r3, [r7, #4]
 800119c:	681b      	ldr	r3, [r3, #0]
 800119e:	4618      	mov	r0, r3
 80011a0:	f000 f880 	bl	80012a4 <RCC_GetHCLKClockFreq>
 80011a4:	4602      	mov	r2, r0
 80011a6:	687b      	ldr	r3, [r7, #4]
 80011a8:	605a      	str	r2, [r3, #4]

  /* PCLK1 clock frequency */
  RCC_Clocks->PCLK1_Frequency  = RCC_GetPCLK1ClockFreq(RCC_Clocks->HCLK_Frequency);
 80011aa:	687b      	ldr	r3, [r7, #4]
 80011ac:	685b      	ldr	r3, [r3, #4]
 80011ae:	4618      	mov	r0, r3
 80011b0:	f000 f88e 	bl	80012d0 <RCC_GetPCLK1ClockFreq>
 80011b4:	4602      	mov	r2, r0
 80011b6:	687b      	ldr	r3, [r7, #4]
 80011b8:	609a      	str	r2, [r3, #8]

  /* PCLK2 clock frequency */
  RCC_Clocks->PCLK2_Frequency  = RCC_GetPCLK2ClockFreq(RCC_Clocks->HCLK_Frequency);
 80011ba:	687b      	ldr	r3, [r7, #4]
 80011bc:	685b      	ldr	r3, [r3, #4]
 80011be:	4618      	mov	r0, r3
 80011c0:	f000 f89a 	bl	80012f8 <RCC_GetPCLK2ClockFreq>
 80011c4:	4602      	mov	r2, r0
 80011c6:	687b      	ldr	r3, [r7, #4]
 80011c8:	60da      	str	r2, [r3, #12]
}
 80011ca:	bf00      	nop
 80011cc:	3708      	adds	r7, #8
 80011ce:	46bd      	mov	sp, r7
 80011d0:	bd80      	pop	{r7, pc}
	...

080011d4 <LL_RCC_GetUSARTClockFreq>:
  *         (*) value not defined in all devices.
  * @retval USART clock frequency (in Hz)
  *         @arg @ref LL_RCC_PERIPH_FREQUENCY_NO indicates that oscillator (HSI or LSE) is not ready
  */
uint32_t LL_RCC_GetUSARTClockFreq(uint32_t USARTxSource)
{
 80011d4:	b580      	push	{r7, lr}
 80011d6:	b084      	sub	sp, #16
 80011d8:	af00      	add	r7, sp, #0
 80011da:	6078      	str	r0, [r7, #4]
  uint32_t usart_frequency = LL_RCC_PERIPH_FREQUENCY_NO;
 80011dc:	2300      	movs	r3, #0
 80011de:	60fb      	str	r3, [r7, #12]

  /* Check parameter */
  assert_param(IS_LL_RCC_USART_CLKSOURCE(USARTxSource));
#if defined(RCC_CFGR3_USART1SW)
  if (USARTxSource == LL_RCC_USART1_CLKSOURCE)
 80011e0:	687b      	ldr	r3, [r7, #4]
 80011e2:	2b00      	cmp	r3, #0
 80011e4:	d130      	bne.n	8001248 <LL_RCC_GetUSARTClockFreq+0x74>
  {
    /* USART1CLK clock frequency */
    switch (LL_RCC_GetUSARTClockSource(USARTxSource))
 80011e6:	6878      	ldr	r0, [r7, #4]
 80011e8:	f7ff ff8e 	bl	8001108 <LL_RCC_GetUSARTClockSource>
 80011ec:	4603      	mov	r3, r0
 80011ee:	2b03      	cmp	r3, #3
 80011f0:	d00a      	beq.n	8001208 <LL_RCC_GetUSARTClockFreq+0x34>
 80011f2:	2b03      	cmp	r3, #3
 80011f4:	d819      	bhi.n	800122a <LL_RCC_GetUSARTClockFreq+0x56>
 80011f6:	2b01      	cmp	r3, #1
 80011f8:	d002      	beq.n	8001200 <LL_RCC_GetUSARTClockFreq+0x2c>
 80011fa:	2b02      	cmp	r3, #2
 80011fc:	d00c      	beq.n	8001218 <LL_RCC_GetUSARTClockFreq+0x44>
 80011fe:	e014      	b.n	800122a <LL_RCC_GetUSARTClockFreq+0x56>
    {
      case LL_RCC_USART1_CLKSOURCE_SYSCLK: /* USART1 Clock is System Clock */
        usart_frequency = RCC_GetSystemClockFreq();
 8001200:	f000 f82a 	bl	8001258 <RCC_GetSystemClockFreq>
 8001204:	60f8      	str	r0, [r7, #12]
        break;
 8001206:	e01f      	b.n	8001248 <LL_RCC_GetUSARTClockFreq+0x74>

      case LL_RCC_USART1_CLKSOURCE_HSI:    /* USART1 Clock is HSI Osc. */
        if (LL_RCC_HSI_IsReady())
 8001208:	f7ff ff22 	bl	8001050 <LL_RCC_HSI_IsReady>
 800120c:	4603      	mov	r3, r0
 800120e:	2b00      	cmp	r3, #0
 8001210:	d017      	beq.n	8001242 <LL_RCC_GetUSARTClockFreq+0x6e>
        {
          usart_frequency = HSI_VALUE;
 8001212:	4b10      	ldr	r3, [pc, #64]	; (8001254 <LL_RCC_GetUSARTClockFreq+0x80>)
 8001214:	60fb      	str	r3, [r7, #12]
        }
        break;
 8001216:	e014      	b.n	8001242 <LL_RCC_GetUSARTClockFreq+0x6e>

      case LL_RCC_USART1_CLKSOURCE_LSE:    /* USART1 Clock is LSE Osc. */
        if (LL_RCC_LSE_IsReady())
 8001218:	f7ff ff2c 	bl	8001074 <LL_RCC_LSE_IsReady>
 800121c:	4603      	mov	r3, r0
 800121e:	2b00      	cmp	r3, #0
 8001220:	d011      	beq.n	8001246 <LL_RCC_GetUSARTClockFreq+0x72>
        {
          usart_frequency = LSE_VALUE;
 8001222:	f44f 4300 	mov.w	r3, #32768	; 0x8000
 8001226:	60fb      	str	r3, [r7, #12]
        }
        break;
 8001228:	e00d      	b.n	8001246 <LL_RCC_GetUSARTClockFreq+0x72>

#if defined(RCC_CFGR3_USART1SW_PCLK1)
      case LL_RCC_USART1_CLKSOURCE_PCLK1:  /* USART1 Clock is PCLK1 */
      default:
        usart_frequency = RCC_GetPCLK1ClockFreq(RCC_GetHCLKClockFreq(RCC_GetSystemClockFreq()));
 800122a:	f000 f815 	bl	8001258 <RCC_GetSystemClockFreq>
 800122e:	4603      	mov	r3, r0
 8001230:	4618      	mov	r0, r3
 8001232:	f000 f837 	bl	80012a4 <RCC_GetHCLKClockFreq>
 8001236:	4603      	mov	r3, r0
 8001238:	4618      	mov	r0, r3
 800123a:	f000 f849 	bl	80012d0 <RCC_GetPCLK1ClockFreq>
 800123e:	60f8      	str	r0, [r7, #12]
#else
      case LL_RCC_USART1_CLKSOURCE_PCLK2:  /* USART1 Clock is PCLK2 */
      default:
        usart_frequency = RCC_GetPCLK2ClockFreq(RCC_GetHCLKClockFreq(RCC_GetSystemClockFreq()));
#endif /* RCC_CFGR3_USART1SW_PCLK1 */
        break;
 8001240:	e002      	b.n	8001248 <LL_RCC_GetUSARTClockFreq+0x74>
        break;
 8001242:	bf00      	nop
 8001244:	e000      	b.n	8001248 <LL_RCC_GetUSARTClockFreq+0x74>
        break;
 8001246:	bf00      	nop
        break;
    }
  }

#endif /* RCC_CFGR3_USART3SW */
  return usart_frequency;
 8001248:	68fb      	ldr	r3, [r7, #12]
}
 800124a:	4618      	mov	r0, r3
 800124c:	3710      	adds	r7, #16
 800124e:	46bd      	mov	sp, r7
 8001250:	bd80      	pop	{r7, pc}
 8001252:	bf00      	nop
 8001254:	007a1200 	.word	0x007a1200

08001258 <RCC_GetSystemClockFreq>:
/**
  * @brief  Return SYSTEM clock frequency
  * @retval SYSTEM clock frequency (in Hz)
  */
uint32_t RCC_GetSystemClockFreq(void)
{
 8001258:	b580      	push	{r7, lr}
 800125a:	b082      	sub	sp, #8
 800125c:	af00      	add	r7, sp, #0
  uint32_t frequency = 0U;
 800125e:	2300      	movs	r3, #0
 8001260:	607b      	str	r3, [r7, #4]

  /* Get SYSCLK source -------------------------------------------------------*/
  switch (LL_RCC_GetSysClkSource())
 8001262:	f7ff ff19 	bl	8001098 <LL_RCC_GetSysClkSource>
 8001266:	4603      	mov	r3, r0
 8001268:	2b08      	cmp	r3, #8
 800126a:	d00c      	beq.n	8001286 <RCC_GetSystemClockFreq+0x2e>
 800126c:	2b08      	cmp	r3, #8
 800126e:	d80e      	bhi.n	800128e <RCC_GetSystemClockFreq+0x36>
 8001270:	2b00      	cmp	r3, #0
 8001272:	d002      	beq.n	800127a <RCC_GetSystemClockFreq+0x22>
 8001274:	2b04      	cmp	r3, #4
 8001276:	d003      	beq.n	8001280 <RCC_GetSystemClockFreq+0x28>
 8001278:	e009      	b.n	800128e <RCC_GetSystemClockFreq+0x36>
  {
    case LL_RCC_SYS_CLKSOURCE_STATUS_HSI:  /* HSI used as system clock  source */
      frequency = HSI_VALUE;
 800127a:	4b09      	ldr	r3, [pc, #36]	; (80012a0 <RCC_GetSystemClockFreq+0x48>)
 800127c:	607b      	str	r3, [r7, #4]
      break;
 800127e:	e009      	b.n	8001294 <RCC_GetSystemClockFreq+0x3c>

    case LL_RCC_SYS_CLKSOURCE_STATUS_HSE:  /* HSE used as system clock  source */
      frequency = HSE_VALUE;
 8001280:	4b07      	ldr	r3, [pc, #28]	; (80012a0 <RCC_GetSystemClockFreq+0x48>)
 8001282:	607b      	str	r3, [r7, #4]
      break;
 8001284:	e006      	b.n	8001294 <RCC_GetSystemClockFreq+0x3c>

    case LL_RCC_SYS_CLKSOURCE_STATUS_PLL:  /* PLL used as system clock  source */
      frequency = RCC_PLL_GetFreqDomain_SYS();
 8001286:	f000 f84b 	bl	8001320 <RCC_PLL_GetFreqDomain_SYS>
 800128a:	6078      	str	r0, [r7, #4]
      break;
 800128c:	e002      	b.n	8001294 <RCC_GetSystemClockFreq+0x3c>

    default:
      frequency = HSI_VALUE;
 800128e:	4b04      	ldr	r3, [pc, #16]	; (80012a0 <RCC_GetSystemClockFreq+0x48>)
 8001290:	607b      	str	r3, [r7, #4]
      break;
 8001292:	bf00      	nop
  }

  return frequency;
 8001294:	687b      	ldr	r3, [r7, #4]
}
 8001296:	4618      	mov	r0, r3
 8001298:	3708      	adds	r7, #8
 800129a:	46bd      	mov	sp, r7
 800129c:	bd80      	pop	{r7, pc}
 800129e:	bf00      	nop
 80012a0:	007a1200 	.word	0x007a1200

080012a4 <RCC_GetHCLKClockFreq>:
  * @brief  Return HCLK clock frequency
  * @param  SYSCLK_Frequency SYSCLK clock frequency
  * @retval HCLK clock frequency (in Hz)
  */
uint32_t RCC_GetHCLKClockFreq(uint32_t SYSCLK_Frequency)
{
 80012a4:	b580      	push	{r7, lr}
 80012a6:	b082      	sub	sp, #8
 80012a8:	af00      	add	r7, sp, #0
 80012aa:	6078      	str	r0, [r7, #4]
  /* HCLK clock frequency */
  return __LL_RCC_CALC_HCLK_FREQ(SYSCLK_Frequency, LL_RCC_GetAHBPrescaler());
 80012ac:	f7ff ff02 	bl	80010b4 <LL_RCC_GetAHBPrescaler>
 80012b0:	4603      	mov	r3, r0
 80012b2:	091b      	lsrs	r3, r3, #4
 80012b4:	f003 030f 	and.w	r3, r3, #15
 80012b8:	4a04      	ldr	r2, [pc, #16]	; (80012cc <RCC_GetHCLKClockFreq+0x28>)
 80012ba:	5cd3      	ldrb	r3, [r2, r3]
 80012bc:	461a      	mov	r2, r3
 80012be:	687b      	ldr	r3, [r7, #4]
 80012c0:	40d3      	lsrs	r3, r2
}
 80012c2:	4618      	mov	r0, r3
 80012c4:	3708      	adds	r7, #8
 80012c6:	46bd      	mov	sp, r7
 80012c8:	bd80      	pop	{r7, pc}
 80012ca:	bf00      	nop
 80012cc:	080066d8 	.word	0x080066d8

080012d0 <RCC_GetPCLK1ClockFreq>:
  * @brief  Return PCLK1 clock frequency
  * @param  HCLK_Frequency HCLK clock frequency
  * @retval PCLK1 clock frequency (in Hz)
  */
uint32_t RCC_GetPCLK1ClockFreq(uint32_t HCLK_Frequency)
{
 80012d0:	b580      	push	{r7, lr}
 80012d2:	b082      	sub	sp, #8
 80012d4:	af00      	add	r7, sp, #0
 80012d6:	6078      	str	r0, [r7, #4]
  /* PCLK1 clock frequency */
  return __LL_RCC_CALC_PCLK1_FREQ(HCLK_Frequency, LL_RCC_GetAPB1Prescaler());
 80012d8:	f7ff fefa 	bl	80010d0 <LL_RCC_GetAPB1Prescaler>
 80012dc:	4603      	mov	r3, r0
 80012de:	0a1b      	lsrs	r3, r3, #8
 80012e0:	4a04      	ldr	r2, [pc, #16]	; (80012f4 <RCC_GetPCLK1ClockFreq+0x24>)
 80012e2:	5cd3      	ldrb	r3, [r2, r3]
 80012e4:	461a      	mov	r2, r3
 80012e6:	687b      	ldr	r3, [r7, #4]
 80012e8:	40d3      	lsrs	r3, r2
}
 80012ea:	4618      	mov	r0, r3
 80012ec:	3708      	adds	r7, #8
 80012ee:	46bd      	mov	sp, r7
 80012f0:	bd80      	pop	{r7, pc}
 80012f2:	bf00      	nop
 80012f4:	080066e8 	.word	0x080066e8

080012f8 <RCC_GetPCLK2ClockFreq>:
  * @brief  Return PCLK2 clock frequency
  * @param  HCLK_Frequency HCLK clock frequency
  * @retval PCLK2 clock frequency (in Hz)
  */
uint32_t RCC_GetPCLK2ClockFreq(uint32_t HCLK_Frequency)
{
 80012f8:	b580      	push	{r7, lr}
 80012fa:	b082      	sub	sp, #8
 80012fc:	af00      	add	r7, sp, #0
 80012fe:	6078      	str	r0, [r7, #4]
  /* PCLK2 clock frequency */
  return __LL_RCC_CALC_PCLK2_FREQ(HCLK_Frequency, LL_RCC_GetAPB2Prescaler());
 8001300:	f7ff fef4 	bl	80010ec <LL_RCC_GetAPB2Prescaler>
 8001304:	4603      	mov	r3, r0
 8001306:	0adb      	lsrs	r3, r3, #11
 8001308:	4a04      	ldr	r2, [pc, #16]	; (800131c <RCC_GetPCLK2ClockFreq+0x24>)
 800130a:	5cd3      	ldrb	r3, [r2, r3]
 800130c:	461a      	mov	r2, r3
 800130e:	687b      	ldr	r3, [r7, #4]
 8001310:	40d3      	lsrs	r3, r2
}
 8001312:	4618      	mov	r0, r3
 8001314:	3708      	adds	r7, #8
 8001316:	46bd      	mov	sp, r7
 8001318:	bd80      	pop	{r7, pc}
 800131a:	bf00      	nop
 800131c:	080066e8 	.word	0x080066e8

08001320 <RCC_PLL_GetFreqDomain_SYS>:
/**
  * @brief  Return PLL clock frequency used for system domain
  * @retval PLL clock frequency (in Hz)
  */
uint32_t RCC_PLL_GetFreqDomain_SYS(void)
{
 8001320:	b590      	push	{r4, r7, lr}
 8001322:	b085      	sub	sp, #20
 8001324:	af00      	add	r7, sp, #0
  uint32_t pllinputfreq = 0U, pllsource = 0U;
 8001326:	2300      	movs	r3, #0
 8001328:	60fb      	str	r3, [r7, #12]
 800132a:	2300      	movs	r3, #0
 800132c:	60bb      	str	r3, [r7, #8]

  /* PLL_VCO = (HSE_VALUE or HSI_VALUE / PLL divider) * PLL Multiplicator */

  /* Get PLL source */
  pllsource = LL_RCC_PLL_GetMainSource();
 800132e:	f7ff ff01 	bl	8001134 <LL_RCC_PLL_GetMainSource>
 8001332:	60b8      	str	r0, [r7, #8]

  switch (pllsource)
 8001334:	68bb      	ldr	r3, [r7, #8]
 8001336:	2b00      	cmp	r3, #0
 8001338:	d004      	beq.n	8001344 <RCC_PLL_GetFreqDomain_SYS+0x24>
 800133a:	68bb      	ldr	r3, [r7, #8]
 800133c:	f5b3 3f80 	cmp.w	r3, #65536	; 0x10000
 8001340:	d003      	beq.n	800134a <RCC_PLL_GetFreqDomain_SYS+0x2a>
 8001342:	e005      	b.n	8001350 <RCC_PLL_GetFreqDomain_SYS+0x30>
#if defined(RCC_PLLSRC_PREDIV1_SUPPORT)
    case LL_RCC_PLLSOURCE_HSI:       /* HSI used as PLL clock source */
      pllinputfreq = HSI_VALUE;
#else
    case LL_RCC_PLLSOURCE_HSI_DIV_2: /* HSI used as PLL clock source */
      pllinputfreq = HSI_VALUE / 2U;
 8001344:	4b13      	ldr	r3, [pc, #76]	; (8001394 <RCC_PLL_GetFreqDomain_SYS+0x74>)
 8001346:	60fb      	str	r3, [r7, #12]
#endif /* RCC_PLLSRC_PREDIV1_SUPPORT */
      break;
 8001348:	e005      	b.n	8001356 <RCC_PLL_GetFreqDomain_SYS+0x36>

    case LL_RCC_PLLSOURCE_HSE:       /* HSE used as PLL clock source */
      pllinputfreq = HSE_VALUE;
 800134a:	4b13      	ldr	r3, [pc, #76]	; (8001398 <RCC_PLL_GetFreqDomain_SYS+0x78>)
 800134c:	60fb      	str	r3, [r7, #12]
      break;
 800134e:	e002      	b.n	8001356 <RCC_PLL_GetFreqDomain_SYS+0x36>

    default:
#if defined(RCC_PLLSRC_PREDIV1_SUPPORT)
      pllinputfreq = HSI_VALUE;
#else
      pllinputfreq = HSI_VALUE / 2U;
 8001350:	4b10      	ldr	r3, [pc, #64]	; (8001394 <RCC_PLL_GetFreqDomain_SYS+0x74>)
 8001352:	60fb      	str	r3, [r7, #12]
#endif /* RCC_PLLSRC_PREDIV1_SUPPORT */
      break;
 8001354:	bf00      	nop
  }
#if defined(RCC_PLLSRC_PREDIV1_SUPPORT)
  return __LL_RCC_CALC_PLLCLK_FREQ(pllinputfreq, LL_RCC_PLL_GetMultiplicator(), LL_RCC_PLL_GetPrediv());
#else
  return __LL_RCC_CALC_PLLCLK_FREQ((pllinputfreq / (LL_RCC_PLL_GetPrediv() + 1U)), LL_RCC_PLL_GetMultiplicator());
 8001356:	f7ff ff09 	bl	800116c <LL_RCC_PLL_GetPrediv>
 800135a:	4603      	mov	r3, r0
 800135c:	3301      	adds	r3, #1
 800135e:	68fa      	ldr	r2, [r7, #12]
 8001360:	fbb2 f4f3 	udiv	r4, r2, r3
 8001364:	f7ff fef4 	bl	8001150 <LL_RCC_PLL_GetMultiplicator>
 8001368:	4603      	mov	r3, r0
 800136a:	f403 1370 	and.w	r3, r3, #3932160	; 0x3c0000
 800136e:	f44f 1270 	mov.w	r2, #3932160	; 0x3c0000
 8001372:	607a      	str	r2, [r7, #4]
   __ASM volatile ("rbit %0, %1" : "=r" (result) : "r" (value) );
 8001374:	687a      	ldr	r2, [r7, #4]
 8001376:	fa92 f2a2 	rbit	r2, r2
 800137a:	603a      	str	r2, [r7, #0]
  return(result);
 800137c:	683a      	ldr	r2, [r7, #0]
 800137e:	fab2 f282 	clz	r2, r2
 8001382:	40d3      	lsrs	r3, r2
 8001384:	3302      	adds	r3, #2
 8001386:	fb04 f303 	mul.w	r3, r4, r3
#endif /* RCC_PLLSRC_PREDIV1_SUPPORT */
}
 800138a:	4618      	mov	r0, r3
 800138c:	3714      	adds	r7, #20
 800138e:	46bd      	mov	sp, r7
 8001390:	bd90      	pop	{r4, r7, pc}
 8001392:	bf00      	nop
 8001394:	003d0900 	.word	0x003d0900
 8001398:	007a1200 	.word	0x007a1200

0800139c <LL_USART_IsEnabled>:
  * @rmtoll CR1          UE            LL_USART_IsEnabled
  * @param  USARTx USART Instance
  * @retval State of bit (1 or 0).
  */
__STATIC_INLINE uint32_t LL_USART_IsEnabled(USART_TypeDef *USARTx)
{
 800139c:	b480      	push	{r7}
 800139e:	b083      	sub	sp, #12
 80013a0:	af00      	add	r7, sp, #0
 80013a2:	6078      	str	r0, [r7, #4]
  return (READ_BIT(USARTx->CR1, USART_CR1_UE) == (USART_CR1_UE));
 80013a4:	687b      	ldr	r3, [r7, #4]
 80013a6:	681b      	ldr	r3, [r3, #0]
 80013a8:	f003 0301 	and.w	r3, r3, #1
 80013ac:	2b01      	cmp	r3, #1
 80013ae:	bf0c      	ite	eq
 80013b0:	2301      	moveq	r3, #1
 80013b2:	2300      	movne	r3, #0
 80013b4:	b2db      	uxtb	r3, r3
}
 80013b6:	4618      	mov	r0, r3
 80013b8:	370c      	adds	r7, #12
 80013ba:	46bd      	mov	sp, r7
 80013bc:	f85d 7b04 	ldr.w	r7, [sp], #4
 80013c0:	4770      	bx	lr

080013c2 <LL_USART_SetStopBitsLength>:
  *         @arg @ref LL_USART_STOPBITS_1_5
  *         @arg @ref LL_USART_STOPBITS_2
  * @retval None
  */
__STATIC_INLINE void LL_USART_SetStopBitsLength(USART_TypeDef *USARTx, uint32_t StopBits)
{
 80013c2:	b480      	push	{r7}
 80013c4:	b083      	sub	sp, #12
 80013c6:	af00      	add	r7, sp, #0
 80013c8:	6078      	str	r0, [r7, #4]
 80013ca:	6039      	str	r1, [r7, #0]
  MODIFY_REG(USARTx->CR2, USART_CR2_STOP, StopBits);
 80013cc:	687b      	ldr	r3, [r7, #4]
 80013ce:	685b      	ldr	r3, [r3, #4]
 80013d0:	f423 5240 	bic.w	r2, r3, #12288	; 0x3000
 80013d4:	683b      	ldr	r3, [r7, #0]
 80013d6:	431a      	orrs	r2, r3
 80013d8:	687b      	ldr	r3, [r7, #4]
 80013da:	605a      	str	r2, [r3, #4]
}
 80013dc:	bf00      	nop
 80013de:	370c      	adds	r7, #12
 80013e0:	46bd      	mov	sp, r7
 80013e2:	f85d 7b04 	ldr.w	r7, [sp], #4
 80013e6:	4770      	bx	lr

080013e8 <LL_USART_SetHWFlowCtrl>:
  *         @arg @ref LL_USART_HWCONTROL_CTS
  *         @arg @ref LL_USART_HWCONTROL_RTS_CTS
  * @retval None
  */
__STATIC_INLINE void LL_USART_SetHWFlowCtrl(USART_TypeDef *USARTx, uint32_t HardwareFlowControl)
{
 80013e8:	b480      	push	{r7}
 80013ea:	b083      	sub	sp, #12
 80013ec:	af00      	add	r7, sp, #0
 80013ee:	6078      	str	r0, [r7, #4]
 80013f0:	6039      	str	r1, [r7, #0]
  MODIFY_REG(USARTx->CR3, USART_CR3_RTSE | USART_CR3_CTSE, HardwareFlowControl);
 80013f2:	687b      	ldr	r3, [r7, #4]
 80013f4:	689b      	ldr	r3, [r3, #8]
 80013f6:	f423 7240 	bic.w	r2, r3, #768	; 0x300
 80013fa:	683b      	ldr	r3, [r7, #0]
 80013fc:	431a      	orrs	r2, r3
 80013fe:	687b      	ldr	r3, [r7, #4]
 8001400:	609a      	str	r2, [r3, #8]
}
 8001402:	bf00      	nop
 8001404:	370c      	adds	r7, #12
 8001406:	46bd      	mov	sp, r7
 8001408:	f85d 7b04 	ldr.w	r7, [sp], #4
 800140c:	4770      	bx	lr

0800140e <LL_USART_SetBaudRate>:
  * @param  BaudRate Baud Rate
  * @retval None
  */
__STATIC_INLINE void LL_USART_SetBaudRate(USART_TypeDef *USARTx, uint32_t PeriphClk, uint32_t OverSampling,
                                          uint32_t BaudRate)
{
 800140e:	b4b0      	push	{r4, r5, r7}
 8001410:	b085      	sub	sp, #20
 8001412:	af00      	add	r7, sp, #0
 8001414:	60f8      	str	r0, [r7, #12]
 8001416:	60b9      	str	r1, [r7, #8]
 8001418:	607a      	str	r2, [r7, #4]
 800141a:	603b      	str	r3, [r7, #0]
  register uint32_t usartdiv = 0x0U;
  register uint32_t brrtemp = 0x0U;

  if (OverSampling == LL_USART_OVERSAMPLING_8)
 800141c:	687b      	ldr	r3, [r7, #4]
 800141e:	f5b3 4f00 	cmp.w	r3, #32768	; 0x8000
 8001422:	d114      	bne.n	800144e <LL_USART_SetBaudRate+0x40>
  {
    usartdiv = (uint16_t)(__LL_USART_DIV_SAMPLING8(PeriphClk, BaudRate));
 8001424:	68bb      	ldr	r3, [r7, #8]
 8001426:	005a      	lsls	r2, r3, #1
 8001428:	683b      	ldr	r3, [r7, #0]
 800142a:	085b      	lsrs	r3, r3, #1
 800142c:	441a      	add	r2, r3
 800142e:	683b      	ldr	r3, [r7, #0]
 8001430:	fbb2 f3f3 	udiv	r3, r2, r3
 8001434:	b29b      	uxth	r3, r3
 8001436:	461d      	mov	r5, r3
    brrtemp = usartdiv & 0xFFF0U;
 8001438:	f64f 74f0 	movw	r4, #65520	; 0xfff0
 800143c:	402c      	ands	r4, r5
    brrtemp |= (uint16_t)((usartdiv & (uint16_t)0x000FU) >> 1U);
 800143e:	086b      	lsrs	r3, r5, #1
 8001440:	b29b      	uxth	r3, r3
 8001442:	f003 0307 	and.w	r3, r3, #7
 8001446:	431c      	orrs	r4, r3
    USARTx->BRR = brrtemp;
 8001448:	68fb      	ldr	r3, [r7, #12]
 800144a:	60dc      	str	r4, [r3, #12]
  }
  else
  {
    USARTx->BRR = (uint16_t)(__LL_USART_DIV_SAMPLING16(PeriphClk, BaudRate));
  }
}
 800144c:	e00a      	b.n	8001464 <LL_USART_SetBaudRate+0x56>
    USARTx->BRR = (uint16_t)(__LL_USART_DIV_SAMPLING16(PeriphClk, BaudRate));
 800144e:	683b      	ldr	r3, [r7, #0]
 8001450:	085a      	lsrs	r2, r3, #1
 8001452:	68bb      	ldr	r3, [r7, #8]
 8001454:	441a      	add	r2, r3
 8001456:	683b      	ldr	r3, [r7, #0]
 8001458:	fbb2 f3f3 	udiv	r3, r2, r3
 800145c:	b29b      	uxth	r3, r3
 800145e:	461a      	mov	r2, r3
 8001460:	68fb      	ldr	r3, [r7, #12]
 8001462:	60da      	str	r2, [r3, #12]
}
 8001464:	bf00      	nop
 8001466:	3714      	adds	r7, #20
 8001468:	46bd      	mov	sp, r7
 800146a:	bcb0      	pop	{r4, r5, r7}
 800146c:	4770      	bx	lr
	...

08001470 <LL_USART_Init>:
  * @retval An ErrorStatus enumeration value:
  *          - SUCCESS: USART registers are initialized according to USART_InitStruct content
  *          - ERROR: Problem occurred during USART Registers initialization
  */
ErrorStatus LL_USART_Init(USART_TypeDef *USARTx, LL_USART_InitTypeDef *USART_InitStruct)
{
 8001470:	b580      	push	{r7, lr}
 8001472:	b088      	sub	sp, #32
 8001474:	af00      	add	r7, sp, #0
 8001476:	6078      	str	r0, [r7, #4]
 8001478:	6039      	str	r1, [r7, #0]
  ErrorStatus status = ERROR;
 800147a:	2301      	movs	r3, #1
 800147c:	77fb      	strb	r3, [r7, #31]
  uint32_t periphclk = LL_RCC_PERIPH_FREQUENCY_NO;
 800147e:	2300      	movs	r3, #0
 8001480:	61bb      	str	r3, [r7, #24]
  assert_param(IS_LL_USART_HWCONTROL(USART_InitStruct->HardwareFlowControl));
  assert_param(IS_LL_USART_OVERSAMPLING(USART_InitStruct->OverSampling));

  /* USART needs to be in disabled state, in order to be able to configure some bits in
     CRx registers */
  if (LL_USART_IsEnabled(USARTx) == 0U)
 8001482:	6878      	ldr	r0, [r7, #4]
 8001484:	f7ff ff8a 	bl	800139c <LL_USART_IsEnabled>
 8001488:	4603      	mov	r3, r0
 800148a:	2b00      	cmp	r3, #0
 800148c:	d14e      	bne.n	800152c <LL_USART_Init+0xbc>
     * - DataWidth:          USART_CR1_M bits according to USART_InitStruct->DataWidth value
     * - Parity:             USART_CR1_PCE, USART_CR1_PS bits according to USART_InitStruct->Parity value
     * - TransferDirection:  USART_CR1_TE, USART_CR1_RE bits according to USART_InitStruct->TransferDirection value
     * - Oversampling:       USART_CR1_OVER8 bit according to USART_InitStruct->OverSampling value.
     */
    MODIFY_REG(USARTx->CR1,
 800148e:	687b      	ldr	r3, [r7, #4]
 8001490:	681a      	ldr	r2, [r3, #0]
 8001492:	4b29      	ldr	r3, [pc, #164]	; (8001538 <LL_USART_Init+0xc8>)
 8001494:	4013      	ands	r3, r2
 8001496:	683a      	ldr	r2, [r7, #0]
 8001498:	6851      	ldr	r1, [r2, #4]
 800149a:	683a      	ldr	r2, [r7, #0]
 800149c:	68d2      	ldr	r2, [r2, #12]
 800149e:	4311      	orrs	r1, r2
 80014a0:	683a      	ldr	r2, [r7, #0]
 80014a2:	6912      	ldr	r2, [r2, #16]
 80014a4:	4311      	orrs	r1, r2
 80014a6:	683a      	ldr	r2, [r7, #0]
 80014a8:	6992      	ldr	r2, [r2, #24]
 80014aa:	430a      	orrs	r2, r1
 80014ac:	431a      	orrs	r2, r3
 80014ae:	687b      	ldr	r3, [r7, #4]
 80014b0:	601a      	str	r2, [r3, #0]
    /*---------------------------- USART CR2 Configuration ---------------------
     * Configure USARTx CR2 (Stop bits) with parameters:
     * - Stop Bits:          USART_CR2_STOP bits according to USART_InitStruct->StopBits value.
     * - CLKEN, CPOL, CPHA and LBCL bits are to be configured using LL_USART_ClockInit().
     */
    LL_USART_SetStopBitsLength(USARTx, USART_InitStruct->StopBits);
 80014b2:	683b      	ldr	r3, [r7, #0]
 80014b4:	689b      	ldr	r3, [r3, #8]
 80014b6:	4619      	mov	r1, r3
 80014b8:	6878      	ldr	r0, [r7, #4]
 80014ba:	f7ff ff82 	bl	80013c2 <LL_USART_SetStopBitsLength>

    /*---------------------------- USART CR3 Configuration ---------------------
     * Configure USARTx CR3 (Hardware Flow Control) with parameters:
     * - HardwareFlowControl: USART_CR3_RTSE, USART_CR3_CTSE bits according to USART_InitStruct->HardwareFlowControl value.
     */
    LL_USART_SetHWFlowCtrl(USARTx, USART_InitStruct->HardwareFlowControl);
 80014be:	683b      	ldr	r3, [r7, #0]
 80014c0:	695b      	ldr	r3, [r3, #20]
 80014c2:	4619      	mov	r1, r3
 80014c4:	6878      	ldr	r0, [r7, #4]
 80014c6:	f7ff ff8f 	bl	80013e8 <LL_USART_SetHWFlowCtrl>

    /*---------------------------- USART BRR Configuration ---------------------
     * Retrieve Clock frequency used for USART Peripheral
     */
    if (USARTx == USART1)
 80014ca:	687b      	ldr	r3, [r7, #4]
 80014cc:	4a1b      	ldr	r2, [pc, #108]	; (800153c <LL_USART_Init+0xcc>)
 80014ce:	4293      	cmp	r3, r2
 80014d0:	d104      	bne.n	80014dc <LL_USART_Init+0x6c>
    {
      periphclk = LL_RCC_GetUSARTClockFreq(LL_RCC_USART1_CLKSOURCE);
 80014d2:	2000      	movs	r0, #0
 80014d4:	f7ff fe7e 	bl	80011d4 <LL_RCC_GetUSARTClockFreq>
 80014d8:	61b8      	str	r0, [r7, #24]
 80014da:	e016      	b.n	800150a <LL_USART_Init+0x9a>
    }
    else if (USARTx == USART2)
 80014dc:	687b      	ldr	r3, [r7, #4]
 80014de:	4a18      	ldr	r2, [pc, #96]	; (8001540 <LL_USART_Init+0xd0>)
 80014e0:	4293      	cmp	r3, r2
 80014e2:	d107      	bne.n	80014f4 <LL_USART_Init+0x84>
    {
#if defined (RCC_CFGR3_USART2SW)
      periphclk = LL_RCC_GetUSARTClockFreq(LL_RCC_USART2_CLKSOURCE);
#else
      /* USART2 clock is PCLK */
      LL_RCC_GetSystemClocksFreq(&RCC_Clocks);
 80014e4:	f107 0308 	add.w	r3, r7, #8
 80014e8:	4618      	mov	r0, r3
 80014ea:	f7ff fe4d 	bl	8001188 <LL_RCC_GetSystemClocksFreq>
      periphclk = RCC_Clocks.PCLK1_Frequency;
 80014ee:	693b      	ldr	r3, [r7, #16]
 80014f0:	61bb      	str	r3, [r7, #24]
 80014f2:	e00a      	b.n	800150a <LL_USART_Init+0x9a>
#endif
    }
    else if (USARTx == USART3)
 80014f4:	687b      	ldr	r3, [r7, #4]
 80014f6:	4a13      	ldr	r2, [pc, #76]	; (8001544 <LL_USART_Init+0xd4>)
 80014f8:	4293      	cmp	r3, r2
 80014fa:	d106      	bne.n	800150a <LL_USART_Init+0x9a>
    {
#if defined (RCC_CFGR3_USART3SW)
      periphclk = LL_RCC_GetUSARTClockFreq(LL_RCC_USART3_CLKSOURCE);
#else
      /* USART3 clock is PCLK */
      LL_RCC_GetSystemClocksFreq(&RCC_Clocks);
 80014fc:	f107 0308 	add.w	r3, r7, #8
 8001500:	4618      	mov	r0, r3
 8001502:	f7ff fe41 	bl	8001188 <LL_RCC_GetSystemClocksFreq>
      periphclk = RCC_Clocks.PCLK1_Frequency;
 8001506:	693b      	ldr	r3, [r7, #16]
 8001508:	61bb      	str	r3, [r7, #24]

    /* Configure the USART Baud Rate :
       - valid baud rate value (different from 0) is required
       - Peripheral clock as returned by RCC service, should be valid (different from 0).
    */
    if ((periphclk != LL_RCC_PERIPH_FREQUENCY_NO)
 800150a:	69bb      	ldr	r3, [r7, #24]
 800150c:	2b00      	cmp	r3, #0
 800150e:	d00d      	beq.n	800152c <LL_USART_Init+0xbc>
        && (USART_InitStruct->BaudRate != 0U))
 8001510:	683b      	ldr	r3, [r7, #0]
 8001512:	681b      	ldr	r3, [r3, #0]
 8001514:	2b00      	cmp	r3, #0
 8001516:	d009      	beq.n	800152c <LL_USART_Init+0xbc>
    {
      status = SUCCESS;
 8001518:	2300      	movs	r3, #0
 800151a:	77fb      	strb	r3, [r7, #31]
      LL_USART_SetBaudRate(USARTx,
 800151c:	683b      	ldr	r3, [r7, #0]
 800151e:	699a      	ldr	r2, [r3, #24]
 8001520:	683b      	ldr	r3, [r7, #0]
 8001522:	681b      	ldr	r3, [r3, #0]
 8001524:	69b9      	ldr	r1, [r7, #24]
 8001526:	6878      	ldr	r0, [r7, #4]
 8001528:	f7ff ff71 	bl	800140e <LL_USART_SetBaudRate>
      assert_param(IS_LL_USART_BRR_MAX(USARTx->BRR));
    }
  }
  /* Endif (=> USART not in Disabled state => return ERROR) */

  return (status);
 800152c:	7ffb      	ldrb	r3, [r7, #31]
}
 800152e:	4618      	mov	r0, r3
 8001530:	3720      	adds	r7, #32
 8001532:	46bd      	mov	sp, r7
 8001534:	bd80      	pop	{r7, pc}
 8001536:	bf00      	nop
 8001538:	efff69f3 	.word	0xefff69f3
 800153c:	40013800 	.word	0x40013800
 8001540:	40004400 	.word	0x40004400
 8001544:	40004800 	.word	0x40004800

08001548 <LL_InitTick>:
  *         configuration by calling this function, for a delay use rather osDelay RTOS service.
  * @param  Ticks Number of ticks
  * @retval None
  */
__STATIC_INLINE void LL_InitTick(uint32_t HCLKFrequency, uint32_t Ticks)
{
 8001548:	b480      	push	{r7}
 800154a:	b083      	sub	sp, #12
 800154c:	af00      	add	r7, sp, #0
 800154e:	6078      	str	r0, [r7, #4]
 8001550:	6039      	str	r1, [r7, #0]
  /* Configure the SysTick to have interrupt in 1ms time base */
  SysTick->LOAD  = (uint32_t)((HCLKFrequency / Ticks) - 1UL);  /* set reload register */
 8001552:	687a      	ldr	r2, [r7, #4]
 8001554:	683b      	ldr	r3, [r7, #0]
 8001556:	fbb2 f3f3 	udiv	r3, r2, r3
 800155a:	4a07      	ldr	r2, [pc, #28]	; (8001578 <LL_InitTick+0x30>)
 800155c:	3b01      	subs	r3, #1
 800155e:	6053      	str	r3, [r2, #4]
  SysTick->VAL   = 0UL;                                       /* Load the SysTick Counter Value */
 8001560:	4b05      	ldr	r3, [pc, #20]	; (8001578 <LL_InitTick+0x30>)
 8001562:	2200      	movs	r2, #0
 8001564:	609a      	str	r2, [r3, #8]
  SysTick->CTRL  = SysTick_CTRL_CLKSOURCE_Msk |
 8001566:	4b04      	ldr	r3, [pc, #16]	; (8001578 <LL_InitTick+0x30>)
 8001568:	2205      	movs	r2, #5
 800156a:	601a      	str	r2, [r3, #0]
                   SysTick_CTRL_ENABLE_Msk;                   /* Enable the Systick Timer */
}
 800156c:	bf00      	nop
 800156e:	370c      	adds	r7, #12
 8001570:	46bd      	mov	sp, r7
 8001572:	f85d 7b04 	ldr.w	r7, [sp], #4
 8001576:	4770      	bx	lr
 8001578:	e000e010 	.word	0xe000e010

0800157c <LL_Init1msTick>:
  * @param  HCLKFrequency HCLK frequency in Hz
  * @note   HCLK frequency can be calculated thanks to RCC helper macro or function @ref LL_RCC_GetSystemClocksFreq
  * @retval None
  */
void LL_Init1msTick(uint32_t HCLKFrequency)
{
 800157c:	b580      	push	{r7, lr}
 800157e:	b082      	sub	sp, #8
 8001580:	af00      	add	r7, sp, #0
 8001582:	6078      	str	r0, [r7, #4]
  /* Use frequency provided in argument */
  LL_InitTick(HCLKFrequency, 1000U);
 8001584:	f44f 717a 	mov.w	r1, #1000	; 0x3e8
 8001588:	6878      	ldr	r0, [r7, #4]
 800158a:	f7ff ffdd 	bl	8001548 <LL_InitTick>
}
 800158e:	bf00      	nop
 8001590:	3708      	adds	r7, #8
 8001592:	46bd      	mov	sp, r7
 8001594:	bd80      	pop	{r7, pc}
	...

08001598 <LL_mDelay>:
  *         will configure Systick to 1ms
  * @param  Delay specifies the delay time length, in milliseconds.
  * @retval None
  */
void LL_mDelay(uint32_t Delay)
{
 8001598:	b480      	push	{r7}
 800159a:	b085      	sub	sp, #20
 800159c:	af00      	add	r7, sp, #0
 800159e:	6078      	str	r0, [r7, #4]
  __IO uint32_t  tmp = SysTick->CTRL;  /* Clear the COUNTFLAG first */
 80015a0:	4b0f      	ldr	r3, [pc, #60]	; (80015e0 <LL_mDelay+0x48>)
 80015a2:	681b      	ldr	r3, [r3, #0]
 80015a4:	60fb      	str	r3, [r7, #12]
  /* Add this code to indicate that local variable is not used */
  ((void)tmp);
 80015a6:	68fb      	ldr	r3, [r7, #12]

  /* Add a period to guaranty minimum wait */
  if (Delay < LL_MAX_DELAY)
 80015a8:	687b      	ldr	r3, [r7, #4]
 80015aa:	f1b3 3fff 	cmp.w	r3, #4294967295
 80015ae:	d00c      	beq.n	80015ca <LL_mDelay+0x32>
  {
    Delay++;
 80015b0:	687b      	ldr	r3, [r7, #4]
 80015b2:	3301      	adds	r3, #1
 80015b4:	607b      	str	r3, [r7, #4]
  }

  while (Delay)
 80015b6:	e008      	b.n	80015ca <LL_mDelay+0x32>
  {
    if ((SysTick->CTRL & SysTick_CTRL_COUNTFLAG_Msk) != 0U)
 80015b8:	4b09      	ldr	r3, [pc, #36]	; (80015e0 <LL_mDelay+0x48>)
 80015ba:	681b      	ldr	r3, [r3, #0]
 80015bc:	f403 3380 	and.w	r3, r3, #65536	; 0x10000
 80015c0:	2b00      	cmp	r3, #0
 80015c2:	d002      	beq.n	80015ca <LL_mDelay+0x32>
    {
      Delay--;
 80015c4:	687b      	ldr	r3, [r7, #4]
 80015c6:	3b01      	subs	r3, #1
 80015c8:	607b      	str	r3, [r7, #4]
  while (Delay)
 80015ca:	687b      	ldr	r3, [r7, #4]
 80015cc:	2b00      	cmp	r3, #0
 80015ce:	d1f3      	bne.n	80015b8 <LL_mDelay+0x20>
    }
  }
}
 80015d0:	bf00      	nop
 80015d2:	bf00      	nop
 80015d4:	3714      	adds	r7, #20
 80015d6:	46bd      	mov	sp, r7
 80015d8:	f85d 7b04 	ldr.w	r7, [sp], #4
 80015dc:	4770      	bx	lr
 80015de:	bf00      	nop
 80015e0:	e000e010 	.word	0xe000e010

080015e4 <LL_SetSystemCoreClock>:
  * @note   Variable can be calculated also through SystemCoreClockUpdate function.
  * @param  HCLKFrequency HCLK frequency in Hz (can be calculated thanks to RCC helper macro)
  * @retval None
  */
void LL_SetSystemCoreClock(uint32_t HCLKFrequency)
{
 80015e4:	b480      	push	{r7}
 80015e6:	b083      	sub	sp, #12
 80015e8:	af00      	add	r7, sp, #0
 80015ea:	6078      	str	r0, [r7, #4]
  /* HCLK clock frequency */
  SystemCoreClock = HCLKFrequency;
 80015ec:	4a04      	ldr	r2, [pc, #16]	; (8001600 <LL_SetSystemCoreClock+0x1c>)
 80015ee:	687b      	ldr	r3, [r7, #4]
 80015f0:	6013      	str	r3, [r2, #0]
}
 80015f2:	bf00      	nop
 80015f4:	370c      	adds	r7, #12
 80015f6:	46bd      	mov	sp, r7
 80015f8:	f85d 7b04 	ldr.w	r7, [sp], #4
 80015fc:	4770      	bx	lr
 80015fe:	bf00      	nop
 8001600:	20000000 	.word	0x20000000

08001604 <whoAmI>:
 */

#include "hts221.h"

uint8_t whoAmI()
{
 8001604:	b580      	push	{r7, lr}
 8001606:	af00      	add	r7, sp, #0
	if (i2c_master_read_byte(HTS221_READ_ADDRESS, HTS221_WHO_AM_I_ADDRESS) == HTS221_WHO_AM_I_VALUE)
 8001608:	210f      	movs	r1, #15
 800160a:	20bf      	movs	r0, #191	; 0xbf
 800160c:	f000 fc66 	bl	8001edc <i2c_master_read_byte>
 8001610:	4603      	mov	r3, r0
 8001612:	2bbc      	cmp	r3, #188	; 0xbc
 8001614:	d101      	bne.n	800161a <whoAmI+0x16>
	{
		return 1;
 8001616:	2301      	movs	r3, #1
 8001618:	e000      	b.n	800161c <whoAmI+0x18>
	}else return 0;
 800161a:	2300      	movs	r3, #0
}
 800161c:	4618      	mov	r0, r3
 800161e:	bd80      	pop	{r7, pc}

08001620 <htsInit>:

void htsInit()
{
 8001620:	b580      	push	{r7, lr}
 8001622:	af00      	add	r7, sp, #0
	if (whoAmI())
 8001624:	f7ff ffee 	bl	8001604 <whoAmI>
 8001628:	4603      	mov	r3, r0
 800162a:	2b00      	cmp	r3, #0
 800162c:	d004      	beq.n	8001638 <htsInit+0x18>
	{
		i2c_send_byte(HTS221_WRITE_ADDRESS, CTRL_REG1_ADDRESS, INIT_REG1);
 800162e:	2286      	movs	r2, #134	; 0x86
 8001630:	2120      	movs	r1, #32
 8001632:	20be      	movs	r0, #190	; 0xbe
 8001634:	f000 fc1c 	bl	8001e70 <i2c_send_byte>
	}
}
 8001638:	bf00      	nop
 800163a:	bd80      	pop	{r7, pc}

0800163c <getTemp>:

float getTemp()
{
 800163c:	b580      	push	{r7, lr}
 800163e:	b082      	sub	sp, #8
 8001640:	af00      	add	r7, sp, #0
	uint8_t buffer[2];
	if (whoAmI())
 8001642:	f7ff ffdf 	bl	8001604 <whoAmI>
 8001646:	4603      	mov	r3, r0
 8001648:	2b00      	cmp	r3, #0
 800164a:	d00b      	beq.n	8001664 <getTemp+0x28>
	{
		buffer[0] = i2c_master_read_byte(HTS221_READ_ADDRESS, TEMP_OUT_L_ADDRESS);
 800164c:	212a      	movs	r1, #42	; 0x2a
 800164e:	20bf      	movs	r0, #191	; 0xbf
 8001650:	f000 fc44 	bl	8001edc <i2c_master_read_byte>
 8001654:	4603      	mov	r3, r0
 8001656:	713b      	strb	r3, [r7, #4]
		buffer[1] = i2c_master_read_byte(HTS221_READ_ADDRESS, TEMP_OUT_H_ADDRESS);
 8001658:	212b      	movs	r1, #43	; 0x2b
 800165a:	20bf      	movs	r0, #191	; 0xbf
 800165c:	f000 fc3e 	bl	8001edc <i2c_master_read_byte>
 8001660:	4603      	mov	r3, r0
 8001662:	717b      	strb	r3, [r7, #5]
	}
	return ((buffer[1] << 8) | buffer[0]) / 10.f;
 8001664:	797b      	ldrb	r3, [r7, #5]
 8001666:	021b      	lsls	r3, r3, #8
 8001668:	793a      	ldrb	r2, [r7, #4]
 800166a:	4313      	orrs	r3, r2
 800166c:	ee07 3a90 	vmov	s15, r3
 8001670:	eef8 7ae7 	vcvt.f32.s32	s15, s15
 8001674:	eeb2 7a04 	vmov.f32	s14, #36	; 0x41200000  10.0
 8001678:	eec7 6a87 	vdiv.f32	s13, s15, s14
 800167c:	eef0 7a66 	vmov.f32	s15, s13
}
 8001680:	eeb0 0a67 	vmov.f32	s0, s15
 8001684:	3708      	adds	r7, #8
 8001686:	46bd      	mov	sp, r7
 8001688:	bd80      	pop	{r7, pc}
	...

0800168c <getHum>:

float getHum()
{
 800168c:	b580      	push	{r7, lr}
 800168e:	b082      	sub	sp, #8
 8001690:	af00      	add	r7, sp, #0
	uint8_t buffer[2];
	if (whoAmI())
 8001692:	f7ff ffb7 	bl	8001604 <whoAmI>
 8001696:	4603      	mov	r3, r0
 8001698:	2b00      	cmp	r3, #0
 800169a:	d00b      	beq.n	80016b4 <getHum+0x28>
	{
		buffer[0] = i2c_master_read_byte(HTS221_READ_ADDRESS, HUMIDITY_OUT_L_ADDRESS);
 800169c:	2128      	movs	r1, #40	; 0x28
 800169e:	20bf      	movs	r0, #191	; 0xbf
 80016a0:	f000 fc1c 	bl	8001edc <i2c_master_read_byte>
 80016a4:	4603      	mov	r3, r0
 80016a6:	713b      	strb	r3, [r7, #4]
		buffer[1] = i2c_master_read_byte(HTS221_READ_ADDRESS, HUMIDITY_OUT_H_ADDRESS);
 80016a8:	2129      	movs	r1, #41	; 0x29
 80016aa:	20bf      	movs	r0, #191	; 0xbf
 80016ac:	f000 fc16 	bl	8001edc <i2c_master_read_byte>
 80016b0:	4603      	mov	r3, r0
 80016b2:	717b      	strb	r3, [r7, #5]
	}
	return ((buffer[1] << 8) | buffer[0]) / 1000.f;
 80016b4:	797b      	ldrb	r3, [r7, #5]
 80016b6:	021b      	lsls	r3, r3, #8
 80016b8:	793a      	ldrb	r2, [r7, #4]
 80016ba:	4313      	orrs	r3, r2
 80016bc:	ee07 3a90 	vmov	s15, r3
 80016c0:	eef8 7ae7 	vcvt.f32.s32	s15, s15
 80016c4:	ed9f 7a05 	vldr	s14, [pc, #20]	; 80016dc <getHum+0x50>
 80016c8:	eec7 6a87 	vdiv.f32	s13, s15, s14
 80016cc:	eef0 7a66 	vmov.f32	s15, s13
}
 80016d0:	eeb0 0a67 	vmov.f32	s0, s15
 80016d4:	3708      	adds	r7, #8
 80016d6:	46bd      	mov	sp, r7
 80016d8:	bd80      	pop	{r7, pc}
 80016da:	bf00      	nop
 80016dc:	447a0000 	.word	0x447a0000

080016e0 <whoAmI_LPS>:
#include <math.h>

float pressure = 0;

uint8_t whoAmI_LPS()
{
 80016e0:	b580      	push	{r7, lr}
 80016e2:	af00      	add	r7, sp, #0
	if (i2c_master_read_byte(LPS25HB_READ_ADDRESS, LPS25HB_WHO_AM_I_ADDRESS) == LPS25HB_WHO_AM_I_VALUE)
 80016e4:	210f      	movs	r1, #15
 80016e6:	20bb      	movs	r0, #187	; 0xbb
 80016e8:	f000 fbf8 	bl	8001edc <i2c_master_read_byte>
 80016ec:	4603      	mov	r3, r0
 80016ee:	2bbd      	cmp	r3, #189	; 0xbd
 80016f0:	d101      	bne.n	80016f6 <whoAmI_LPS+0x16>
	{
		return 1;
 80016f2:	2301      	movs	r3, #1
 80016f4:	e000      	b.n	80016f8 <whoAmI_LPS+0x18>
	} else return 0;
 80016f6:	2300      	movs	r3, #0
}
 80016f8:	4618      	mov	r0, r3
 80016fa:	bd80      	pop	{r7, pc}

080016fc <lpsInit>:

void lpsInit()
{
 80016fc:	b580      	push	{r7, lr}
 80016fe:	af00      	add	r7, sp, #0
	if (whoAmI_LPS())
 8001700:	f7ff ffee 	bl	80016e0 <whoAmI_LPS>
 8001704:	4603      	mov	r3, r0
 8001706:	2b00      	cmp	r3, #0
 8001708:	d004      	beq.n	8001714 <lpsInit+0x18>
	{
		i2c_send_byte(LPS25HB_WRITE_ADDRESS, LPS25HB_CTRL_REG1 , LPS25HB_INIT_REG1);
 800170a:	22a0      	movs	r2, #160	; 0xa0
 800170c:	2120      	movs	r1, #32
 800170e:	20ba      	movs	r0, #186	; 0xba
 8001710:	f000 fbae 	bl	8001e70 <i2c_send_byte>
	}
}
 8001714:	bf00      	nop
 8001716:	bd80      	pop	{r7, pc}

08001718 <calculateHeight>:

float calculateHeight()
{
 8001718:	b580      	push	{r7, lr}
 800171a:	ed2d 8b02 	vpush	{d8}
 800171e:	b086      	sub	sp, #24
 8001720:	af00      	add	r7, sp, #0
	float R = 8.314;
 8001722:	4b1c      	ldr	r3, [pc, #112]	; (8001794 <calculateHeight+0x7c>)
 8001724:	617b      	str	r3, [r7, #20]
	float T0 = 288.15;
 8001726:	4b1c      	ldr	r3, [pc, #112]	; (8001798 <calculateHeight+0x80>)
 8001728:	613b      	str	r3, [r7, #16]
	float P0 = 994.44;
 800172a:	4b1c      	ldr	r3, [pc, #112]	; (800179c <calculateHeight+0x84>)
 800172c:	60fb      	str	r3, [r7, #12]
	float L = 0.0065;
 800172e:	4b1c      	ldr	r3, [pc, #112]	; (80017a0 <calculateHeight+0x88>)
 8001730:	60bb      	str	r3, [r7, #8]
	float g = 9.81;
 8001732:	4b1c      	ldr	r3, [pc, #112]	; (80017a4 <calculateHeight+0x8c>)
 8001734:	607b      	str	r3, [r7, #4]

	return -((T0 / L) * (1 - powf((pressure / P0), (R * L / g))));
 8001736:	ed97 7a04 	vldr	s14, [r7, #16]
 800173a:	edd7 7a02 	vldr	s15, [r7, #8]
 800173e:	ee87 8a27 	vdiv.f32	s16, s14, s15
 8001742:	4b19      	ldr	r3, [pc, #100]	; (80017a8 <calculateHeight+0x90>)
 8001744:	ed93 7a00 	vldr	s14, [r3]
 8001748:	edd7 7a03 	vldr	s15, [r7, #12]
 800174c:	eec7 6a27 	vdiv.f32	s13, s14, s15
 8001750:	ed97 7a05 	vldr	s14, [r7, #20]
 8001754:	edd7 7a02 	vldr	s15, [r7, #8]
 8001758:	ee27 7a27 	vmul.f32	s14, s14, s15
 800175c:	edd7 7a01 	vldr	s15, [r7, #4]
 8001760:	ee87 6a27 	vdiv.f32	s12, s14, s15
 8001764:	eef0 0a46 	vmov.f32	s1, s12
 8001768:	eeb0 0a66 	vmov.f32	s0, s13
 800176c:	f004 fba8 	bl	8005ec0 <powf>
 8001770:	eef0 7a40 	vmov.f32	s15, s0
 8001774:	eeb7 7a00 	vmov.f32	s14, #112	; 0x3f800000  1.0
 8001778:	ee77 7a67 	vsub.f32	s15, s14, s15
 800177c:	ee68 7a27 	vmul.f32	s15, s16, s15
 8001780:	eef1 7a67 	vneg.f32	s15, s15
}
 8001784:	eeb0 0a67 	vmov.f32	s0, s15
 8001788:	3718      	adds	r7, #24
 800178a:	46bd      	mov	sp, r7
 800178c:	ecbd 8b02 	vpop	{d8}
 8001790:	bd80      	pop	{r7, pc}
 8001792:	bf00      	nop
 8001794:	41050625 	.word	0x41050625
 8001798:	43901333 	.word	0x43901333
 800179c:	44789c29 	.word	0x44789c29
 80017a0:	3bd4fdf4 	.word	0x3bd4fdf4
 80017a4:	411cf5c3 	.word	0x411cf5c3
 80017a8:	200001e8 	.word	0x200001e8

080017ac <getPressure>:

float getPressure()
{
 80017ac:	b580      	push	{r7, lr}
 80017ae:	b082      	sub	sp, #8
 80017b0:	af00      	add	r7, sp, #0
    if (whoAmI_LPS())
 80017b2:	f7ff ff95 	bl	80016e0 <whoAmI_LPS>
 80017b6:	4603      	mov	r3, r0
 80017b8:	2b00      	cmp	r3, #0
 80017ba:	d029      	beq.n	8001810 <getPressure+0x64>
    {
    	uint8_t pressureXL = i2c_master_read_byte(LPS25HB_READ_ADDRESS, PRESS_OUT_XL_ADDRESS);
 80017bc:	2128      	movs	r1, #40	; 0x28
 80017be:	20bb      	movs	r0, #187	; 0xbb
 80017c0:	f000 fb8c 	bl	8001edc <i2c_master_read_byte>
 80017c4:	4603      	mov	r3, r0
 80017c6:	71fb      	strb	r3, [r7, #7]
    	uint8_t pressureL = i2c_master_read_byte(LPS25HB_READ_ADDRESS, PRESS_OUT_L_ADDRESS);
 80017c8:	2129      	movs	r1, #41	; 0x29
 80017ca:	20bb      	movs	r0, #187	; 0xbb
 80017cc:	f000 fb86 	bl	8001edc <i2c_master_read_byte>
 80017d0:	4603      	mov	r3, r0
 80017d2:	71bb      	strb	r3, [r7, #6]
    	uint8_t pressureH = i2c_master_read_byte(LPS25HB_READ_ADDRESS, PRESS_OUT_H_ADDRESS);
 80017d4:	212a      	movs	r1, #42	; 0x2a
 80017d6:	20bb      	movs	r0, #187	; 0xbb
 80017d8:	f000 fb80 	bl	8001edc <i2c_master_read_byte>
 80017dc:	4603      	mov	r3, r0
 80017de:	717b      	strb	r3, [r7, #5]

    	pressure = (int32_t) pressureH << 16 | (int32_t) pressureL << 8 | pressureXL;
 80017e0:	797b      	ldrb	r3, [r7, #5]
 80017e2:	041a      	lsls	r2, r3, #16
 80017e4:	79bb      	ldrb	r3, [r7, #6]
 80017e6:	021b      	lsls	r3, r3, #8
 80017e8:	431a      	orrs	r2, r3
 80017ea:	79fb      	ldrb	r3, [r7, #7]
 80017ec:	4313      	orrs	r3, r2
 80017ee:	ee07 3a90 	vmov	s15, r3
 80017f2:	eef8 7ae7 	vcvt.f32.s32	s15, s15
 80017f6:	4b0b      	ldr	r3, [pc, #44]	; (8001824 <getPressure+0x78>)
 80017f8:	edc3 7a00 	vstr	s15, [r3]
    	pressure = pressure / 4096.f;
 80017fc:	4b09      	ldr	r3, [pc, #36]	; (8001824 <getPressure+0x78>)
 80017fe:	ed93 7a00 	vldr	s14, [r3]
 8001802:	eddf 6a09 	vldr	s13, [pc, #36]	; 8001828 <getPressure+0x7c>
 8001806:	eec7 7a26 	vdiv.f32	s15, s14, s13
 800180a:	4b06      	ldr	r3, [pc, #24]	; (8001824 <getPressure+0x78>)
 800180c:	edc3 7a00 	vstr	s15, [r3]
    }
    return pressure;
 8001810:	4b04      	ldr	r3, [pc, #16]	; (8001824 <getPressure+0x78>)
 8001812:	681b      	ldr	r3, [r3, #0]
 8001814:	ee07 3a90 	vmov	s15, r3
}
 8001818:	eeb0 0a67 	vmov.f32	s0, s15
 800181c:	3708      	adds	r7, #8
 800181e:	46bd      	mov	sp, r7
 8001820:	bd80      	pop	{r7, pc}
 8001822:	bf00      	nop
 8001824:	200001e8 	.word	0x200001e8
 8001828:	45800000 	.word	0x45800000

0800182c <NVIC_EnableIRQ>:
  \brief   Enable External Interrupt
  \details Enables a device-specific interrupt in the NVIC interrupt controller.
  \param [in]      IRQn  External interrupt number. Value cannot be negative.
 */
__STATIC_INLINE void NVIC_EnableIRQ(IRQn_Type IRQn)
{
 800182c:	b480      	push	{r7}
 800182e:	b083      	sub	sp, #12
 8001830:	af00      	add	r7, sp, #0
 8001832:	4603      	mov	r3, r0
 8001834:	71fb      	strb	r3, [r7, #7]
  NVIC->ISER[(((uint32_t)(int32_t)IRQn) >> 5UL)] = (uint32_t)(1UL << (((uint32_t)(int32_t)IRQn) & 0x1FUL));
 8001836:	79fb      	ldrb	r3, [r7, #7]
 8001838:	f003 021f 	and.w	r2, r3, #31
 800183c:	4907      	ldr	r1, [pc, #28]	; (800185c <NVIC_EnableIRQ+0x30>)
 800183e:	f997 3007 	ldrsb.w	r3, [r7, #7]
 8001842:	095b      	lsrs	r3, r3, #5
 8001844:	2001      	movs	r0, #1
 8001846:	fa00 f202 	lsl.w	r2, r0, r2
 800184a:	f841 2023 	str.w	r2, [r1, r3, lsl #2]
}
 800184e:	bf00      	nop
 8001850:	370c      	adds	r7, #12
 8001852:	46bd      	mov	sp, r7
 8001854:	f85d 7b04 	ldr.w	r7, [sp], #4
 8001858:	4770      	bx	lr
 800185a:	bf00      	nop
 800185c:	e000e100 	.word	0xe000e100

08001860 <NVIC_SetPriority>:
  \note    The priority cannot be set for every core interrupt.
  \param [in]      IRQn  Interrupt number.
  \param [in]  priority  Priority to set.
 */
__STATIC_INLINE void NVIC_SetPriority(IRQn_Type IRQn, uint32_t priority)
{
 8001860:	b480      	push	{r7}
 8001862:	b083      	sub	sp, #12
 8001864:	af00      	add	r7, sp, #0
 8001866:	4603      	mov	r3, r0
 8001868:	6039      	str	r1, [r7, #0]
 800186a:	71fb      	strb	r3, [r7, #7]
  if ((int32_t)(IRQn) < 0)
 800186c:	f997 3007 	ldrsb.w	r3, [r7, #7]
 8001870:	2b00      	cmp	r3, #0
 8001872:	da0b      	bge.n	800188c <NVIC_SetPriority+0x2c>
  {
    SCB->SHP[(((uint32_t)(int32_t)IRQn) & 0xFUL)-4UL] = (uint8_t)((priority << (8U - __NVIC_PRIO_BITS)) & (uint32_t)0xFFUL);
 8001874:	683b      	ldr	r3, [r7, #0]
 8001876:	b2da      	uxtb	r2, r3
 8001878:	490c      	ldr	r1, [pc, #48]	; (80018ac <NVIC_SetPriority+0x4c>)
 800187a:	79fb      	ldrb	r3, [r7, #7]
 800187c:	f003 030f 	and.w	r3, r3, #15
 8001880:	3b04      	subs	r3, #4
 8001882:	0112      	lsls	r2, r2, #4
 8001884:	b2d2      	uxtb	r2, r2
 8001886:	440b      	add	r3, r1
 8001888:	761a      	strb	r2, [r3, #24]
  }
  else
  {
    NVIC->IP[((uint32_t)(int32_t)IRQn)]               = (uint8_t)((priority << (8U - __NVIC_PRIO_BITS)) & (uint32_t)0xFFUL);
  }
}
 800188a:	e009      	b.n	80018a0 <NVIC_SetPriority+0x40>
    NVIC->IP[((uint32_t)(int32_t)IRQn)]               = (uint8_t)((priority << (8U - __NVIC_PRIO_BITS)) & (uint32_t)0xFFUL);
 800188c:	683b      	ldr	r3, [r7, #0]
 800188e:	b2da      	uxtb	r2, r3
 8001890:	4907      	ldr	r1, [pc, #28]	; (80018b0 <NVIC_SetPriority+0x50>)
 8001892:	f997 3007 	ldrsb.w	r3, [r7, #7]
 8001896:	0112      	lsls	r2, r2, #4
 8001898:	b2d2      	uxtb	r2, r2
 800189a:	440b      	add	r3, r1
 800189c:	f883 2300 	strb.w	r2, [r3, #768]	; 0x300
}
 80018a0:	bf00      	nop
 80018a2:	370c      	adds	r7, #12
 80018a4:	46bd      	mov	sp, r7
 80018a6:	f85d 7b04 	ldr.w	r7, [sp], #4
 80018aa:	4770      	bx	lr
 80018ac:	e000ed00 	.word	0xe000ed00
 80018b0:	e000e100 	.word	0xe000e100

080018b4 <LL_AHB1_GRP1_EnableClock>:
  *
  *         (*) value not defined in all devices.
  * @retval None
*/
__STATIC_INLINE void LL_AHB1_GRP1_EnableClock(uint32_t Periphs)
{
 80018b4:	b480      	push	{r7}
 80018b6:	b085      	sub	sp, #20
 80018b8:	af00      	add	r7, sp, #0
 80018ba:	6078      	str	r0, [r7, #4]
  __IO uint32_t tmpreg;
  SET_BIT(RCC->AHBENR, Periphs);
 80018bc:	4b08      	ldr	r3, [pc, #32]	; (80018e0 <LL_AHB1_GRP1_EnableClock+0x2c>)
 80018be:	695a      	ldr	r2, [r3, #20]
 80018c0:	4907      	ldr	r1, [pc, #28]	; (80018e0 <LL_AHB1_GRP1_EnableClock+0x2c>)
 80018c2:	687b      	ldr	r3, [r7, #4]
 80018c4:	4313      	orrs	r3, r2
 80018c6:	614b      	str	r3, [r1, #20]
  /* Delay after an RCC peripheral clock enabling */
  tmpreg = READ_BIT(RCC->AHBENR, Periphs);
 80018c8:	4b05      	ldr	r3, [pc, #20]	; (80018e0 <LL_AHB1_GRP1_EnableClock+0x2c>)
 80018ca:	695a      	ldr	r2, [r3, #20]
 80018cc:	687b      	ldr	r3, [r7, #4]
 80018ce:	4013      	ands	r3, r2
 80018d0:	60fb      	str	r3, [r7, #12]
  (void)tmpreg;
 80018d2:	68fb      	ldr	r3, [r7, #12]
}
 80018d4:	bf00      	nop
 80018d6:	3714      	adds	r7, #20
 80018d8:	46bd      	mov	sp, r7
 80018da:	f85d 7b04 	ldr.w	r7, [sp], #4
 80018de:	4770      	bx	lr
 80018e0:	40021000 	.word	0x40021000

080018e4 <MX_DMA_Init>:

/** 
  * Enable DMA controller clock
  */
void MX_DMA_Init(void) 
{
 80018e4:	b580      	push	{r7, lr}
 80018e6:	af00      	add	r7, sp, #0
  /* Init with LL driver */
  /* DMA controller clock enable */
  LL_AHB1_GRP1_EnableClock(LL_AHB1_GRP1_PERIPH_DMA1);
 80018e8:	2001      	movs	r0, #1
 80018ea:	f7ff ffe3 	bl	80018b4 <LL_AHB1_GRP1_EnableClock>

  /* DMA interrupt init */
  /* DMA1_Channel6_IRQn interrupt configuration */
  NVIC_SetPriority(DMA1_Channel6_IRQn, 0);
 80018ee:	2100      	movs	r1, #0
 80018f0:	2010      	movs	r0, #16
 80018f2:	f7ff ffb5 	bl	8001860 <NVIC_SetPriority>
  NVIC_EnableIRQ(DMA1_Channel6_IRQn);
 80018f6:	2010      	movs	r0, #16
 80018f8:	f7ff ff98 	bl	800182c <NVIC_EnableIRQ>
  /* DMA1_Channel7_IRQn interrupt configuration */
  NVIC_SetPriority(DMA1_Channel7_IRQn, 0);
 80018fc:	2100      	movs	r1, #0
 80018fe:	2011      	movs	r0, #17
 8001900:	f7ff ffae 	bl	8001860 <NVIC_SetPriority>
  NVIC_EnableIRQ(DMA1_Channel7_IRQn);
 8001904:	2011      	movs	r0, #17
 8001906:	f7ff ff91 	bl	800182c <NVIC_EnableIRQ>

}
 800190a:	bf00      	nop
 800190c:	bd80      	pop	{r7, pc}
	...

08001910 <LL_AHB1_GRP1_EnableClock>:
{
 8001910:	b480      	push	{r7}
 8001912:	b085      	sub	sp, #20
 8001914:	af00      	add	r7, sp, #0
 8001916:	6078      	str	r0, [r7, #4]
  SET_BIT(RCC->AHBENR, Periphs);
 8001918:	4b08      	ldr	r3, [pc, #32]	; (800193c <LL_AHB1_GRP1_EnableClock+0x2c>)
 800191a:	695a      	ldr	r2, [r3, #20]
 800191c:	4907      	ldr	r1, [pc, #28]	; (800193c <LL_AHB1_GRP1_EnableClock+0x2c>)
 800191e:	687b      	ldr	r3, [r7, #4]
 8001920:	4313      	orrs	r3, r2
 8001922:	614b      	str	r3, [r1, #20]
  tmpreg = READ_BIT(RCC->AHBENR, Periphs);
 8001924:	4b05      	ldr	r3, [pc, #20]	; (800193c <LL_AHB1_GRP1_EnableClock+0x2c>)
 8001926:	695a      	ldr	r2, [r3, #20]
 8001928:	687b      	ldr	r3, [r7, #4]
 800192a:	4013      	ands	r3, r2
 800192c:	60fb      	str	r3, [r7, #12]
  (void)tmpreg;
 800192e:	68fb      	ldr	r3, [r7, #12]
}
 8001930:	bf00      	nop
 8001932:	3714      	adds	r7, #20
 8001934:	46bd      	mov	sp, r7
 8001936:	f85d 7b04 	ldr.w	r7, [sp], #4
 800193a:	4770      	bx	lr
 800193c:	40021000 	.word	0x40021000

08001940 <LL_GPIO_SetPinMode>:
{
 8001940:	b480      	push	{r7}
 8001942:	b089      	sub	sp, #36	; 0x24
 8001944:	af00      	add	r7, sp, #0
 8001946:	60f8      	str	r0, [r7, #12]
 8001948:	60b9      	str	r1, [r7, #8]
 800194a:	607a      	str	r2, [r7, #4]
  MODIFY_REG(GPIOx->MODER, (GPIO_MODER_MODER0 << (POSITION_VAL(Pin) * 2U)), (Mode << (POSITION_VAL(Pin) * 2U)));
 800194c:	68fb      	ldr	r3, [r7, #12]
 800194e:	681a      	ldr	r2, [r3, #0]
 8001950:	68bb      	ldr	r3, [r7, #8]
 8001952:	617b      	str	r3, [r7, #20]
   __ASM volatile ("rbit %0, %1" : "=r" (result) : "r" (value) );
 8001954:	697b      	ldr	r3, [r7, #20]
 8001956:	fa93 f3a3 	rbit	r3, r3
 800195a:	613b      	str	r3, [r7, #16]
  return(result);
 800195c:	693b      	ldr	r3, [r7, #16]
 800195e:	fab3 f383 	clz	r3, r3
 8001962:	005b      	lsls	r3, r3, #1
 8001964:	2103      	movs	r1, #3
 8001966:	fa01 f303 	lsl.w	r3, r1, r3
 800196a:	43db      	mvns	r3, r3
 800196c:	401a      	ands	r2, r3
 800196e:	68bb      	ldr	r3, [r7, #8]
 8001970:	61fb      	str	r3, [r7, #28]
   __ASM volatile ("rbit %0, %1" : "=r" (result) : "r" (value) );
 8001972:	69fb      	ldr	r3, [r7, #28]
 8001974:	fa93 f3a3 	rbit	r3, r3
 8001978:	61bb      	str	r3, [r7, #24]
  return(result);
 800197a:	69bb      	ldr	r3, [r7, #24]
 800197c:	fab3 f383 	clz	r3, r3
 8001980:	005b      	lsls	r3, r3, #1
 8001982:	6879      	ldr	r1, [r7, #4]
 8001984:	fa01 f303 	lsl.w	r3, r1, r3
 8001988:	431a      	orrs	r2, r3
 800198a:	68fb      	ldr	r3, [r7, #12]
 800198c:	601a      	str	r2, [r3, #0]
}
 800198e:	bf00      	nop
 8001990:	3724      	adds	r7, #36	; 0x24
 8001992:	46bd      	mov	sp, r7
 8001994:	f85d 7b04 	ldr.w	r7, [sp], #4
 8001998:	4770      	bx	lr

0800199a <LL_GPIO_SetOutputPin>:
  *         @arg @ref LL_GPIO_PIN_15
  *         @arg @ref LL_GPIO_PIN_ALL
  * @retval None
  */
__STATIC_INLINE void LL_GPIO_SetOutputPin(GPIO_TypeDef *GPIOx, uint32_t PinMask)
{
 800199a:	b480      	push	{r7}
 800199c:	b083      	sub	sp, #12
 800199e:	af00      	add	r7, sp, #0
 80019a0:	6078      	str	r0, [r7, #4]
 80019a2:	6039      	str	r1, [r7, #0]
  WRITE_REG(GPIOx->BSRR, PinMask);
 80019a4:	687b      	ldr	r3, [r7, #4]
 80019a6:	683a      	ldr	r2, [r7, #0]
 80019a8:	619a      	str	r2, [r3, #24]
}
 80019aa:	bf00      	nop
 80019ac:	370c      	adds	r7, #12
 80019ae:	46bd      	mov	sp, r7
 80019b0:	f85d 7b04 	ldr.w	r7, [sp], #4
 80019b4:	4770      	bx	lr
	...

080019b8 <MX_GPIO_Init>:
/* USER CODE END 1 */

/** Pinout Configuration
*/
void MX_GPIO_Init(void)
{
 80019b8:	b580      	push	{r7, lr}
 80019ba:	af00      	add	r7, sp, #0

  /* GPIO Ports Clock Enable */
  LL_AHB1_GRP1_EnableClock(LL_AHB1_GRP1_PERIPH_GPIOB);
 80019bc:	f44f 2080 	mov.w	r0, #262144	; 0x40000
 80019c0:	f7ff ffa6 	bl	8001910 <LL_AHB1_GRP1_EnableClock>

  /* LED pin configuration */
  LL_GPIO_SetPinMode(GPIOB, LL_GPIO_PIN_3, LL_GPIO_MODE_OUTPUT);
 80019c4:	2201      	movs	r2, #1
 80019c6:	2108      	movs	r1, #8
 80019c8:	4804      	ldr	r0, [pc, #16]	; (80019dc <MX_GPIO_Init+0x24>)
 80019ca:	f7ff ffb9 	bl	8001940 <LL_GPIO_SetPinMode>
  LL_GPIO_SetOutputPin(GPIOB, LL_GPIO_PIN_3);
 80019ce:	2108      	movs	r1, #8
 80019d0:	4802      	ldr	r0, [pc, #8]	; (80019dc <MX_GPIO_Init+0x24>)
 80019d2:	f7ff ffe2 	bl	800199a <LL_GPIO_SetOutputPin>

}
 80019d6:	bf00      	nop
 80019d8:	bd80      	pop	{r7, pc}
 80019da:	bf00      	nop
 80019dc:	48000400 	.word	0x48000400

080019e0 <NVIC_GetPriorityGrouping>:
{
 80019e0:	b480      	push	{r7}
 80019e2:	af00      	add	r7, sp, #0
  return ((uint32_t)((SCB->AIRCR & SCB_AIRCR_PRIGROUP_Msk) >> SCB_AIRCR_PRIGROUP_Pos));
 80019e4:	4b04      	ldr	r3, [pc, #16]	; (80019f8 <NVIC_GetPriorityGrouping+0x18>)
 80019e6:	68db      	ldr	r3, [r3, #12]
 80019e8:	0a1b      	lsrs	r3, r3, #8
 80019ea:	f003 0307 	and.w	r3, r3, #7
}
 80019ee:	4618      	mov	r0, r3
 80019f0:	46bd      	mov	sp, r7
 80019f2:	f85d 7b04 	ldr.w	r7, [sp], #4
 80019f6:	4770      	bx	lr
 80019f8:	e000ed00 	.word	0xe000ed00

080019fc <NVIC_EnableIRQ>:
{
 80019fc:	b480      	push	{r7}
 80019fe:	b083      	sub	sp, #12
 8001a00:	af00      	add	r7, sp, #0
 8001a02:	4603      	mov	r3, r0
 8001a04:	71fb      	strb	r3, [r7, #7]
  NVIC->ISER[(((uint32_t)(int32_t)IRQn) >> 5UL)] = (uint32_t)(1UL << (((uint32_t)(int32_t)IRQn) & 0x1FUL));
 8001a06:	79fb      	ldrb	r3, [r7, #7]
 8001a08:	f003 021f 	and.w	r2, r3, #31
 8001a0c:	4907      	ldr	r1, [pc, #28]	; (8001a2c <NVIC_EnableIRQ+0x30>)
 8001a0e:	f997 3007 	ldrsb.w	r3, [r7, #7]
 8001a12:	095b      	lsrs	r3, r3, #5
 8001a14:	2001      	movs	r0, #1
 8001a16:	fa00 f202 	lsl.w	r2, r0, r2
 8001a1a:	f841 2023 	str.w	r2, [r1, r3, lsl #2]
}
 8001a1e:	bf00      	nop
 8001a20:	370c      	adds	r7, #12
 8001a22:	46bd      	mov	sp, r7
 8001a24:	f85d 7b04 	ldr.w	r7, [sp], #4
 8001a28:	4770      	bx	lr
 8001a2a:	bf00      	nop
 8001a2c:	e000e100 	.word	0xe000e100

08001a30 <NVIC_SetPriority>:
{
 8001a30:	b480      	push	{r7}
 8001a32:	b083      	sub	sp, #12
 8001a34:	af00      	add	r7, sp, #0
 8001a36:	4603      	mov	r3, r0
 8001a38:	6039      	str	r1, [r7, #0]
 8001a3a:	71fb      	strb	r3, [r7, #7]
  if ((int32_t)(IRQn) < 0)
 8001a3c:	f997 3007 	ldrsb.w	r3, [r7, #7]
 8001a40:	2b00      	cmp	r3, #0
 8001a42:	da0b      	bge.n	8001a5c <NVIC_SetPriority+0x2c>
    SCB->SHP[(((uint32_t)(int32_t)IRQn) & 0xFUL)-4UL] = (uint8_t)((priority << (8U - __NVIC_PRIO_BITS)) & (uint32_t)0xFFUL);
 8001a44:	683b      	ldr	r3, [r7, #0]
 8001a46:	b2da      	uxtb	r2, r3
 8001a48:	490c      	ldr	r1, [pc, #48]	; (8001a7c <NVIC_SetPriority+0x4c>)
 8001a4a:	79fb      	ldrb	r3, [r7, #7]
 8001a4c:	f003 030f 	and.w	r3, r3, #15
 8001a50:	3b04      	subs	r3, #4
 8001a52:	0112      	lsls	r2, r2, #4
 8001a54:	b2d2      	uxtb	r2, r2
 8001a56:	440b      	add	r3, r1
 8001a58:	761a      	strb	r2, [r3, #24]
}
 8001a5a:	e009      	b.n	8001a70 <NVIC_SetPriority+0x40>
    NVIC->IP[((uint32_t)(int32_t)IRQn)]               = (uint8_t)((priority << (8U - __NVIC_PRIO_BITS)) & (uint32_t)0xFFUL);
 8001a5c:	683b      	ldr	r3, [r7, #0]
 8001a5e:	b2da      	uxtb	r2, r3
 8001a60:	4907      	ldr	r1, [pc, #28]	; (8001a80 <NVIC_SetPriority+0x50>)
 8001a62:	f997 3007 	ldrsb.w	r3, [r7, #7]
 8001a66:	0112      	lsls	r2, r2, #4
 8001a68:	b2d2      	uxtb	r2, r2
 8001a6a:	440b      	add	r3, r1
 8001a6c:	f883 2300 	strb.w	r2, [r3, #768]	; 0x300
}
 8001a70:	bf00      	nop
 8001a72:	370c      	adds	r7, #12
 8001a74:	46bd      	mov	sp, r7
 8001a76:	f85d 7b04 	ldr.w	r7, [sp], #4
 8001a7a:	4770      	bx	lr
 8001a7c:	e000ed00 	.word	0xe000ed00
 8001a80:	e000e100 	.word	0xe000e100

08001a84 <NVIC_EncodePriority>:
  \param [in]   PreemptPriority  Preemptive priority value (starting from 0).
  \param [in]       SubPriority  Subpriority value (starting from 0).
  \return                        Encoded priority. Value can be used in the function \ref NVIC_SetPriority().
 */
__STATIC_INLINE uint32_t NVIC_EncodePriority (uint32_t PriorityGroup, uint32_t PreemptPriority, uint32_t SubPriority)
{
 8001a84:	b480      	push	{r7}
 8001a86:	b089      	sub	sp, #36	; 0x24
 8001a88:	af00      	add	r7, sp, #0
 8001a8a:	60f8      	str	r0, [r7, #12]
 8001a8c:	60b9      	str	r1, [r7, #8]
 8001a8e:	607a      	str	r2, [r7, #4]
  uint32_t PriorityGroupTmp = (PriorityGroup & (uint32_t)0x07UL);   /* only values 0..7 are used          */
 8001a90:	68fb      	ldr	r3, [r7, #12]
 8001a92:	f003 0307 	and.w	r3, r3, #7
 8001a96:	61fb      	str	r3, [r7, #28]
  uint32_t PreemptPriorityBits;
  uint32_t SubPriorityBits;

  PreemptPriorityBits = ((7UL - PriorityGroupTmp) > (uint32_t)(__NVIC_PRIO_BITS)) ? (uint32_t)(__NVIC_PRIO_BITS) : (uint32_t)(7UL - PriorityGroupTmp);
 8001a98:	69fb      	ldr	r3, [r7, #28]
 8001a9a:	f1c3 0307 	rsb	r3, r3, #7
 8001a9e:	2b04      	cmp	r3, #4
 8001aa0:	bf28      	it	cs
 8001aa2:	2304      	movcs	r3, #4
 8001aa4:	61bb      	str	r3, [r7, #24]
  SubPriorityBits     = ((PriorityGroupTmp + (uint32_t)(__NVIC_PRIO_BITS)) < (uint32_t)7UL) ? (uint32_t)0UL : (uint32_t)((PriorityGroupTmp - 7UL) + (uint32_t)(__NVIC_PRIO_BITS));
 8001aa6:	69fb      	ldr	r3, [r7, #28]
 8001aa8:	3304      	adds	r3, #4
 8001aaa:	2b06      	cmp	r3, #6
 8001aac:	d902      	bls.n	8001ab4 <NVIC_EncodePriority+0x30>
 8001aae:	69fb      	ldr	r3, [r7, #28]
 8001ab0:	3b03      	subs	r3, #3
 8001ab2:	e000      	b.n	8001ab6 <NVIC_EncodePriority+0x32>
 8001ab4:	2300      	movs	r3, #0
 8001ab6:	617b      	str	r3, [r7, #20]

  return (
           ((PreemptPriority & (uint32_t)((1UL << (PreemptPriorityBits)) - 1UL)) << SubPriorityBits) |
 8001ab8:	f04f 32ff 	mov.w	r2, #4294967295
 8001abc:	69bb      	ldr	r3, [r7, #24]
 8001abe:	fa02 f303 	lsl.w	r3, r2, r3
 8001ac2:	43da      	mvns	r2, r3
 8001ac4:	68bb      	ldr	r3, [r7, #8]
 8001ac6:	401a      	ands	r2, r3
 8001ac8:	697b      	ldr	r3, [r7, #20]
 8001aca:	409a      	lsls	r2, r3
           ((SubPriority     & (uint32_t)((1UL << (SubPriorityBits    )) - 1UL)))
 8001acc:	f04f 31ff 	mov.w	r1, #4294967295
 8001ad0:	697b      	ldr	r3, [r7, #20]
 8001ad2:	fa01 f303 	lsl.w	r3, r1, r3
 8001ad6:	43d9      	mvns	r1, r3
 8001ad8:	687b      	ldr	r3, [r7, #4]
 8001ada:	400b      	ands	r3, r1
           ((PreemptPriority & (uint32_t)((1UL << (PreemptPriorityBits)) - 1UL)) << SubPriorityBits) |
 8001adc:	4313      	orrs	r3, r2
         );
}
 8001ade:	4618      	mov	r0, r3
 8001ae0:	3724      	adds	r7, #36	; 0x24
 8001ae2:	46bd      	mov	sp, r7
 8001ae4:	f85d 7b04 	ldr.w	r7, [sp], #4
 8001ae8:	4770      	bx	lr

08001aea <LL_I2C_Enable>:
{
 8001aea:	b480      	push	{r7}
 8001aec:	b083      	sub	sp, #12
 8001aee:	af00      	add	r7, sp, #0
 8001af0:	6078      	str	r0, [r7, #4]
  SET_BIT(I2Cx->CR1, I2C_CR1_PE);
 8001af2:	687b      	ldr	r3, [r7, #4]
 8001af4:	681b      	ldr	r3, [r3, #0]
 8001af6:	f043 0201 	orr.w	r2, r3, #1
 8001afa:	687b      	ldr	r3, [r7, #4]
 8001afc:	601a      	str	r2, [r3, #0]
}
 8001afe:	bf00      	nop
 8001b00:	370c      	adds	r7, #12
 8001b02:	46bd      	mov	sp, r7
 8001b04:	f85d 7b04 	ldr.w	r7, [sp], #4
 8001b08:	4770      	bx	lr

08001b0a <LL_I2C_EnableClockStretching>:
{
 8001b0a:	b480      	push	{r7}
 8001b0c:	b083      	sub	sp, #12
 8001b0e:	af00      	add	r7, sp, #0
 8001b10:	6078      	str	r0, [r7, #4]
  CLEAR_BIT(I2Cx->CR1, I2C_CR1_NOSTRETCH);
 8001b12:	687b      	ldr	r3, [r7, #4]
 8001b14:	681b      	ldr	r3, [r3, #0]
 8001b16:	f423 3200 	bic.w	r2, r3, #131072	; 0x20000
 8001b1a:	687b      	ldr	r3, [r7, #4]
 8001b1c:	601a      	str	r2, [r3, #0]
}
 8001b1e:	bf00      	nop
 8001b20:	370c      	adds	r7, #12
 8001b22:	46bd      	mov	sp, r7
 8001b24:	f85d 7b04 	ldr.w	r7, [sp], #4
 8001b28:	4770      	bx	lr

08001b2a <LL_I2C_DisableGeneralCall>:
{
 8001b2a:	b480      	push	{r7}
 8001b2c:	b083      	sub	sp, #12
 8001b2e:	af00      	add	r7, sp, #0
 8001b30:	6078      	str	r0, [r7, #4]
  CLEAR_BIT(I2Cx->CR1, I2C_CR1_GCEN);
 8001b32:	687b      	ldr	r3, [r7, #4]
 8001b34:	681b      	ldr	r3, [r3, #0]
 8001b36:	f423 2200 	bic.w	r2, r3, #524288	; 0x80000
 8001b3a:	687b      	ldr	r3, [r7, #4]
 8001b3c:	601a      	str	r2, [r3, #0]
}
 8001b3e:	bf00      	nop
 8001b40:	370c      	adds	r7, #12
 8001b42:	46bd      	mov	sp, r7
 8001b44:	f85d 7b04 	ldr.w	r7, [sp], #4
 8001b48:	4770      	bx	lr

08001b4a <LL_I2C_SetOwnAddress2>:
{
 8001b4a:	b480      	push	{r7}
 8001b4c:	b085      	sub	sp, #20
 8001b4e:	af00      	add	r7, sp, #0
 8001b50:	60f8      	str	r0, [r7, #12]
 8001b52:	60b9      	str	r1, [r7, #8]
 8001b54:	607a      	str	r2, [r7, #4]
  MODIFY_REG(I2Cx->OAR2, I2C_OAR2_OA2 | I2C_OAR2_OA2MSK, OwnAddress2 | OwnAddrMask);
 8001b56:	68fb      	ldr	r3, [r7, #12]
 8001b58:	68db      	ldr	r3, [r3, #12]
 8001b5a:	f423 63ff 	bic.w	r3, r3, #2040	; 0x7f8
 8001b5e:	f023 0306 	bic.w	r3, r3, #6
 8001b62:	68b9      	ldr	r1, [r7, #8]
 8001b64:	687a      	ldr	r2, [r7, #4]
 8001b66:	430a      	orrs	r2, r1
 8001b68:	431a      	orrs	r2, r3
 8001b6a:	68fb      	ldr	r3, [r7, #12]
 8001b6c:	60da      	str	r2, [r3, #12]
}
 8001b6e:	bf00      	nop
 8001b70:	3714      	adds	r7, #20
 8001b72:	46bd      	mov	sp, r7
 8001b74:	f85d 7b04 	ldr.w	r7, [sp], #4
 8001b78:	4770      	bx	lr

08001b7a <LL_I2C_DisableOwnAddress2>:
{
 8001b7a:	b480      	push	{r7}
 8001b7c:	b083      	sub	sp, #12
 8001b7e:	af00      	add	r7, sp, #0
 8001b80:	6078      	str	r0, [r7, #4]
  CLEAR_BIT(I2Cx->OAR2, I2C_OAR2_OA2EN);
 8001b82:	687b      	ldr	r3, [r7, #4]
 8001b84:	68db      	ldr	r3, [r3, #12]
 8001b86:	f423 4200 	bic.w	r2, r3, #32768	; 0x8000
 8001b8a:	687b      	ldr	r3, [r7, #4]
 8001b8c:	60da      	str	r2, [r3, #12]
}
 8001b8e:	bf00      	nop
 8001b90:	370c      	adds	r7, #12
 8001b92:	46bd      	mov	sp, r7
 8001b94:	f85d 7b04 	ldr.w	r7, [sp], #4
 8001b98:	4770      	bx	lr

08001b9a <LL_I2C_EnableIT_RX>:
{
 8001b9a:	b480      	push	{r7}
 8001b9c:	b083      	sub	sp, #12
 8001b9e:	af00      	add	r7, sp, #0
 8001ba0:	6078      	str	r0, [r7, #4]
  SET_BIT(I2Cx->CR1, I2C_CR1_RXIE);
 8001ba2:	687b      	ldr	r3, [r7, #4]
 8001ba4:	681b      	ldr	r3, [r3, #0]
 8001ba6:	f043 0204 	orr.w	r2, r3, #4
 8001baa:	687b      	ldr	r3, [r7, #4]
 8001bac:	601a      	str	r2, [r3, #0]
}
 8001bae:	bf00      	nop
 8001bb0:	370c      	adds	r7, #12
 8001bb2:	46bd      	mov	sp, r7
 8001bb4:	f85d 7b04 	ldr.w	r7, [sp], #4
 8001bb8:	4770      	bx	lr

08001bba <LL_I2C_DisableIT_RX>:
{
 8001bba:	b480      	push	{r7}
 8001bbc:	b083      	sub	sp, #12
 8001bbe:	af00      	add	r7, sp, #0
 8001bc0:	6078      	str	r0, [r7, #4]
  CLEAR_BIT(I2Cx->CR1, I2C_CR1_RXIE);
 8001bc2:	687b      	ldr	r3, [r7, #4]
 8001bc4:	681b      	ldr	r3, [r3, #0]
 8001bc6:	f023 0204 	bic.w	r2, r3, #4
 8001bca:	687b      	ldr	r3, [r7, #4]
 8001bcc:	601a      	str	r2, [r3, #0]
}
 8001bce:	bf00      	nop
 8001bd0:	370c      	adds	r7, #12
 8001bd2:	46bd      	mov	sp, r7
 8001bd4:	f85d 7b04 	ldr.w	r7, [sp], #4
 8001bd8:	4770      	bx	lr

08001bda <LL_I2C_IsActiveFlag_TXIS>:
{
 8001bda:	b480      	push	{r7}
 8001bdc:	b083      	sub	sp, #12
 8001bde:	af00      	add	r7, sp, #0
 8001be0:	6078      	str	r0, [r7, #4]
  return (READ_BIT(I2Cx->ISR, I2C_ISR_TXIS) == (I2C_ISR_TXIS));
 8001be2:	687b      	ldr	r3, [r7, #4]
 8001be4:	699b      	ldr	r3, [r3, #24]
 8001be6:	f003 0302 	and.w	r3, r3, #2
 8001bea:	2b02      	cmp	r3, #2
 8001bec:	bf0c      	ite	eq
 8001bee:	2301      	moveq	r3, #1
 8001bf0:	2300      	movne	r3, #0
 8001bf2:	b2db      	uxtb	r3, r3
}
 8001bf4:	4618      	mov	r0, r3
 8001bf6:	370c      	adds	r7, #12
 8001bf8:	46bd      	mov	sp, r7
 8001bfa:	f85d 7b04 	ldr.w	r7, [sp], #4
 8001bfe:	4770      	bx	lr

08001c00 <LL_I2C_IsActiveFlag_RXNE>:
{
 8001c00:	b480      	push	{r7}
 8001c02:	b083      	sub	sp, #12
 8001c04:	af00      	add	r7, sp, #0
 8001c06:	6078      	str	r0, [r7, #4]
  return (READ_BIT(I2Cx->ISR, I2C_ISR_RXNE) == (I2C_ISR_RXNE));
 8001c08:	687b      	ldr	r3, [r7, #4]
 8001c0a:	699b      	ldr	r3, [r3, #24]
 8001c0c:	f003 0304 	and.w	r3, r3, #4
 8001c10:	2b04      	cmp	r3, #4
 8001c12:	bf0c      	ite	eq
 8001c14:	2301      	moveq	r3, #1
 8001c16:	2300      	movne	r3, #0
 8001c18:	b2db      	uxtb	r3, r3
}
 8001c1a:	4618      	mov	r0, r3
 8001c1c:	370c      	adds	r7, #12
 8001c1e:	46bd      	mov	sp, r7
 8001c20:	f85d 7b04 	ldr.w	r7, [sp], #4
 8001c24:	4770      	bx	lr

08001c26 <LL_I2C_IsActiveFlag_STOP>:
{
 8001c26:	b480      	push	{r7}
 8001c28:	b083      	sub	sp, #12
 8001c2a:	af00      	add	r7, sp, #0
 8001c2c:	6078      	str	r0, [r7, #4]
  return (READ_BIT(I2Cx->ISR, I2C_ISR_STOPF) == (I2C_ISR_STOPF));
 8001c2e:	687b      	ldr	r3, [r7, #4]
 8001c30:	699b      	ldr	r3, [r3, #24]
 8001c32:	f003 0320 	and.w	r3, r3, #32
 8001c36:	2b20      	cmp	r3, #32
 8001c38:	bf0c      	ite	eq
 8001c3a:	2301      	moveq	r3, #1
 8001c3c:	2300      	movne	r3, #0
 8001c3e:	b2db      	uxtb	r3, r3
}
 8001c40:	4618      	mov	r0, r3
 8001c42:	370c      	adds	r7, #12
 8001c44:	46bd      	mov	sp, r7
 8001c46:	f85d 7b04 	ldr.w	r7, [sp], #4
 8001c4a:	4770      	bx	lr

08001c4c <LL_I2C_ClearFlag_NACK>:
{
 8001c4c:	b480      	push	{r7}
 8001c4e:	b083      	sub	sp, #12
 8001c50:	af00      	add	r7, sp, #0
 8001c52:	6078      	str	r0, [r7, #4]
  SET_BIT(I2Cx->ICR, I2C_ICR_NACKCF);
 8001c54:	687b      	ldr	r3, [r7, #4]
 8001c56:	69db      	ldr	r3, [r3, #28]
 8001c58:	f043 0210 	orr.w	r2, r3, #16
 8001c5c:	687b      	ldr	r3, [r7, #4]
 8001c5e:	61da      	str	r2, [r3, #28]
}
 8001c60:	bf00      	nop
 8001c62:	370c      	adds	r7, #12
 8001c64:	46bd      	mov	sp, r7
 8001c66:	f85d 7b04 	ldr.w	r7, [sp], #4
 8001c6a:	4770      	bx	lr

08001c6c <LL_I2C_ClearFlag_STOP>:
{
 8001c6c:	b480      	push	{r7}
 8001c6e:	b083      	sub	sp, #12
 8001c70:	af00      	add	r7, sp, #0
 8001c72:	6078      	str	r0, [r7, #4]
  SET_BIT(I2Cx->ICR, I2C_ICR_STOPCF);
 8001c74:	687b      	ldr	r3, [r7, #4]
 8001c76:	69db      	ldr	r3, [r3, #28]
 8001c78:	f043 0220 	orr.w	r2, r3, #32
 8001c7c:	687b      	ldr	r3, [r7, #4]
 8001c7e:	61da      	str	r2, [r3, #28]
}
 8001c80:	bf00      	nop
 8001c82:	370c      	adds	r7, #12
 8001c84:	46bd      	mov	sp, r7
 8001c86:	f85d 7b04 	ldr.w	r7, [sp], #4
 8001c8a:	4770      	bx	lr

08001c8c <LL_I2C_EnableAutoEndMode>:
{
 8001c8c:	b480      	push	{r7}
 8001c8e:	b083      	sub	sp, #12
 8001c90:	af00      	add	r7, sp, #0
 8001c92:	6078      	str	r0, [r7, #4]
  SET_BIT(I2Cx->CR2, I2C_CR2_AUTOEND);
 8001c94:	687b      	ldr	r3, [r7, #4]
 8001c96:	685b      	ldr	r3, [r3, #4]
 8001c98:	f043 7200 	orr.w	r2, r3, #33554432	; 0x2000000
 8001c9c:	687b      	ldr	r3, [r7, #4]
 8001c9e:	605a      	str	r2, [r3, #4]
}
 8001ca0:	bf00      	nop
 8001ca2:	370c      	adds	r7, #12
 8001ca4:	46bd      	mov	sp, r7
 8001ca6:	f85d 7b04 	ldr.w	r7, [sp], #4
 8001caa:	4770      	bx	lr

08001cac <LL_I2C_HandleTransfer>:
  *         @arg @ref LL_I2C_GENERATE_RESTART_10BIT_WRITE
  * @retval None
  */
__STATIC_INLINE void LL_I2C_HandleTransfer(I2C_TypeDef *I2Cx, uint32_t SlaveAddr, uint32_t SlaveAddrSize,
                                           uint32_t TransferSize, uint32_t EndMode, uint32_t Request)
{
 8001cac:	b480      	push	{r7}
 8001cae:	b085      	sub	sp, #20
 8001cb0:	af00      	add	r7, sp, #0
 8001cb2:	60f8      	str	r0, [r7, #12]
 8001cb4:	60b9      	str	r1, [r7, #8]
 8001cb6:	607a      	str	r2, [r7, #4]
 8001cb8:	603b      	str	r3, [r7, #0]
  MODIFY_REG(I2Cx->CR2, I2C_CR2_SADD | I2C_CR2_ADD10 | (I2C_CR2_RD_WRN & (uint32_t)(Request >> (31U - I2C_CR2_RD_WRN_Pos))) | I2C_CR2_START | I2C_CR2_STOP | I2C_CR2_RELOAD |
 8001cba:	68fb      	ldr	r3, [r7, #12]
 8001cbc:	685a      	ldr	r2, [r3, #4]
 8001cbe:	69fb      	ldr	r3, [r7, #28]
 8001cc0:	0d5b      	lsrs	r3, r3, #21
 8001cc2:	f403 6180 	and.w	r1, r3, #1024	; 0x400
 8001cc6:	4b0b      	ldr	r3, [pc, #44]	; (8001cf4 <LL_I2C_HandleTransfer+0x48>)
 8001cc8:	430b      	orrs	r3, r1
 8001cca:	43db      	mvns	r3, r3
 8001ccc:	401a      	ands	r2, r3
 8001cce:	68b9      	ldr	r1, [r7, #8]
 8001cd0:	687b      	ldr	r3, [r7, #4]
 8001cd2:	4319      	orrs	r1, r3
 8001cd4:	683b      	ldr	r3, [r7, #0]
 8001cd6:	041b      	lsls	r3, r3, #16
 8001cd8:	4319      	orrs	r1, r3
 8001cda:	69bb      	ldr	r3, [r7, #24]
 8001cdc:	4319      	orrs	r1, r3
 8001cde:	69fb      	ldr	r3, [r7, #28]
 8001ce0:	430b      	orrs	r3, r1
 8001ce2:	431a      	orrs	r2, r3
 8001ce4:	68fb      	ldr	r3, [r7, #12]
 8001ce6:	605a      	str	r2, [r3, #4]
             I2C_CR2_NBYTES | I2C_CR2_AUTOEND | I2C_CR2_HEAD10R,
             SlaveAddr | SlaveAddrSize | TransferSize << I2C_CR2_NBYTES_Pos | EndMode | Request);
}
 8001ce8:	bf00      	nop
 8001cea:	3714      	adds	r7, #20
 8001cec:	46bd      	mov	sp, r7
 8001cee:	f85d 7b04 	ldr.w	r7, [sp], #4
 8001cf2:	4770      	bx	lr
 8001cf4:	03ff7bff 	.word	0x03ff7bff

08001cf8 <LL_I2C_ReceiveData8>:
  * @rmtoll RXDR         RXDATA        LL_I2C_ReceiveData8
  * @param  I2Cx I2C Instance.
  * @retval Value between Min_Data=0x00 and Max_Data=0xFF
  */
__STATIC_INLINE uint8_t LL_I2C_ReceiveData8(I2C_TypeDef *I2Cx)
{
 8001cf8:	b480      	push	{r7}
 8001cfa:	b083      	sub	sp, #12
 8001cfc:	af00      	add	r7, sp, #0
 8001cfe:	6078      	str	r0, [r7, #4]
  return (uint8_t)(READ_BIT(I2Cx->RXDR, I2C_RXDR_RXDATA));
 8001d00:	687b      	ldr	r3, [r7, #4]
 8001d02:	6a5b      	ldr	r3, [r3, #36]	; 0x24
 8001d04:	b2db      	uxtb	r3, r3
}
 8001d06:	4618      	mov	r0, r3
 8001d08:	370c      	adds	r7, #12
 8001d0a:	46bd      	mov	sp, r7
 8001d0c:	f85d 7b04 	ldr.w	r7, [sp], #4
 8001d10:	4770      	bx	lr

08001d12 <LL_I2C_TransmitData8>:
  * @param  I2Cx I2C Instance.
  * @param  Data Value between Min_Data=0x00 and Max_Data=0xFF
  * @retval None
  */
__STATIC_INLINE void LL_I2C_TransmitData8(I2C_TypeDef *I2Cx, uint8_t Data)
{
 8001d12:	b480      	push	{r7}
 8001d14:	b083      	sub	sp, #12
 8001d16:	af00      	add	r7, sp, #0
 8001d18:	6078      	str	r0, [r7, #4]
 8001d1a:	460b      	mov	r3, r1
 8001d1c:	70fb      	strb	r3, [r7, #3]
  WRITE_REG(I2Cx->TXDR, Data);
 8001d1e:	78fa      	ldrb	r2, [r7, #3]
 8001d20:	687b      	ldr	r3, [r7, #4]
 8001d22:	629a      	str	r2, [r3, #40]	; 0x28
}
 8001d24:	bf00      	nop
 8001d26:	370c      	adds	r7, #12
 8001d28:	46bd      	mov	sp, r7
 8001d2a:	f85d 7b04 	ldr.w	r7, [sp], #4
 8001d2e:	4770      	bx	lr

08001d30 <LL_AHB1_GRP1_EnableClock>:
{
 8001d30:	b480      	push	{r7}
 8001d32:	b085      	sub	sp, #20
 8001d34:	af00      	add	r7, sp, #0
 8001d36:	6078      	str	r0, [r7, #4]
  SET_BIT(RCC->AHBENR, Periphs);
 8001d38:	4b08      	ldr	r3, [pc, #32]	; (8001d5c <LL_AHB1_GRP1_EnableClock+0x2c>)
 8001d3a:	695a      	ldr	r2, [r3, #20]
 8001d3c:	4907      	ldr	r1, [pc, #28]	; (8001d5c <LL_AHB1_GRP1_EnableClock+0x2c>)
 8001d3e:	687b      	ldr	r3, [r7, #4]
 8001d40:	4313      	orrs	r3, r2
 8001d42:	614b      	str	r3, [r1, #20]
  tmpreg = READ_BIT(RCC->AHBENR, Periphs);
 8001d44:	4b05      	ldr	r3, [pc, #20]	; (8001d5c <LL_AHB1_GRP1_EnableClock+0x2c>)
 8001d46:	695a      	ldr	r2, [r3, #20]
 8001d48:	687b      	ldr	r3, [r7, #4]
 8001d4a:	4013      	ands	r3, r2
 8001d4c:	60fb      	str	r3, [r7, #12]
  (void)tmpreg;
 8001d4e:	68fb      	ldr	r3, [r7, #12]
}
 8001d50:	bf00      	nop
 8001d52:	3714      	adds	r7, #20
 8001d54:	46bd      	mov	sp, r7
 8001d56:	f85d 7b04 	ldr.w	r7, [sp], #4
 8001d5a:	4770      	bx	lr
 8001d5c:	40021000 	.word	0x40021000

08001d60 <LL_APB1_GRP1_EnableClock>:
  *
  *         (*) value not defined in all devices.
  * @retval None
*/
__STATIC_INLINE void LL_APB1_GRP1_EnableClock(uint32_t Periphs)
{
 8001d60:	b480      	push	{r7}
 8001d62:	b085      	sub	sp, #20
 8001d64:	af00      	add	r7, sp, #0
 8001d66:	6078      	str	r0, [r7, #4]
  __IO uint32_t tmpreg;
  SET_BIT(RCC->APB1ENR, Periphs);
 8001d68:	4b08      	ldr	r3, [pc, #32]	; (8001d8c <LL_APB1_GRP1_EnableClock+0x2c>)
 8001d6a:	69da      	ldr	r2, [r3, #28]
 8001d6c:	4907      	ldr	r1, [pc, #28]	; (8001d8c <LL_APB1_GRP1_EnableClock+0x2c>)
 8001d6e:	687b      	ldr	r3, [r7, #4]
 8001d70:	4313      	orrs	r3, r2
 8001d72:	61cb      	str	r3, [r1, #28]
  /* Delay after an RCC peripheral clock enabling */
  tmpreg = READ_BIT(RCC->APB1ENR, Periphs);
 8001d74:	4b05      	ldr	r3, [pc, #20]	; (8001d8c <LL_APB1_GRP1_EnableClock+0x2c>)
 8001d76:	69da      	ldr	r2, [r3, #28]
 8001d78:	687b      	ldr	r3, [r7, #4]
 8001d7a:	4013      	ands	r3, r2
 8001d7c:	60fb      	str	r3, [r7, #12]
  (void)tmpreg;
 8001d7e:	68fb      	ldr	r3, [r7, #12]
}
 8001d80:	bf00      	nop
 8001d82:	3714      	adds	r7, #20
 8001d84:	46bd      	mov	sp, r7
 8001d86:	f85d 7b04 	ldr.w	r7, [sp], #4
 8001d8a:	4770      	bx	lr
 8001d8c:	40021000 	.word	0x40021000

08001d90 <MX_I2C1_Init>:

/* USER CODE END 0 */

/* I2C1 init function */
void MX_I2C1_Init(void)
{
 8001d90:	b580      	push	{r7, lr}
 8001d92:	b08e      	sub	sp, #56	; 0x38
 8001d94:	af00      	add	r7, sp, #0
  LL_I2C_InitTypeDef I2C_InitStruct = {0};
 8001d96:	f107 031c 	add.w	r3, r7, #28
 8001d9a:	2200      	movs	r2, #0
 8001d9c:	601a      	str	r2, [r3, #0]
 8001d9e:	605a      	str	r2, [r3, #4]
 8001da0:	609a      	str	r2, [r3, #8]
 8001da2:	60da      	str	r2, [r3, #12]
 8001da4:	611a      	str	r2, [r3, #16]
 8001da6:	615a      	str	r2, [r3, #20]
 8001da8:	619a      	str	r2, [r3, #24]

  LL_GPIO_InitTypeDef GPIO_InitStruct = {0};
 8001daa:	1d3b      	adds	r3, r7, #4
 8001dac:	2200      	movs	r2, #0
 8001dae:	601a      	str	r2, [r3, #0]
 8001db0:	605a      	str	r2, [r3, #4]
 8001db2:	609a      	str	r2, [r3, #8]
 8001db4:	60da      	str	r2, [r3, #12]
 8001db6:	611a      	str	r2, [r3, #16]
 8001db8:	615a      	str	r2, [r3, #20]
  
  LL_AHB1_GRP1_EnableClock(LL_AHB1_GRP1_PERIPH_GPIOB);
 8001dba:	f44f 2080 	mov.w	r0, #262144	; 0x40000
 8001dbe:	f7ff ffb7 	bl	8001d30 <LL_AHB1_GRP1_EnableClock>
  /**I2C1 GPIO Configuration  
  PB6   ------> I2C1_SCL
  PB7   ------> I2C1_SDA 
  */
  GPIO_InitStruct.Pin = LL_GPIO_PIN_6|LL_GPIO_PIN_7;
 8001dc2:	23c0      	movs	r3, #192	; 0xc0
 8001dc4:	607b      	str	r3, [r7, #4]
  GPIO_InitStruct.Mode = LL_GPIO_MODE_ALTERNATE;
 8001dc6:	2302      	movs	r3, #2
 8001dc8:	60bb      	str	r3, [r7, #8]
  GPIO_InitStruct.Speed = LL_GPIO_SPEED_FREQ_HIGH;
 8001dca:	2303      	movs	r3, #3
 8001dcc:	60fb      	str	r3, [r7, #12]
  GPIO_InitStruct.OutputType = LL_GPIO_OUTPUT_OPENDRAIN;
 8001dce:	2301      	movs	r3, #1
 8001dd0:	613b      	str	r3, [r7, #16]
  GPIO_InitStruct.Pull = LL_GPIO_PULL_UP;
 8001dd2:	2301      	movs	r3, #1
 8001dd4:	617b      	str	r3, [r7, #20]
  GPIO_InitStruct.Alternate = LL_GPIO_AF_4;
 8001dd6:	2304      	movs	r3, #4
 8001dd8:	61bb      	str	r3, [r7, #24]
  LL_GPIO_Init(GPIOB, &GPIO_InitStruct);
 8001dda:	1d3b      	adds	r3, r7, #4
 8001ddc:	4619      	mov	r1, r3
 8001dde:	4821      	ldr	r0, [pc, #132]	; (8001e64 <MX_I2C1_Init+0xd4>)
 8001de0:	f7fe ffdd 	bl	8000d9e <LL_GPIO_Init>

  /* Peripheral clock enable */
  LL_APB1_GRP1_EnableClock(LL_APB1_GRP1_PERIPH_I2C1);
 8001de4:	f44f 1000 	mov.w	r0, #2097152	; 0x200000
 8001de8:	f7ff ffba 	bl	8001d60 <LL_APB1_GRP1_EnableClock>

  /* I2C1 interrupt Init */
  NVIC_SetPriority(I2C1_EV_IRQn, NVIC_EncodePriority(NVIC_GetPriorityGrouping(),0, 0));
 8001dec:	f7ff fdf8 	bl	80019e0 <NVIC_GetPriorityGrouping>
 8001df0:	4603      	mov	r3, r0
 8001df2:	2200      	movs	r2, #0
 8001df4:	2100      	movs	r1, #0
 8001df6:	4618      	mov	r0, r3
 8001df8:	f7ff fe44 	bl	8001a84 <NVIC_EncodePriority>
 8001dfc:	4603      	mov	r3, r0
 8001dfe:	4619      	mov	r1, r3
 8001e00:	201f      	movs	r0, #31
 8001e02:	f7ff fe15 	bl	8001a30 <NVIC_SetPriority>
  NVIC_EnableIRQ(I2C1_EV_IRQn);
 8001e06:	201f      	movs	r0, #31
 8001e08:	f7ff fdf8 	bl	80019fc <NVIC_EnableIRQ>

  /** I2C Initialization 
  */
  LL_I2C_EnableAutoEndMode(I2C1);
 8001e0c:	4816      	ldr	r0, [pc, #88]	; (8001e68 <MX_I2C1_Init+0xd8>)
 8001e0e:	f7ff ff3d 	bl	8001c8c <LL_I2C_EnableAutoEndMode>
  LL_I2C_DisableOwnAddress2(I2C1);
 8001e12:	4815      	ldr	r0, [pc, #84]	; (8001e68 <MX_I2C1_Init+0xd8>)
 8001e14:	f7ff feb1 	bl	8001b7a <LL_I2C_DisableOwnAddress2>
  LL_I2C_DisableGeneralCall(I2C1);
 8001e18:	4813      	ldr	r0, [pc, #76]	; (8001e68 <MX_I2C1_Init+0xd8>)
 8001e1a:	f7ff fe86 	bl	8001b2a <LL_I2C_DisableGeneralCall>
  LL_I2C_EnableClockStretching(I2C1);
 8001e1e:	4812      	ldr	r0, [pc, #72]	; (8001e68 <MX_I2C1_Init+0xd8>)
 8001e20:	f7ff fe73 	bl	8001b0a <LL_I2C_EnableClockStretching>

  I2C_InitStruct.PeripheralMode = LL_I2C_MODE_I2C;
 8001e24:	2300      	movs	r3, #0
 8001e26:	61fb      	str	r3, [r7, #28]
  I2C_InitStruct.Timing = 0x2000090E;
 8001e28:	4b10      	ldr	r3, [pc, #64]	; (8001e6c <MX_I2C1_Init+0xdc>)
 8001e2a:	623b      	str	r3, [r7, #32]
  I2C_InitStruct.AnalogFilter = LL_I2C_ANALOGFILTER_ENABLE;
 8001e2c:	2300      	movs	r3, #0
 8001e2e:	627b      	str	r3, [r7, #36]	; 0x24
  I2C_InitStruct.DigitalFilter = 0;
 8001e30:	2300      	movs	r3, #0
 8001e32:	62bb      	str	r3, [r7, #40]	; 0x28
  I2C_InitStruct.OwnAddress1 = 2;
 8001e34:	2302      	movs	r3, #2
 8001e36:	62fb      	str	r3, [r7, #44]	; 0x2c
  I2C_InitStruct.TypeAcknowledge = LL_I2C_ACK;
 8001e38:	2300      	movs	r3, #0
 8001e3a:	633b      	str	r3, [r7, #48]	; 0x30
  I2C_InitStruct.OwnAddrSize = LL_I2C_OWNADDRESS1_7BIT;
 8001e3c:	2300      	movs	r3, #0
 8001e3e:	637b      	str	r3, [r7, #52]	; 0x34
  LL_I2C_Init(I2C1, &I2C_InitStruct);
 8001e40:	f107 031c 	add.w	r3, r7, #28
 8001e44:	4619      	mov	r1, r3
 8001e46:	4808      	ldr	r0, [pc, #32]	; (8001e68 <MX_I2C1_Init+0xd8>)
 8001e48:	f7ff f8c6 	bl	8000fd8 <LL_I2C_Init>
  LL_I2C_SetOwnAddress2(I2C1, 0, LL_I2C_OWNADDRESS2_NOMASK);
 8001e4c:	2200      	movs	r2, #0
 8001e4e:	2100      	movs	r1, #0
 8001e50:	4805      	ldr	r0, [pc, #20]	; (8001e68 <MX_I2C1_Init+0xd8>)
 8001e52:	f7ff fe7a 	bl	8001b4a <LL_I2C_SetOwnAddress2>

  LL_I2C_Enable(I2C1);
 8001e56:	4804      	ldr	r0, [pc, #16]	; (8001e68 <MX_I2C1_Init+0xd8>)
 8001e58:	f7ff fe47 	bl	8001aea <LL_I2C_Enable>
}
 8001e5c:	bf00      	nop
 8001e5e:	3738      	adds	r7, #56	; 0x38
 8001e60:	46bd      	mov	sp, r7
 8001e62:	bd80      	pop	{r7, pc}
 8001e64:	48000400 	.word	0x48000400
 8001e68:	40005400 	.word	0x40005400
 8001e6c:	2000090e 	.word	0x2000090e

08001e70 <i2c_send_byte>:

void i2c_send_byte(uint8_t slave_address, uint8_t register_address, uint8_t data)
{
 8001e70:	b580      	push	{r7, lr}
 8001e72:	b084      	sub	sp, #16
 8001e74:	af02      	add	r7, sp, #8
 8001e76:	4603      	mov	r3, r0
 8001e78:	71fb      	strb	r3, [r7, #7]
 8001e7a:	460b      	mov	r3, r1
 8001e7c:	71bb      	strb	r3, [r7, #6]
 8001e7e:	4613      	mov	r3, r2
 8001e80:	717b      	strb	r3, [r7, #5]
	// Initialize communication
	LL_I2C_HandleTransfer(I2C1, slave_address, LL_I2C_ADDRSLAVE_7BIT, 2, LL_I2C_MODE_AUTOEND, LL_I2C_GENERATE_START_WRITE);
 8001e82:	79f9      	ldrb	r1, [r7, #7]
 8001e84:	4b13      	ldr	r3, [pc, #76]	; (8001ed4 <i2c_send_byte+0x64>)
 8001e86:	9301      	str	r3, [sp, #4]
 8001e88:	f04f 7300 	mov.w	r3, #33554432	; 0x2000000
 8001e8c:	9300      	str	r3, [sp, #0]
 8001e8e:	2302      	movs	r3, #2
 8001e90:	2200      	movs	r2, #0
 8001e92:	4811      	ldr	r0, [pc, #68]	; (8001ed8 <i2c_send_byte+0x68>)
 8001e94:	f7ff ff0a 	bl	8001cac <LL_I2C_HandleTransfer>
	LL_I2C_TransmitData8(I2C1, register_address);
 8001e98:	79bb      	ldrb	r3, [r7, #6]
 8001e9a:	4619      	mov	r1, r3
 8001e9c:	480e      	ldr	r0, [pc, #56]	; (8001ed8 <i2c_send_byte+0x68>)
 8001e9e:	f7ff ff38 	bl	8001d12 <LL_I2C_TransmitData8>

	while (!LL_I2C_IsActiveFlag_STOP(I2C1))
 8001ea2:	e00a      	b.n	8001eba <i2c_send_byte+0x4a>
	{
		if (LL_I2C_IsActiveFlag_TXIS(I2C1))
 8001ea4:	480c      	ldr	r0, [pc, #48]	; (8001ed8 <i2c_send_byte+0x68>)
 8001ea6:	f7ff fe98 	bl	8001bda <LL_I2C_IsActiveFlag_TXIS>
 8001eaa:	4603      	mov	r3, r0
 8001eac:	2b00      	cmp	r3, #0
 8001eae:	d004      	beq.n	8001eba <i2c_send_byte+0x4a>
	    {
			LL_I2C_TransmitData8(I2C1, data);
 8001eb0:	797b      	ldrb	r3, [r7, #5]
 8001eb2:	4619      	mov	r1, r3
 8001eb4:	4808      	ldr	r0, [pc, #32]	; (8001ed8 <i2c_send_byte+0x68>)
 8001eb6:	f7ff ff2c 	bl	8001d12 <LL_I2C_TransmitData8>
	while (!LL_I2C_IsActiveFlag_STOP(I2C1))
 8001eba:	4807      	ldr	r0, [pc, #28]	; (8001ed8 <i2c_send_byte+0x68>)
 8001ebc:	f7ff feb3 	bl	8001c26 <LL_I2C_IsActiveFlag_STOP>
 8001ec0:	4603      	mov	r3, r0
 8001ec2:	2b00      	cmp	r3, #0
 8001ec4:	d0ee      	beq.n	8001ea4 <i2c_send_byte+0x34>
	    }
	}
	LL_I2C_ClearFlag_STOP(I2C1);
 8001ec6:	4804      	ldr	r0, [pc, #16]	; (8001ed8 <i2c_send_byte+0x68>)
 8001ec8:	f7ff fed0 	bl	8001c6c <LL_I2C_ClearFlag_STOP>
}
 8001ecc:	bf00      	nop
 8001ece:	3708      	adds	r7, #8
 8001ed0:	46bd      	mov	sp, r7
 8001ed2:	bd80      	pop	{r7, pc}
 8001ed4:	80002000 	.word	0x80002000
 8001ed8:	40005400 	.word	0x40005400

08001edc <i2c_master_read_byte>:

uint8_t i2c_master_read_byte(uint8_t slave_address, uint8_t register_address)
{
 8001edc:	b580      	push	{r7, lr}
 8001ede:	b084      	sub	sp, #16
 8001ee0:	af02      	add	r7, sp, #8
 8001ee2:	4603      	mov	r3, r0
 8001ee4:	460a      	mov	r2, r1
 8001ee6:	71fb      	strb	r3, [r7, #7]
 8001ee8:	4613      	mov	r3, r2
 8001eea:	71bb      	strb	r3, [r7, #6]
	LL_I2C_EnableIT_RX(I2C1);
 8001eec:	4825      	ldr	r0, [pc, #148]	; (8001f84 <i2c_master_read_byte+0xa8>)
 8001eee:	f7ff fe54 	bl	8001b9a <LL_I2C_EnableIT_RX>
	// Initialize communication
	LL_I2C_HandleTransfer(I2C1, slave_address, LL_I2C_ADDRSLAVE_7BIT, 1, LL_I2C_MODE_AUTOEND, LL_I2C_GENERATE_START_WRITE);
 8001ef2:	79f9      	ldrb	r1, [r7, #7]
 8001ef4:	4b24      	ldr	r3, [pc, #144]	; (8001f88 <i2c_master_read_byte+0xac>)
 8001ef6:	9301      	str	r3, [sp, #4]
 8001ef8:	f04f 7300 	mov.w	r3, #33554432	; 0x2000000
 8001efc:	9300      	str	r3, [sp, #0]
 8001efe:	2301      	movs	r3, #1
 8001f00:	2200      	movs	r2, #0
 8001f02:	4820      	ldr	r0, [pc, #128]	; (8001f84 <i2c_master_read_byte+0xa8>)
 8001f04:	f7ff fed2 	bl	8001cac <LL_I2C_HandleTransfer>
	// Send register address
	while(!LL_I2C_IsActiveFlag_STOP(I2C1))
 8001f08:	e00a      	b.n	8001f20 <i2c_master_read_byte+0x44>
	{
		if(LL_I2C_IsActiveFlag_TXIS(I2C1))
 8001f0a:	481e      	ldr	r0, [pc, #120]	; (8001f84 <i2c_master_read_byte+0xa8>)
 8001f0c:	f7ff fe65 	bl	8001bda <LL_I2C_IsActiveFlag_TXIS>
 8001f10:	4603      	mov	r3, r0
 8001f12:	2b00      	cmp	r3, #0
 8001f14:	d004      	beq.n	8001f20 <i2c_master_read_byte+0x44>
		{
			LL_I2C_TransmitData8(I2C1, register_address);
 8001f16:	79bb      	ldrb	r3, [r7, #6]
 8001f18:	4619      	mov	r1, r3
 8001f1a:	481a      	ldr	r0, [pc, #104]	; (8001f84 <i2c_master_read_byte+0xa8>)
 8001f1c:	f7ff fef9 	bl	8001d12 <LL_I2C_TransmitData8>
	while(!LL_I2C_IsActiveFlag_STOP(I2C1))
 8001f20:	4818      	ldr	r0, [pc, #96]	; (8001f84 <i2c_master_read_byte+0xa8>)
 8001f22:	f7ff fe80 	bl	8001c26 <LL_I2C_IsActiveFlag_STOP>
 8001f26:	4603      	mov	r3, r0
 8001f28:	2b00      	cmp	r3, #0
 8001f2a:	d0ee      	beq.n	8001f0a <i2c_master_read_byte+0x2e>
		}
	}

	LL_I2C_ClearFlag_STOP(I2C1);
 8001f2c:	4815      	ldr	r0, [pc, #84]	; (8001f84 <i2c_master_read_byte+0xa8>)
 8001f2e:	f7ff fe9d 	bl	8001c6c <LL_I2C_ClearFlag_STOP>

	while(LL_I2C_IsActiveFlag_STOP(I2C1)){};
 8001f32:	bf00      	nop
 8001f34:	4813      	ldr	r0, [pc, #76]	; (8001f84 <i2c_master_read_byte+0xa8>)
 8001f36:	f7ff fe76 	bl	8001c26 <LL_I2C_IsActiveFlag_STOP>
 8001f3a:	4603      	mov	r3, r0
 8001f3c:	2b00      	cmp	r3, #0
 8001f3e:	d1f9      	bne.n	8001f34 <i2c_master_read_byte+0x58>

	// Receive data from slave device
	LL_I2C_HandleTransfer(I2C1, slave_address, LL_I2C_ADDRSLAVE_7BIT, 1, LL_I2C_MODE_AUTOEND, LL_I2C_GENERATE_START_READ);
 8001f40:	79f9      	ldrb	r1, [r7, #7]
 8001f42:	4b12      	ldr	r3, [pc, #72]	; (8001f8c <i2c_master_read_byte+0xb0>)
 8001f44:	9301      	str	r3, [sp, #4]
 8001f46:	f04f 7300 	mov.w	r3, #33554432	; 0x2000000
 8001f4a:	9300      	str	r3, [sp, #0]
 8001f4c:	2301      	movs	r3, #1
 8001f4e:	2200      	movs	r2, #0
 8001f50:	480c      	ldr	r0, [pc, #48]	; (8001f84 <i2c_master_read_byte+0xa8>)
 8001f52:	f7ff feab 	bl	8001cac <LL_I2C_HandleTransfer>

	while(!LL_I2C_IsActiveFlag_STOP(I2C1)){};
 8001f56:	bf00      	nop
 8001f58:	480a      	ldr	r0, [pc, #40]	; (8001f84 <i2c_master_read_byte+0xa8>)
 8001f5a:	f7ff fe64 	bl	8001c26 <LL_I2C_IsActiveFlag_STOP>
 8001f5e:	4603      	mov	r3, r0
 8001f60:	2b00      	cmp	r3, #0
 8001f62:	d0f9      	beq.n	8001f58 <i2c_master_read_byte+0x7c>

	//End of transfer
	LL_I2C_DisableIT_RX(I2C1);
 8001f64:	4807      	ldr	r0, [pc, #28]	; (8001f84 <i2c_master_read_byte+0xa8>)
 8001f66:	f7ff fe28 	bl	8001bba <LL_I2C_DisableIT_RX>
	LL_I2C_ClearFlag_STOP(I2C1);
 8001f6a:	4806      	ldr	r0, [pc, #24]	; (8001f84 <i2c_master_read_byte+0xa8>)
 8001f6c:	f7ff fe7e 	bl	8001c6c <LL_I2C_ClearFlag_STOP>
	LL_I2C_ClearFlag_NACK(I2C1);
 8001f70:	4804      	ldr	r0, [pc, #16]	; (8001f84 <i2c_master_read_byte+0xa8>)
 8001f72:	f7ff fe6b 	bl	8001c4c <LL_I2C_ClearFlag_NACK>

	return i2c_rx_data;
 8001f76:	4b06      	ldr	r3, [pc, #24]	; (8001f90 <i2c_master_read_byte+0xb4>)
 8001f78:	781b      	ldrb	r3, [r3, #0]
}
 8001f7a:	4618      	mov	r0, r3
 8001f7c:	3708      	adds	r7, #8
 8001f7e:	46bd      	mov	sp, r7
 8001f80:	bd80      	pop	{r7, pc}
 8001f82:	bf00      	nop
 8001f84:	40005400 	.word	0x40005400
 8001f88:	80002000 	.word	0x80002000
 8001f8c:	80002400 	.word	0x80002400
 8001f90:	200001ec 	.word	0x200001ec

08001f94 <I2C1_EV_IRQHandler>:

void I2C1_EV_IRQHandler(void)
{
 8001f94:	b580      	push	{r7, lr}
 8001f96:	af00      	add	r7, sp, #0
	// Check RXNE flag value in ISR register
	if(LL_I2C_IsActiveFlag_RXNE(I2C1))
 8001f98:	4807      	ldr	r0, [pc, #28]	; (8001fb8 <I2C1_EV_IRQHandler+0x24>)
 8001f9a:	f7ff fe31 	bl	8001c00 <LL_I2C_IsActiveFlag_RXNE>
 8001f9e:	4603      	mov	r3, r0
 8001fa0:	2b00      	cmp	r3, #0
 8001fa2:	d006      	beq.n	8001fb2 <I2C1_EV_IRQHandler+0x1e>
	{
		// Call function Master Reception Callback
		i2c_rx_data = LL_I2C_ReceiveData8(I2C1);
 8001fa4:	4804      	ldr	r0, [pc, #16]	; (8001fb8 <I2C1_EV_IRQHandler+0x24>)
 8001fa6:	f7ff fea7 	bl	8001cf8 <LL_I2C_ReceiveData8>
 8001faa:	4603      	mov	r3, r0
 8001fac:	461a      	mov	r2, r3
 8001fae:	4b03      	ldr	r3, [pc, #12]	; (8001fbc <I2C1_EV_IRQHandler+0x28>)
 8001fb0:	701a      	strb	r2, [r3, #0]
	}
}
 8001fb2:	bf00      	nop
 8001fb4:	bd80      	pop	{r7, pc}
 8001fb6:	bf00      	nop
 8001fb8:	40005400 	.word	0x40005400
 8001fbc:	200001ec 	.word	0x200001ec

08001fc0 <NVIC_SetPriorityGrouping>:
{
 8001fc0:	b480      	push	{r7}
 8001fc2:	b085      	sub	sp, #20
 8001fc4:	af00      	add	r7, sp, #0
 8001fc6:	6078      	str	r0, [r7, #4]
  uint32_t PriorityGroupTmp = (PriorityGroup & (uint32_t)0x07UL);             /* only values 0..7 are used          */
 8001fc8:	687b      	ldr	r3, [r7, #4]
 8001fca:	f003 0307 	and.w	r3, r3, #7
 8001fce:	60fb      	str	r3, [r7, #12]
  reg_value  =  SCB->AIRCR;                                                   /* read old register configuration    */
 8001fd0:	4b0c      	ldr	r3, [pc, #48]	; (8002004 <NVIC_SetPriorityGrouping+0x44>)
 8001fd2:	68db      	ldr	r3, [r3, #12]
 8001fd4:	60bb      	str	r3, [r7, #8]
  reg_value &= ~((uint32_t)(SCB_AIRCR_VECTKEY_Msk | SCB_AIRCR_PRIGROUP_Msk)); /* clear bits to change               */
 8001fd6:	68ba      	ldr	r2, [r7, #8]
 8001fd8:	f64f 03ff 	movw	r3, #63743	; 0xf8ff
 8001fdc:	4013      	ands	r3, r2
 8001fde:	60bb      	str	r3, [r7, #8]
                (PriorityGroupTmp << 8U)                      );              /* Insert write key and priorty group */
 8001fe0:	68fb      	ldr	r3, [r7, #12]
 8001fe2:	021a      	lsls	r2, r3, #8
                ((uint32_t)0x5FAUL << SCB_AIRCR_VECTKEY_Pos) |
 8001fe4:	68bb      	ldr	r3, [r7, #8]
 8001fe6:	4313      	orrs	r3, r2
  reg_value  =  (reg_value                                   |
 8001fe8:	f043 63bf 	orr.w	r3, r3, #100139008	; 0x5f80000
 8001fec:	f443 3300 	orr.w	r3, r3, #131072	; 0x20000
 8001ff0:	60bb      	str	r3, [r7, #8]
  SCB->AIRCR =  reg_value;
 8001ff2:	4a04      	ldr	r2, [pc, #16]	; (8002004 <NVIC_SetPriorityGrouping+0x44>)
 8001ff4:	68bb      	ldr	r3, [r7, #8]
 8001ff6:	60d3      	str	r3, [r2, #12]
}
 8001ff8:	bf00      	nop
 8001ffa:	3714      	adds	r7, #20
 8001ffc:	46bd      	mov	sp, r7
 8001ffe:	f85d 7b04 	ldr.w	r7, [sp], #4
 8002002:	4770      	bx	lr
 8002004:	e000ed00 	.word	0xe000ed00

08002008 <LL_RCC_HSI_Enable>:
{
 8002008:	b480      	push	{r7}
 800200a:	af00      	add	r7, sp, #0
  SET_BIT(RCC->CR, RCC_CR_HSION);
 800200c:	4b05      	ldr	r3, [pc, #20]	; (8002024 <LL_RCC_HSI_Enable+0x1c>)
 800200e:	681b      	ldr	r3, [r3, #0]
 8002010:	4a04      	ldr	r2, [pc, #16]	; (8002024 <LL_RCC_HSI_Enable+0x1c>)
 8002012:	f043 0301 	orr.w	r3, r3, #1
 8002016:	6013      	str	r3, [r2, #0]
}
 8002018:	bf00      	nop
 800201a:	46bd      	mov	sp, r7
 800201c:	f85d 7b04 	ldr.w	r7, [sp], #4
 8002020:	4770      	bx	lr
 8002022:	bf00      	nop
 8002024:	40021000 	.word	0x40021000

08002028 <LL_RCC_HSI_IsReady>:
{
 8002028:	b480      	push	{r7}
 800202a:	af00      	add	r7, sp, #0
  return (READ_BIT(RCC->CR, RCC_CR_HSIRDY) == (RCC_CR_HSIRDY));
 800202c:	4b06      	ldr	r3, [pc, #24]	; (8002048 <LL_RCC_HSI_IsReady+0x20>)
 800202e:	681b      	ldr	r3, [r3, #0]
 8002030:	f003 0302 	and.w	r3, r3, #2
 8002034:	2b02      	cmp	r3, #2
 8002036:	bf0c      	ite	eq
 8002038:	2301      	moveq	r3, #1
 800203a:	2300      	movne	r3, #0
 800203c:	b2db      	uxtb	r3, r3
}
 800203e:	4618      	mov	r0, r3
 8002040:	46bd      	mov	sp, r7
 8002042:	f85d 7b04 	ldr.w	r7, [sp], #4
 8002046:	4770      	bx	lr
 8002048:	40021000 	.word	0x40021000

0800204c <LL_RCC_HSI_SetCalibTrimming>:
{
 800204c:	b480      	push	{r7}
 800204e:	b083      	sub	sp, #12
 8002050:	af00      	add	r7, sp, #0
 8002052:	6078      	str	r0, [r7, #4]
  MODIFY_REG(RCC->CR, RCC_CR_HSITRIM, Value << RCC_CR_HSITRIM_Pos);
 8002054:	4b07      	ldr	r3, [pc, #28]	; (8002074 <LL_RCC_HSI_SetCalibTrimming+0x28>)
 8002056:	681b      	ldr	r3, [r3, #0]
 8002058:	f023 02f8 	bic.w	r2, r3, #248	; 0xf8
 800205c:	687b      	ldr	r3, [r7, #4]
 800205e:	00db      	lsls	r3, r3, #3
 8002060:	4904      	ldr	r1, [pc, #16]	; (8002074 <LL_RCC_HSI_SetCalibTrimming+0x28>)
 8002062:	4313      	orrs	r3, r2
 8002064:	600b      	str	r3, [r1, #0]
}
 8002066:	bf00      	nop
 8002068:	370c      	adds	r7, #12
 800206a:	46bd      	mov	sp, r7
 800206c:	f85d 7b04 	ldr.w	r7, [sp], #4
 8002070:	4770      	bx	lr
 8002072:	bf00      	nop
 8002074:	40021000 	.word	0x40021000

08002078 <LL_RCC_SetSysClkSource>:
{
 8002078:	b480      	push	{r7}
 800207a:	b083      	sub	sp, #12
 800207c:	af00      	add	r7, sp, #0
 800207e:	6078      	str	r0, [r7, #4]
  MODIFY_REG(RCC->CFGR, RCC_CFGR_SW, Source);
 8002080:	4b06      	ldr	r3, [pc, #24]	; (800209c <LL_RCC_SetSysClkSource+0x24>)
 8002082:	685b      	ldr	r3, [r3, #4]
 8002084:	f023 0203 	bic.w	r2, r3, #3
 8002088:	4904      	ldr	r1, [pc, #16]	; (800209c <LL_RCC_SetSysClkSource+0x24>)
 800208a:	687b      	ldr	r3, [r7, #4]
 800208c:	4313      	orrs	r3, r2
 800208e:	604b      	str	r3, [r1, #4]
}
 8002090:	bf00      	nop
 8002092:	370c      	adds	r7, #12
 8002094:	46bd      	mov	sp, r7
 8002096:	f85d 7b04 	ldr.w	r7, [sp], #4
 800209a:	4770      	bx	lr
 800209c:	40021000 	.word	0x40021000

080020a0 <LL_RCC_GetSysClkSource>:
{
 80020a0:	b480      	push	{r7}
 80020a2:	af00      	add	r7, sp, #0
  return (uint32_t)(READ_BIT(RCC->CFGR, RCC_CFGR_SWS));
 80020a4:	4b04      	ldr	r3, [pc, #16]	; (80020b8 <LL_RCC_GetSysClkSource+0x18>)
 80020a6:	685b      	ldr	r3, [r3, #4]
 80020a8:	f003 030c 	and.w	r3, r3, #12
}
 80020ac:	4618      	mov	r0, r3
 80020ae:	46bd      	mov	sp, r7
 80020b0:	f85d 7b04 	ldr.w	r7, [sp], #4
 80020b4:	4770      	bx	lr
 80020b6:	bf00      	nop
 80020b8:	40021000 	.word	0x40021000

080020bc <LL_RCC_SetAHBPrescaler>:
{
 80020bc:	b480      	push	{r7}
 80020be:	b083      	sub	sp, #12
 80020c0:	af00      	add	r7, sp, #0
 80020c2:	6078      	str	r0, [r7, #4]
  MODIFY_REG(RCC->CFGR, RCC_CFGR_HPRE, Prescaler);
 80020c4:	4b06      	ldr	r3, [pc, #24]	; (80020e0 <LL_RCC_SetAHBPrescaler+0x24>)
 80020c6:	685b      	ldr	r3, [r3, #4]
 80020c8:	f023 02f0 	bic.w	r2, r3, #240	; 0xf0
 80020cc:	4904      	ldr	r1, [pc, #16]	; (80020e0 <LL_RCC_SetAHBPrescaler+0x24>)
 80020ce:	687b      	ldr	r3, [r7, #4]
 80020d0:	4313      	orrs	r3, r2
 80020d2:	604b      	str	r3, [r1, #4]
}
 80020d4:	bf00      	nop
 80020d6:	370c      	adds	r7, #12
 80020d8:	46bd      	mov	sp, r7
 80020da:	f85d 7b04 	ldr.w	r7, [sp], #4
 80020de:	4770      	bx	lr
 80020e0:	40021000 	.word	0x40021000

080020e4 <LL_RCC_SetAPB1Prescaler>:
{
 80020e4:	b480      	push	{r7}
 80020e6:	b083      	sub	sp, #12
 80020e8:	af00      	add	r7, sp, #0
 80020ea:	6078      	str	r0, [r7, #4]
  MODIFY_REG(RCC->CFGR, RCC_CFGR_PPRE1, Prescaler);
 80020ec:	4b06      	ldr	r3, [pc, #24]	; (8002108 <LL_RCC_SetAPB1Prescaler+0x24>)
 80020ee:	685b      	ldr	r3, [r3, #4]
 80020f0:	f423 62e0 	bic.w	r2, r3, #1792	; 0x700
 80020f4:	4904      	ldr	r1, [pc, #16]	; (8002108 <LL_RCC_SetAPB1Prescaler+0x24>)
 80020f6:	687b      	ldr	r3, [r7, #4]
 80020f8:	4313      	orrs	r3, r2
 80020fa:	604b      	str	r3, [r1, #4]
}
 80020fc:	bf00      	nop
 80020fe:	370c      	adds	r7, #12
 8002100:	46bd      	mov	sp, r7
 8002102:	f85d 7b04 	ldr.w	r7, [sp], #4
 8002106:	4770      	bx	lr
 8002108:	40021000 	.word	0x40021000

0800210c <LL_RCC_SetAPB2Prescaler>:
{
 800210c:	b480      	push	{r7}
 800210e:	b083      	sub	sp, #12
 8002110:	af00      	add	r7, sp, #0
 8002112:	6078      	str	r0, [r7, #4]
  MODIFY_REG(RCC->CFGR, RCC_CFGR_PPRE2, Prescaler);
 8002114:	4b06      	ldr	r3, [pc, #24]	; (8002130 <LL_RCC_SetAPB2Prescaler+0x24>)
 8002116:	685b      	ldr	r3, [r3, #4]
 8002118:	f423 5260 	bic.w	r2, r3, #14336	; 0x3800
 800211c:	4904      	ldr	r1, [pc, #16]	; (8002130 <LL_RCC_SetAPB2Prescaler+0x24>)
 800211e:	687b      	ldr	r3, [r7, #4]
 8002120:	4313      	orrs	r3, r2
 8002122:	604b      	str	r3, [r1, #4]
}
 8002124:	bf00      	nop
 8002126:	370c      	adds	r7, #12
 8002128:	46bd      	mov	sp, r7
 800212a:	f85d 7b04 	ldr.w	r7, [sp], #4
 800212e:	4770      	bx	lr
 8002130:	40021000 	.word	0x40021000

08002134 <LL_RCC_SetI2CClockSource>:
{
 8002134:	b480      	push	{r7}
 8002136:	b083      	sub	sp, #12
 8002138:	af00      	add	r7, sp, #0
 800213a:	6078      	str	r0, [r7, #4]
  MODIFY_REG(RCC->CFGR3, ((I2CxSource  & 0xFF000000U) >> 24U), (I2CxSource & 0x00FFFFFFU));
 800213c:	4b08      	ldr	r3, [pc, #32]	; (8002160 <LL_RCC_SetI2CClockSource+0x2c>)
 800213e:	6b1a      	ldr	r2, [r3, #48]	; 0x30
 8002140:	687b      	ldr	r3, [r7, #4]
 8002142:	0e1b      	lsrs	r3, r3, #24
 8002144:	43db      	mvns	r3, r3
 8002146:	401a      	ands	r2, r3
 8002148:	687b      	ldr	r3, [r7, #4]
 800214a:	f023 437f 	bic.w	r3, r3, #4278190080	; 0xff000000
 800214e:	4904      	ldr	r1, [pc, #16]	; (8002160 <LL_RCC_SetI2CClockSource+0x2c>)
 8002150:	4313      	orrs	r3, r2
 8002152:	630b      	str	r3, [r1, #48]	; 0x30
}
 8002154:	bf00      	nop
 8002156:	370c      	adds	r7, #12
 8002158:	46bd      	mov	sp, r7
 800215a:	f85d 7b04 	ldr.w	r7, [sp], #4
 800215e:	4770      	bx	lr
 8002160:	40021000 	.word	0x40021000

08002164 <LL_APB1_GRP1_EnableClock>:
{
 8002164:	b480      	push	{r7}
 8002166:	b085      	sub	sp, #20
 8002168:	af00      	add	r7, sp, #0
 800216a:	6078      	str	r0, [r7, #4]
  SET_BIT(RCC->APB1ENR, Periphs);
 800216c:	4b08      	ldr	r3, [pc, #32]	; (8002190 <LL_APB1_GRP1_EnableClock+0x2c>)
 800216e:	69da      	ldr	r2, [r3, #28]
 8002170:	4907      	ldr	r1, [pc, #28]	; (8002190 <LL_APB1_GRP1_EnableClock+0x2c>)
 8002172:	687b      	ldr	r3, [r7, #4]
 8002174:	4313      	orrs	r3, r2
 8002176:	61cb      	str	r3, [r1, #28]
  tmpreg = READ_BIT(RCC->APB1ENR, Periphs);
 8002178:	4b05      	ldr	r3, [pc, #20]	; (8002190 <LL_APB1_GRP1_EnableClock+0x2c>)
 800217a:	69da      	ldr	r2, [r3, #28]
 800217c:	687b      	ldr	r3, [r7, #4]
 800217e:	4013      	ands	r3, r2
 8002180:	60fb      	str	r3, [r7, #12]
  (void)tmpreg;
 8002182:	68fb      	ldr	r3, [r7, #12]
}
 8002184:	bf00      	nop
 8002186:	3714      	adds	r7, #20
 8002188:	46bd      	mov	sp, r7
 800218a:	f85d 7b04 	ldr.w	r7, [sp], #4
 800218e:	4770      	bx	lr
 8002190:	40021000 	.word	0x40021000

08002194 <LL_APB2_GRP1_EnableClock>:
  *
  *         (*) value not defined in all devices.
  * @retval None
*/
__STATIC_INLINE void LL_APB2_GRP1_EnableClock(uint32_t Periphs)
{
 8002194:	b480      	push	{r7}
 8002196:	b085      	sub	sp, #20
 8002198:	af00      	add	r7, sp, #0
 800219a:	6078      	str	r0, [r7, #4]
  __IO uint32_t tmpreg;
  SET_BIT(RCC->APB2ENR, Periphs);
 800219c:	4b08      	ldr	r3, [pc, #32]	; (80021c0 <LL_APB2_GRP1_EnableClock+0x2c>)
 800219e:	699a      	ldr	r2, [r3, #24]
 80021a0:	4907      	ldr	r1, [pc, #28]	; (80021c0 <LL_APB2_GRP1_EnableClock+0x2c>)
 80021a2:	687b      	ldr	r3, [r7, #4]
 80021a4:	4313      	orrs	r3, r2
 80021a6:	618b      	str	r3, [r1, #24]
  /* Delay after an RCC peripheral clock enabling */
  tmpreg = READ_BIT(RCC->APB2ENR, Periphs);
 80021a8:	4b05      	ldr	r3, [pc, #20]	; (80021c0 <LL_APB2_GRP1_EnableClock+0x2c>)
 80021aa:	699a      	ldr	r2, [r3, #24]
 80021ac:	687b      	ldr	r3, [r7, #4]
 80021ae:	4013      	ands	r3, r2
 80021b0:	60fb      	str	r3, [r7, #12]
  (void)tmpreg;
 80021b2:	68fb      	ldr	r3, [r7, #12]
}
 80021b4:	bf00      	nop
 80021b6:	3714      	adds	r7, #20
 80021b8:	46bd      	mov	sp, r7
 80021ba:	f85d 7b04 	ldr.w	r7, [sp], #4
 80021be:	4770      	bx	lr
 80021c0:	40021000 	.word	0x40021000

080021c4 <LL_FLASH_SetLatency>:
  *         @arg @ref LL_FLASH_LATENCY_1
  *         @arg @ref LL_FLASH_LATENCY_2
  * @retval None
  */
__STATIC_INLINE void LL_FLASH_SetLatency(uint32_t Latency)
{
 80021c4:	b480      	push	{r7}
 80021c6:	b083      	sub	sp, #12
 80021c8:	af00      	add	r7, sp, #0
 80021ca:	6078      	str	r0, [r7, #4]
  MODIFY_REG(FLASH->ACR, FLASH_ACR_LATENCY, Latency);
 80021cc:	4b06      	ldr	r3, [pc, #24]	; (80021e8 <LL_FLASH_SetLatency+0x24>)
 80021ce:	681b      	ldr	r3, [r3, #0]
 80021d0:	f023 0207 	bic.w	r2, r3, #7
 80021d4:	4904      	ldr	r1, [pc, #16]	; (80021e8 <LL_FLASH_SetLatency+0x24>)
 80021d6:	687b      	ldr	r3, [r7, #4]
 80021d8:	4313      	orrs	r3, r2
 80021da:	600b      	str	r3, [r1, #0]
}
 80021dc:	bf00      	nop
 80021de:	370c      	adds	r7, #12
 80021e0:	46bd      	mov	sp, r7
 80021e2:	f85d 7b04 	ldr.w	r7, [sp], #4
 80021e6:	4770      	bx	lr
 80021e8:	40022000 	.word	0x40022000

080021ec <LL_FLASH_GetLatency>:
  *         @arg @ref LL_FLASH_LATENCY_0
  *         @arg @ref LL_FLASH_LATENCY_1
  *         @arg @ref LL_FLASH_LATENCY_2
  */
__STATIC_INLINE uint32_t LL_FLASH_GetLatency(void)
{
 80021ec:	b480      	push	{r7}
 80021ee:	af00      	add	r7, sp, #0
  return (uint32_t)(READ_BIT(FLASH->ACR, FLASH_ACR_LATENCY));
 80021f0:	4b04      	ldr	r3, [pc, #16]	; (8002204 <LL_FLASH_GetLatency+0x18>)
 80021f2:	681b      	ldr	r3, [r3, #0]
 80021f4:	f003 0307 	and.w	r3, r3, #7
}
 80021f8:	4618      	mov	r0, r3
 80021fa:	46bd      	mov	sp, r7
 80021fc:	f85d 7b04 	ldr.w	r7, [sp], #4
 8002200:	4770      	bx	lr
 8002202:	bf00      	nop
 8002204:	40022000 	.word	0x40022000

08002208 <LL_SYSTICK_SetClkSource>:
  *         @arg @ref LL_SYSTICK_CLKSOURCE_HCLK_DIV8
  *         @arg @ref LL_SYSTICK_CLKSOURCE_HCLK
  * @retval None
  */
__STATIC_INLINE void LL_SYSTICK_SetClkSource(uint32_t Source)
{
 8002208:	b480      	push	{r7}
 800220a:	b083      	sub	sp, #12
 800220c:	af00      	add	r7, sp, #0
 800220e:	6078      	str	r0, [r7, #4]
  if (Source == LL_SYSTICK_CLKSOURCE_HCLK)
 8002210:	687b      	ldr	r3, [r7, #4]
 8002212:	2b04      	cmp	r3, #4
 8002214:	d106      	bne.n	8002224 <LL_SYSTICK_SetClkSource+0x1c>
  {
    SET_BIT(SysTick->CTRL, LL_SYSTICK_CLKSOURCE_HCLK);
 8002216:	4b09      	ldr	r3, [pc, #36]	; (800223c <LL_SYSTICK_SetClkSource+0x34>)
 8002218:	681b      	ldr	r3, [r3, #0]
 800221a:	4a08      	ldr	r2, [pc, #32]	; (800223c <LL_SYSTICK_SetClkSource+0x34>)
 800221c:	f043 0304 	orr.w	r3, r3, #4
 8002220:	6013      	str	r3, [r2, #0]
  }
  else
  {
    CLEAR_BIT(SysTick->CTRL, LL_SYSTICK_CLKSOURCE_HCLK);
  }
}
 8002222:	e005      	b.n	8002230 <LL_SYSTICK_SetClkSource+0x28>
    CLEAR_BIT(SysTick->CTRL, LL_SYSTICK_CLKSOURCE_HCLK);
 8002224:	4b05      	ldr	r3, [pc, #20]	; (800223c <LL_SYSTICK_SetClkSource+0x34>)
 8002226:	681b      	ldr	r3, [r3, #0]
 8002228:	4a04      	ldr	r2, [pc, #16]	; (800223c <LL_SYSTICK_SetClkSource+0x34>)
 800222a:	f023 0304 	bic.w	r3, r3, #4
 800222e:	6013      	str	r3, [r2, #0]
}
 8002230:	bf00      	nop
 8002232:	370c      	adds	r7, #12
 8002234:	46bd      	mov	sp, r7
 8002236:	f85d 7b04 	ldr.w	r7, [sp], #4
 800223a:	4770      	bx	lr
 800223c:	e000e010 	.word	0xe000e010

08002240 <main>:

void SystemClock_Config(void);


int main(void)
{
 8002240:	e92d 4fb0 	stmdb	sp!, {r4, r5, r7, r8, r9, sl, fp, lr}
 8002244:	b08a      	sub	sp, #40	; 0x28
 8002246:	af06      	add	r7, sp, #24
  LL_APB2_GRP1_EnableClock(LL_APB2_GRP1_PERIPH_SYSCFG);
 8002248:	2001      	movs	r0, #1
 800224a:	f7ff ffa3 	bl	8002194 <LL_APB2_GRP1_EnableClock>
  LL_APB1_GRP1_EnableClock(LL_APB1_GRP1_PERIPH_PWR);
 800224e:	f04f 5080 	mov.w	r0, #268435456	; 0x10000000
 8002252:	f7ff ff87 	bl	8002164 <LL_APB1_GRP1_EnableClock>

  NVIC_SetPriorityGrouping(NVIC_PRIORITYGROUP_4);
 8002256:	2003      	movs	r0, #3
 8002258:	f7ff feb2 	bl	8001fc0 <NVIC_SetPriorityGrouping>

  SystemClock_Config();
 800225c:	f000 f856 	bl	800230c <SystemClock_Config>

  MX_GPIO_Init();
 8002260:	f7ff fbaa 	bl	80019b8 <MX_GPIO_Init>
  MX_I2C1_Init();
 8002264:	f7ff fd94 	bl	8001d90 <MX_I2C1_Init>

  MX_DMA_Init();
 8002268:	f7ff fb3c 	bl	80018e4 <MX_DMA_Init>
  MX_USART2_UART_Init();
 800226c:	f000 fe16 	bl	8002e9c <MX_USART2_UART_Init>

  lpsInit();
 8002270:	f7ff fa44 	bl	80016fc <lpsInit>
  htsInit();
 8002274:	f7ff f9d4 	bl	8001620 <htsInit>

  float temp = 0;
 8002278:	f04f 0300 	mov.w	r3, #0
 800227c:	60fb      	str	r3, [r7, #12]
  float hum = 0;
 800227e:	f04f 0300 	mov.w	r3, #0
 8002282:	60bb      	str	r3, [r7, #8]
  float pressure = 0;
 8002284:	f04f 0300 	mov.w	r3, #0
 8002288:	607b      	str	r3, [r7, #4]
  float height = 0;
 800228a:	f04f 0300 	mov.w	r3, #0
 800228e:	603b      	str	r3, [r7, #0]

  while (1)
  {
	  temp = getTemp();
 8002290:	f7ff f9d4 	bl	800163c <getTemp>
 8002294:	ed87 0a03 	vstr	s0, [r7, #12]
	  hum = getHum();
 8002298:	f7ff f9f8 	bl	800168c <getHum>
 800229c:	ed87 0a02 	vstr	s0, [r7, #8]
	  pressure = getPressure();
 80022a0:	f7ff fa84 	bl	80017ac <getPressure>
 80022a4:	ed87 0a01 	vstr	s0, [r7, #4]
	  height = calculateHeight();
 80022a8:	f7ff fa36 	bl	8001718 <calculateHeight>
 80022ac:	ed87 0a00 	vstr	s0, [r7]
	  sprintf(tx_data, "Teplota [C]: %.2f, relat. vlhkos [%%]: %.2f, tlak vzduchu [hPa]: %.2f, relat. vka od zeme [m]: %.2f;\n\r", temp, hum, pressure, height);
 80022b0:	68f8      	ldr	r0, [r7, #12]
 80022b2:	f7fe f949 	bl	8000548 <__aeabi_f2d>
 80022b6:	4682      	mov	sl, r0
 80022b8:	468b      	mov	fp, r1
 80022ba:	68b8      	ldr	r0, [r7, #8]
 80022bc:	f7fe f944 	bl	8000548 <__aeabi_f2d>
 80022c0:	4604      	mov	r4, r0
 80022c2:	460d      	mov	r5, r1
 80022c4:	6878      	ldr	r0, [r7, #4]
 80022c6:	f7fe f93f 	bl	8000548 <__aeabi_f2d>
 80022ca:	4680      	mov	r8, r0
 80022cc:	4689      	mov	r9, r1
 80022ce:	6838      	ldr	r0, [r7, #0]
 80022d0:	f7fe f93a 	bl	8000548 <__aeabi_f2d>
 80022d4:	4602      	mov	r2, r0
 80022d6:	460b      	mov	r3, r1
 80022d8:	e9cd 2304 	strd	r2, r3, [sp, #16]
 80022dc:	e9cd 8902 	strd	r8, r9, [sp, #8]
 80022e0:	e9cd 4500 	strd	r4, r5, [sp]
 80022e4:	4652      	mov	r2, sl
 80022e6:	465b      	mov	r3, fp
 80022e8:	4906      	ldr	r1, [pc, #24]	; (8002304 <main+0xc4>)
 80022ea:	4807      	ldr	r0, [pc, #28]	; (8002308 <main+0xc8>)
 80022ec:	f001 fc8c 	bl	8003c08 <siprintf>
	  USART2_PutBuffer(tx_data, sizeof(tx_data));
 80022f0:	21f4      	movs	r1, #244	; 0xf4
 80022f2:	4805      	ldr	r0, [pc, #20]	; (8002308 <main+0xc8>)
 80022f4:	f000 feb6 	bl	8003064 <USART2_PutBuffer>
	  LL_mDelay(1000);
 80022f8:	f44f 707a 	mov.w	r0, #1000	; 0x3e8
 80022fc:	f7ff f94c 	bl	8001598 <LL_mDelay>
  {
 8002300:	e7c6      	b.n	8002290 <main+0x50>
 8002302:	bf00      	nop
 8002304:	08006660 	.word	0x08006660
 8002308:	200001f0 	.word	0x200001f0

0800230c <SystemClock_Config>:
/**
  * @brief System Clock Configuration
  * @retval None
  */
void SystemClock_Config(void)
{
 800230c:	b580      	push	{r7, lr}
 800230e:	af00      	add	r7, sp, #0
  LL_FLASH_SetLatency(LL_FLASH_LATENCY_0);
 8002310:	2000      	movs	r0, #0
 8002312:	f7ff ff57 	bl	80021c4 <LL_FLASH_SetLatency>

  if(LL_FLASH_GetLatency() != LL_FLASH_LATENCY_0)
 8002316:	f7ff ff69 	bl	80021ec <LL_FLASH_GetLatency>
 800231a:	4603      	mov	r3, r0
 800231c:	2b00      	cmp	r3, #0
 800231e:	d001      	beq.n	8002324 <SystemClock_Config+0x18>
  {
  Error_Handler();  
 8002320:	f000 f82e 	bl	8002380 <Error_Handler>
  }
  LL_RCC_HSI_Enable();
 8002324:	f7ff fe70 	bl	8002008 <LL_RCC_HSI_Enable>

   /* Wait till HSI is ready */
  while(LL_RCC_HSI_IsReady() != 1)
 8002328:	bf00      	nop
 800232a:	f7ff fe7d 	bl	8002028 <LL_RCC_HSI_IsReady>
 800232e:	4603      	mov	r3, r0
 8002330:	2b01      	cmp	r3, #1
 8002332:	d1fa      	bne.n	800232a <SystemClock_Config+0x1e>
  {
    
  }
  LL_RCC_HSI_SetCalibTrimming(16);
 8002334:	2010      	movs	r0, #16
 8002336:	f7ff fe89 	bl	800204c <LL_RCC_HSI_SetCalibTrimming>
  LL_RCC_SetAHBPrescaler(LL_RCC_SYSCLK_DIV_1);
 800233a:	2000      	movs	r0, #0
 800233c:	f7ff febe 	bl	80020bc <LL_RCC_SetAHBPrescaler>
  LL_RCC_SetAPB1Prescaler(LL_RCC_APB1_DIV_1);
 8002340:	2000      	movs	r0, #0
 8002342:	f7ff fecf 	bl	80020e4 <LL_RCC_SetAPB1Prescaler>
  LL_RCC_SetAPB2Prescaler(LL_RCC_APB1_DIV_1);
 8002346:	2000      	movs	r0, #0
 8002348:	f7ff fee0 	bl	800210c <LL_RCC_SetAPB2Prescaler>
  LL_RCC_SetSysClkSource(LL_RCC_SYS_CLKSOURCE_HSI);
 800234c:	2000      	movs	r0, #0
 800234e:	f7ff fe93 	bl	8002078 <LL_RCC_SetSysClkSource>

   /* Wait till System clock is ready */
  while(LL_RCC_GetSysClkSource() != LL_RCC_SYS_CLKSOURCE_STATUS_HSI)
 8002352:	bf00      	nop
 8002354:	f7ff fea4 	bl	80020a0 <LL_RCC_GetSysClkSource>
 8002358:	4603      	mov	r3, r0
 800235a:	2b00      	cmp	r3, #0
 800235c:	d1fa      	bne.n	8002354 <SystemClock_Config+0x48>
  {
  
  }
  LL_Init1msTick(8000000);
 800235e:	4807      	ldr	r0, [pc, #28]	; (800237c <SystemClock_Config+0x70>)
 8002360:	f7ff f90c 	bl	800157c <LL_Init1msTick>
  LL_SYSTICK_SetClkSource(LL_SYSTICK_CLKSOURCE_HCLK);
 8002364:	2004      	movs	r0, #4
 8002366:	f7ff ff4f 	bl	8002208 <LL_SYSTICK_SetClkSource>
  LL_SetSystemCoreClock(8000000);
 800236a:	4804      	ldr	r0, [pc, #16]	; (800237c <SystemClock_Config+0x70>)
 800236c:	f7ff f93a 	bl	80015e4 <LL_SetSystemCoreClock>
  LL_RCC_SetI2CClockSource(LL_RCC_I2C1_CLKSOURCE_HSI);
 8002370:	f04f 5080 	mov.w	r0, #268435456	; 0x10000000
 8002374:	f7ff fede 	bl	8002134 <LL_RCC_SetI2CClockSource>
}
 8002378:	bf00      	nop
 800237a:	bd80      	pop	{r7, pc}
 800237c:	007a1200 	.word	0x007a1200

08002380 <Error_Handler>:
/**
  * @brief  This function is executed in case of error occurrence.
  * @retval None
  */
void Error_Handler(void)
{
 8002380:	b480      	push	{r7}
 8002382:	af00      	add	r7, sp, #0
  /* USER CODE BEGIN Error_Handler_Debug */
  /* User can add his own implementation to report the HAL error return state */

  /* USER CODE END Error_Handler_Debug */
}
 8002384:	bf00      	nop
 8002386:	46bd      	mov	sp, r7
 8002388:	f85d 7b04 	ldr.w	r7, [sp], #4
 800238c:	4770      	bx	lr
	...

08002390 <LL_DMA_DisableChannel>:
  *         @arg @ref LL_DMA_CHANNEL_6
  *         @arg @ref LL_DMA_CHANNEL_7
  * @retval None
  */
__STATIC_INLINE void LL_DMA_DisableChannel(DMA_TypeDef *DMAx, uint32_t Channel)
{
 8002390:	b480      	push	{r7}
 8002392:	b083      	sub	sp, #12
 8002394:	af00      	add	r7, sp, #0
 8002396:	6078      	str	r0, [r7, #4]
 8002398:	6039      	str	r1, [r7, #0]
  CLEAR_BIT(((DMA_Channel_TypeDef *)((uint32_t)((uint32_t)DMAx + CHANNEL_OFFSET_TAB[Channel - 1U])))->CCR, DMA_CCR_EN);
 800239a:	683b      	ldr	r3, [r7, #0]
 800239c:	3b01      	subs	r3, #1
 800239e:	4a0b      	ldr	r2, [pc, #44]	; (80023cc <LL_DMA_DisableChannel+0x3c>)
 80023a0:	5cd3      	ldrb	r3, [r2, r3]
 80023a2:	461a      	mov	r2, r3
 80023a4:	687b      	ldr	r3, [r7, #4]
 80023a6:	4413      	add	r3, r2
 80023a8:	681b      	ldr	r3, [r3, #0]
 80023aa:	683a      	ldr	r2, [r7, #0]
 80023ac:	3a01      	subs	r2, #1
 80023ae:	4907      	ldr	r1, [pc, #28]	; (80023cc <LL_DMA_DisableChannel+0x3c>)
 80023b0:	5c8a      	ldrb	r2, [r1, r2]
 80023b2:	4611      	mov	r1, r2
 80023b4:	687a      	ldr	r2, [r7, #4]
 80023b6:	440a      	add	r2, r1
 80023b8:	f023 0301 	bic.w	r3, r3, #1
 80023bc:	6013      	str	r3, [r2, #0]
}
 80023be:	bf00      	nop
 80023c0:	370c      	adds	r7, #12
 80023c2:	46bd      	mov	sp, r7
 80023c4:	f85d 7b04 	ldr.w	r7, [sp], #4
 80023c8:	4770      	bx	lr
 80023ca:	bf00      	nop
 80023cc:	080066d0 	.word	0x080066d0

080023d0 <LL_DMA_IsActiveFlag_TC6>:
  * @rmtoll ISR          TCIF6         LL_DMA_IsActiveFlag_TC6
  * @param  DMAx DMAx Instance
  * @retval State of bit (1 or 0).
  */
__STATIC_INLINE uint32_t LL_DMA_IsActiveFlag_TC6(DMA_TypeDef *DMAx)
{
 80023d0:	b480      	push	{r7}
 80023d2:	b083      	sub	sp, #12
 80023d4:	af00      	add	r7, sp, #0
 80023d6:	6078      	str	r0, [r7, #4]
  return (READ_BIT(DMAx->ISR, DMA_ISR_TCIF6) == (DMA_ISR_TCIF6));
 80023d8:	687b      	ldr	r3, [r7, #4]
 80023da:	681b      	ldr	r3, [r3, #0]
 80023dc:	f403 1300 	and.w	r3, r3, #2097152	; 0x200000
 80023e0:	f5b3 1f00 	cmp.w	r3, #2097152	; 0x200000
 80023e4:	bf0c      	ite	eq
 80023e6:	2301      	moveq	r3, #1
 80023e8:	2300      	movne	r3, #0
 80023ea:	b2db      	uxtb	r3, r3
}
 80023ec:	4618      	mov	r0, r3
 80023ee:	370c      	adds	r7, #12
 80023f0:	46bd      	mov	sp, r7
 80023f2:	f85d 7b04 	ldr.w	r7, [sp], #4
 80023f6:	4770      	bx	lr

080023f8 <LL_DMA_IsActiveFlag_TC7>:
  * @rmtoll ISR          TCIF7         LL_DMA_IsActiveFlag_TC7
  * @param  DMAx DMAx Instance
  * @retval State of bit (1 or 0).
  */
__STATIC_INLINE uint32_t LL_DMA_IsActiveFlag_TC7(DMA_TypeDef *DMAx)
{
 80023f8:	b480      	push	{r7}
 80023fa:	b083      	sub	sp, #12
 80023fc:	af00      	add	r7, sp, #0
 80023fe:	6078      	str	r0, [r7, #4]
  return (READ_BIT(DMAx->ISR, DMA_ISR_TCIF7) == (DMA_ISR_TCIF7));
 8002400:	687b      	ldr	r3, [r7, #4]
 8002402:	681b      	ldr	r3, [r3, #0]
 8002404:	f003 7300 	and.w	r3, r3, #33554432	; 0x2000000
 8002408:	f1b3 7f00 	cmp.w	r3, #33554432	; 0x2000000
 800240c:	bf0c      	ite	eq
 800240e:	2301      	moveq	r3, #1
 8002410:	2300      	movne	r3, #0
 8002412:	b2db      	uxtb	r3, r3
}
 8002414:	4618      	mov	r0, r3
 8002416:	370c      	adds	r7, #12
 8002418:	46bd      	mov	sp, r7
 800241a:	f85d 7b04 	ldr.w	r7, [sp], #4
 800241e:	4770      	bx	lr

08002420 <LL_DMA_IsActiveFlag_HT6>:
  * @rmtoll ISR          HTIF6         LL_DMA_IsActiveFlag_HT6
  * @param  DMAx DMAx Instance
  * @retval State of bit (1 or 0).
  */
__STATIC_INLINE uint32_t LL_DMA_IsActiveFlag_HT6(DMA_TypeDef *DMAx)
{
 8002420:	b480      	push	{r7}
 8002422:	b083      	sub	sp, #12
 8002424:	af00      	add	r7, sp, #0
 8002426:	6078      	str	r0, [r7, #4]
  return (READ_BIT(DMAx->ISR, DMA_ISR_HTIF6) == (DMA_ISR_HTIF6));
 8002428:	687b      	ldr	r3, [r7, #4]
 800242a:	681b      	ldr	r3, [r3, #0]
 800242c:	f403 0380 	and.w	r3, r3, #4194304	; 0x400000
 8002430:	f5b3 0f80 	cmp.w	r3, #4194304	; 0x400000
 8002434:	bf0c      	ite	eq
 8002436:	2301      	moveq	r3, #1
 8002438:	2300      	movne	r3, #0
 800243a:	b2db      	uxtb	r3, r3
}
 800243c:	4618      	mov	r0, r3
 800243e:	370c      	adds	r7, #12
 8002440:	46bd      	mov	sp, r7
 8002442:	f85d 7b04 	ldr.w	r7, [sp], #4
 8002446:	4770      	bx	lr

08002448 <LL_DMA_ClearFlag_TC6>:
  * @rmtoll IFCR         CTCIF6        LL_DMA_ClearFlag_TC6
  * @param  DMAx DMAx Instance
  * @retval None
  */
__STATIC_INLINE void LL_DMA_ClearFlag_TC6(DMA_TypeDef *DMAx)
{
 8002448:	b480      	push	{r7}
 800244a:	b083      	sub	sp, #12
 800244c:	af00      	add	r7, sp, #0
 800244e:	6078      	str	r0, [r7, #4]
  WRITE_REG(DMAx->IFCR, DMA_IFCR_CTCIF6);
 8002450:	687b      	ldr	r3, [r7, #4]
 8002452:	f44f 1200 	mov.w	r2, #2097152	; 0x200000
 8002456:	605a      	str	r2, [r3, #4]
}
 8002458:	bf00      	nop
 800245a:	370c      	adds	r7, #12
 800245c:	46bd      	mov	sp, r7
 800245e:	f85d 7b04 	ldr.w	r7, [sp], #4
 8002462:	4770      	bx	lr

08002464 <LL_DMA_ClearFlag_TC7>:
  * @rmtoll IFCR         CTCIF7        LL_DMA_ClearFlag_TC7
  * @param  DMAx DMAx Instance
  * @retval None
  */
__STATIC_INLINE void LL_DMA_ClearFlag_TC7(DMA_TypeDef *DMAx)
{
 8002464:	b480      	push	{r7}
 8002466:	b083      	sub	sp, #12
 8002468:	af00      	add	r7, sp, #0
 800246a:	6078      	str	r0, [r7, #4]
  WRITE_REG(DMAx->IFCR, DMA_IFCR_CTCIF7);
 800246c:	687b      	ldr	r3, [r7, #4]
 800246e:	f04f 7200 	mov.w	r2, #33554432	; 0x2000000
 8002472:	605a      	str	r2, [r3, #4]
}
 8002474:	bf00      	nop
 8002476:	370c      	adds	r7, #12
 8002478:	46bd      	mov	sp, r7
 800247a:	f85d 7b04 	ldr.w	r7, [sp], #4
 800247e:	4770      	bx	lr

08002480 <LL_DMA_ClearFlag_HT6>:
  * @rmtoll IFCR         CHTIF6        LL_DMA_ClearFlag_HT6
  * @param  DMAx DMAx Instance
  * @retval None
  */
__STATIC_INLINE void LL_DMA_ClearFlag_HT6(DMA_TypeDef *DMAx)
{
 8002480:	b480      	push	{r7}
 8002482:	b083      	sub	sp, #12
 8002484:	af00      	add	r7, sp, #0
 8002486:	6078      	str	r0, [r7, #4]
  WRITE_REG(DMAx->IFCR, DMA_IFCR_CHTIF6);
 8002488:	687b      	ldr	r3, [r7, #4]
 800248a:	f44f 0280 	mov.w	r2, #4194304	; 0x400000
 800248e:	605a      	str	r2, [r3, #4]
}
 8002490:	bf00      	nop
 8002492:	370c      	adds	r7, #12
 8002494:	46bd      	mov	sp, r7
 8002496:	f85d 7b04 	ldr.w	r7, [sp], #4
 800249a:	4770      	bx	lr

0800249c <LL_USART_IsActiveFlag_IDLE>:
  * @rmtoll ISR          IDLE          LL_USART_IsActiveFlag_IDLE
  * @param  USARTx USART Instance
  * @retval State of bit (1 or 0).
  */
__STATIC_INLINE uint32_t LL_USART_IsActiveFlag_IDLE(USART_TypeDef *USARTx)
{
 800249c:	b480      	push	{r7}
 800249e:	b083      	sub	sp, #12
 80024a0:	af00      	add	r7, sp, #0
 80024a2:	6078      	str	r0, [r7, #4]
  return (READ_BIT(USARTx->ISR, USART_ISR_IDLE) == (USART_ISR_IDLE));
 80024a4:	687b      	ldr	r3, [r7, #4]
 80024a6:	69db      	ldr	r3, [r3, #28]
 80024a8:	f003 0310 	and.w	r3, r3, #16
 80024ac:	2b10      	cmp	r3, #16
 80024ae:	bf0c      	ite	eq
 80024b0:	2301      	moveq	r3, #1
 80024b2:	2300      	movne	r3, #0
 80024b4:	b2db      	uxtb	r3, r3
}
 80024b6:	4618      	mov	r0, r3
 80024b8:	370c      	adds	r7, #12
 80024ba:	46bd      	mov	sp, r7
 80024bc:	f85d 7b04 	ldr.w	r7, [sp], #4
 80024c0:	4770      	bx	lr

080024c2 <LL_USART_IsActiveFlag_TC>:
  * @rmtoll ISR          TC            LL_USART_IsActiveFlag_TC
  * @param  USARTx USART Instance
  * @retval State of bit (1 or 0).
  */
__STATIC_INLINE uint32_t LL_USART_IsActiveFlag_TC(USART_TypeDef *USARTx)
{
 80024c2:	b480      	push	{r7}
 80024c4:	b083      	sub	sp, #12
 80024c6:	af00      	add	r7, sp, #0
 80024c8:	6078      	str	r0, [r7, #4]
  return (READ_BIT(USARTx->ISR, USART_ISR_TC) == (USART_ISR_TC));
 80024ca:	687b      	ldr	r3, [r7, #4]
 80024cc:	69db      	ldr	r3, [r3, #28]
 80024ce:	f003 0340 	and.w	r3, r3, #64	; 0x40
 80024d2:	2b40      	cmp	r3, #64	; 0x40
 80024d4:	bf0c      	ite	eq
 80024d6:	2301      	moveq	r3, #1
 80024d8:	2300      	movne	r3, #0
 80024da:	b2db      	uxtb	r3, r3
}
 80024dc:	4618      	mov	r0, r3
 80024de:	370c      	adds	r7, #12
 80024e0:	46bd      	mov	sp, r7
 80024e2:	f85d 7b04 	ldr.w	r7, [sp], #4
 80024e6:	4770      	bx	lr

080024e8 <LL_USART_ClearFlag_IDLE>:
  * @rmtoll ICR          IDLECF        LL_USART_ClearFlag_IDLE
  * @param  USARTx USART Instance
  * @retval None
  */
__STATIC_INLINE void LL_USART_ClearFlag_IDLE(USART_TypeDef *USARTx)
{
 80024e8:	b480      	push	{r7}
 80024ea:	b083      	sub	sp, #12
 80024ec:	af00      	add	r7, sp, #0
 80024ee:	6078      	str	r0, [r7, #4]
  WRITE_REG(USARTx->ICR, USART_ICR_IDLECF);
 80024f0:	687b      	ldr	r3, [r7, #4]
 80024f2:	2210      	movs	r2, #16
 80024f4:	621a      	str	r2, [r3, #32]
}
 80024f6:	bf00      	nop
 80024f8:	370c      	adds	r7, #12
 80024fa:	46bd      	mov	sp, r7
 80024fc:	f85d 7b04 	ldr.w	r7, [sp], #4
 8002500:	4770      	bx	lr

08002502 <NMI_Handler>:
/******************************************************************************/
/**
  * @brief This function handles Non maskable interrupt.
  */
void NMI_Handler(void)
{
 8002502:	b480      	push	{r7}
 8002504:	af00      	add	r7, sp, #0

  /* USER CODE END NonMaskableInt_IRQn 0 */
  /* USER CODE BEGIN NonMaskableInt_IRQn 1 */

  /* USER CODE END NonMaskableInt_IRQn 1 */
}
 8002506:	bf00      	nop
 8002508:	46bd      	mov	sp, r7
 800250a:	f85d 7b04 	ldr.w	r7, [sp], #4
 800250e:	4770      	bx	lr

08002510 <HardFault_Handler>:

/**
  * @brief This function handles Hard fault interrupt.
  */
void HardFault_Handler(void)
{
 8002510:	b480      	push	{r7}
 8002512:	af00      	add	r7, sp, #0
  /* USER CODE BEGIN HardFault_IRQn 0 */

  /* USER CODE END HardFault_IRQn 0 */
  while (1)
 8002514:	e7fe      	b.n	8002514 <HardFault_Handler+0x4>

08002516 <MemManage_Handler>:

/**
  * @brief This function handles Memory management fault.
  */
void MemManage_Handler(void)
{
 8002516:	b480      	push	{r7}
 8002518:	af00      	add	r7, sp, #0
  /* USER CODE BEGIN MemoryManagement_IRQn 0 */

  /* USER CODE END MemoryManagement_IRQn 0 */
  while (1)
 800251a:	e7fe      	b.n	800251a <MemManage_Handler+0x4>

0800251c <BusFault_Handler>:

/**
  * @brief This function handles Pre-fetch fault, memory access fault.
  */
void BusFault_Handler(void)
{
 800251c:	b480      	push	{r7}
 800251e:	af00      	add	r7, sp, #0
  /* USER CODE BEGIN BusFault_IRQn 0 */

  /* USER CODE END BusFault_IRQn 0 */
  while (1)
 8002520:	e7fe      	b.n	8002520 <BusFault_Handler+0x4>

08002522 <UsageFault_Handler>:

/**
  * @brief This function handles Undefined instruction or illegal state.
  */
void UsageFault_Handler(void)
{
 8002522:	b480      	push	{r7}
 8002524:	af00      	add	r7, sp, #0
  /* USER CODE BEGIN UsageFault_IRQn 0 */

  /* USER CODE END UsageFault_IRQn 0 */
  while (1)
 8002526:	e7fe      	b.n	8002526 <UsageFault_Handler+0x4>

08002528 <SVC_Handler>:

/**
  * @brief This function handles System service call via SWI instruction.
  */
void SVC_Handler(void)
{
 8002528:	b480      	push	{r7}
 800252a:	af00      	add	r7, sp, #0

  /* USER CODE END SVCall_IRQn 0 */
  /* USER CODE BEGIN SVCall_IRQn 1 */

  /* USER CODE END SVCall_IRQn 1 */
}
 800252c:	bf00      	nop
 800252e:	46bd      	mov	sp, r7
 8002530:	f85d 7b04 	ldr.w	r7, [sp], #4
 8002534:	4770      	bx	lr

08002536 <DebugMon_Handler>:

/**
  * @brief This function handles Debug monitor.
  */
void DebugMon_Handler(void)
{
 8002536:	b480      	push	{r7}
 8002538:	af00      	add	r7, sp, #0

  /* USER CODE END DebugMonitor_IRQn 0 */
  /* USER CODE BEGIN DebugMonitor_IRQn 1 */

  /* USER CODE END DebugMonitor_IRQn 1 */
}
 800253a:	bf00      	nop
 800253c:	46bd      	mov	sp, r7
 800253e:	f85d 7b04 	ldr.w	r7, [sp], #4
 8002542:	4770      	bx	lr

08002544 <PendSV_Handler>:

/**
  * @brief This function handles Pendable request for system service.
  */
void PendSV_Handler(void)
{
 8002544:	b480      	push	{r7}
 8002546:	af00      	add	r7, sp, #0

  /* USER CODE END PendSV_IRQn 0 */
  /* USER CODE BEGIN PendSV_IRQn 1 */

  /* USER CODE END PendSV_IRQn 1 */
}
 8002548:	bf00      	nop
 800254a:	46bd      	mov	sp, r7
 800254c:	f85d 7b04 	ldr.w	r7, [sp], #4
 8002550:	4770      	bx	lr

08002552 <SysTick_Handler>:

/**
  * @brief This function handles System tick timer.
  */
void SysTick_Handler(void)
{
 8002552:	b480      	push	{r7}
 8002554:	af00      	add	r7, sp, #0
  /* USER CODE END SysTick_IRQn 0 */
  
  /* USER CODE BEGIN SysTick_IRQn 1 */

  /* USER CODE END SysTick_IRQn 1 */
}
 8002556:	bf00      	nop
 8002558:	46bd      	mov	sp, r7
 800255a:	f85d 7b04 	ldr.w	r7, [sp], #4
 800255e:	4770      	bx	lr

08002560 <DMA1_Channel7_IRQHandler>:

/**
  * @brief This function handles DMA1 channel7 global interrupt.
  */
void DMA1_Channel7_IRQHandler(void)
{
 8002560:	b580      	push	{r7, lr}
 8002562:	af00      	add	r7, sp, #0
	if(LL_DMA_IsActiveFlag_TC7(DMA1) == SET)
 8002564:	480a      	ldr	r0, [pc, #40]	; (8002590 <DMA1_Channel7_IRQHandler+0x30>)
 8002566:	f7ff ff47 	bl	80023f8 <LL_DMA_IsActiveFlag_TC7>
 800256a:	4603      	mov	r3, r0
 800256c:	2b01      	cmp	r3, #1
 800256e:	d10d      	bne.n	800258c <DMA1_Channel7_IRQHandler+0x2c>
	{
		LL_DMA_ClearFlag_TC7(DMA1);
 8002570:	4807      	ldr	r0, [pc, #28]	; (8002590 <DMA1_Channel7_IRQHandler+0x30>)
 8002572:	f7ff ff77 	bl	8002464 <LL_DMA_ClearFlag_TC7>

		while(LL_USART_IsActiveFlag_TC(USART2) == RESET);
 8002576:	bf00      	nop
 8002578:	4806      	ldr	r0, [pc, #24]	; (8002594 <DMA1_Channel7_IRQHandler+0x34>)
 800257a:	f7ff ffa2 	bl	80024c2 <LL_USART_IsActiveFlag_TC>
 800257e:	4603      	mov	r3, r0
 8002580:	2b00      	cmp	r3, #0
 8002582:	d0f9      	beq.n	8002578 <DMA1_Channel7_IRQHandler+0x18>
		LL_DMA_DisableChannel(DMA1, LL_DMA_CHANNEL_7);
 8002584:	2107      	movs	r1, #7
 8002586:	4802      	ldr	r0, [pc, #8]	; (8002590 <DMA1_Channel7_IRQHandler+0x30>)
 8002588:	f7ff ff02 	bl	8002390 <LL_DMA_DisableChannel>
	}
}
 800258c:	bf00      	nop
 800258e:	bd80      	pop	{r7, pc}
 8002590:	40020000 	.word	0x40020000
 8002594:	40004400 	.word	0x40004400

08002598 <DMA1_Channel6_IRQHandler>:

void DMA1_Channel6_IRQHandler(void)
{
 8002598:	b580      	push	{r7, lr}
 800259a:	af00      	add	r7, sp, #0
	if(LL_DMA_IsActiveFlag_TC6(DMA1) == SET)
 800259c:	480c      	ldr	r0, [pc, #48]	; (80025d0 <DMA1_Channel6_IRQHandler+0x38>)
 800259e:	f7ff ff17 	bl	80023d0 <LL_DMA_IsActiveFlag_TC6>
 80025a2:	4603      	mov	r3, r0
 80025a4:	2b01      	cmp	r3, #1
 80025a6:	d105      	bne.n	80025b4 <DMA1_Channel6_IRQHandler+0x1c>
	{
		USART2_CheckDmaReception();
 80025a8:	f000 fd7c 	bl	80030a4 <USART2_CheckDmaReception>
		LL_DMA_ClearFlag_TC6(DMA1);
 80025ac:	4808      	ldr	r0, [pc, #32]	; (80025d0 <DMA1_Channel6_IRQHandler+0x38>)
 80025ae:	f7ff ff4b 	bl	8002448 <LL_DMA_ClearFlag_TC6>
	else if(LL_DMA_IsActiveFlag_HT6(DMA1) == SET)
	{
		USART2_CheckDmaReception();
		LL_DMA_ClearFlag_HT6(DMA1);
	}
}
 80025b2:	e00a      	b.n	80025ca <DMA1_Channel6_IRQHandler+0x32>
	else if(LL_DMA_IsActiveFlag_HT6(DMA1) == SET)
 80025b4:	4806      	ldr	r0, [pc, #24]	; (80025d0 <DMA1_Channel6_IRQHandler+0x38>)
 80025b6:	f7ff ff33 	bl	8002420 <LL_DMA_IsActiveFlag_HT6>
 80025ba:	4603      	mov	r3, r0
 80025bc:	2b01      	cmp	r3, #1
 80025be:	d104      	bne.n	80025ca <DMA1_Channel6_IRQHandler+0x32>
		USART2_CheckDmaReception();
 80025c0:	f000 fd70 	bl	80030a4 <USART2_CheckDmaReception>
		LL_DMA_ClearFlag_HT6(DMA1);
 80025c4:	4802      	ldr	r0, [pc, #8]	; (80025d0 <DMA1_Channel6_IRQHandler+0x38>)
 80025c6:	f7ff ff5b 	bl	8002480 <LL_DMA_ClearFlag_HT6>
}
 80025ca:	bf00      	nop
 80025cc:	bd80      	pop	{r7, pc}
 80025ce:	bf00      	nop
 80025d0:	40020000 	.word	0x40020000

080025d4 <USART2_IRQHandler>:


void USART2_IRQHandler(void)
{
 80025d4:	b580      	push	{r7, lr}
 80025d6:	af00      	add	r7, sp, #0
	if(LL_USART_IsActiveFlag_IDLE(USART2))
 80025d8:	4806      	ldr	r0, [pc, #24]	; (80025f4 <USART2_IRQHandler+0x20>)
 80025da:	f7ff ff5f 	bl	800249c <LL_USART_IsActiveFlag_IDLE>
 80025de:	4603      	mov	r3, r0
 80025e0:	2b00      	cmp	r3, #0
 80025e2:	d004      	beq.n	80025ee <USART2_IRQHandler+0x1a>
	{
		USART2_CheckDmaReception();
 80025e4:	f000 fd5e 	bl	80030a4 <USART2_CheckDmaReception>
		LL_USART_ClearFlag_IDLE(USART2);
 80025e8:	4802      	ldr	r0, [pc, #8]	; (80025f4 <USART2_IRQHandler+0x20>)
 80025ea:	f7ff ff7d 	bl	80024e8 <LL_USART_ClearFlag_IDLE>
	}
}
 80025ee:	bf00      	nop
 80025f0:	bd80      	pop	{r7, pc}
 80025f2:	bf00      	nop
 80025f4:	40004400 	.word	0x40004400

080025f8 <_getpid>:
void initialise_monitor_handles()
{
}

int _getpid(void)
{
 80025f8:	b480      	push	{r7}
 80025fa:	af00      	add	r7, sp, #0
	return 1;
 80025fc:	2301      	movs	r3, #1
}
 80025fe:	4618      	mov	r0, r3
 8002600:	46bd      	mov	sp, r7
 8002602:	f85d 7b04 	ldr.w	r7, [sp], #4
 8002606:	4770      	bx	lr

08002608 <_kill>:

int _kill(int pid, int sig)
{
 8002608:	b580      	push	{r7, lr}
 800260a:	b082      	sub	sp, #8
 800260c:	af00      	add	r7, sp, #0
 800260e:	6078      	str	r0, [r7, #4]
 8002610:	6039      	str	r1, [r7, #0]
	errno = EINVAL;
 8002612:	f001 fbaf 	bl	8003d74 <__errno>
 8002616:	4603      	mov	r3, r0
 8002618:	2216      	movs	r2, #22
 800261a:	601a      	str	r2, [r3, #0]
	return -1;
 800261c:	f04f 33ff 	mov.w	r3, #4294967295
}
 8002620:	4618      	mov	r0, r3
 8002622:	3708      	adds	r7, #8
 8002624:	46bd      	mov	sp, r7
 8002626:	bd80      	pop	{r7, pc}

08002628 <_exit>:

void _exit (int status)
{
 8002628:	b580      	push	{r7, lr}
 800262a:	b082      	sub	sp, #8
 800262c:	af00      	add	r7, sp, #0
 800262e:	6078      	str	r0, [r7, #4]
	_kill(status, -1);
 8002630:	f04f 31ff 	mov.w	r1, #4294967295
 8002634:	6878      	ldr	r0, [r7, #4]
 8002636:	f7ff ffe7 	bl	8002608 <_kill>
	while (1) {}		/* Make sure we hang here */
 800263a:	e7fe      	b.n	800263a <_exit+0x12>

0800263c <_read>:
}

__attribute__((weak)) int _read(int file, char *ptr, int len)
{
 800263c:	b580      	push	{r7, lr}
 800263e:	b086      	sub	sp, #24
 8002640:	af00      	add	r7, sp, #0
 8002642:	60f8      	str	r0, [r7, #12]
 8002644:	60b9      	str	r1, [r7, #8]
 8002646:	607a      	str	r2, [r7, #4]
	int DataIdx;

	for (DataIdx = 0; DataIdx < len; DataIdx++)
 8002648:	2300      	movs	r3, #0
 800264a:	617b      	str	r3, [r7, #20]
 800264c:	e00a      	b.n	8002664 <_read+0x28>
	{
		*ptr++ = __io_getchar();
 800264e:	f3af 8000 	nop.w
 8002652:	4601      	mov	r1, r0
 8002654:	68bb      	ldr	r3, [r7, #8]
 8002656:	1c5a      	adds	r2, r3, #1
 8002658:	60ba      	str	r2, [r7, #8]
 800265a:	b2ca      	uxtb	r2, r1
 800265c:	701a      	strb	r2, [r3, #0]
	for (DataIdx = 0; DataIdx < len; DataIdx++)
 800265e:	697b      	ldr	r3, [r7, #20]
 8002660:	3301      	adds	r3, #1
 8002662:	617b      	str	r3, [r7, #20]
 8002664:	697a      	ldr	r2, [r7, #20]
 8002666:	687b      	ldr	r3, [r7, #4]
 8002668:	429a      	cmp	r2, r3
 800266a:	dbf0      	blt.n	800264e <_read+0x12>
	}

return len;
 800266c:	687b      	ldr	r3, [r7, #4]
}
 800266e:	4618      	mov	r0, r3
 8002670:	3718      	adds	r7, #24
 8002672:	46bd      	mov	sp, r7
 8002674:	bd80      	pop	{r7, pc}

08002676 <_write>:

__attribute__((weak)) int _write(int file, char *ptr, int len)
{
 8002676:	b580      	push	{r7, lr}
 8002678:	b086      	sub	sp, #24
 800267a:	af00      	add	r7, sp, #0
 800267c:	60f8      	str	r0, [r7, #12]
 800267e:	60b9      	str	r1, [r7, #8]
 8002680:	607a      	str	r2, [r7, #4]
	int DataIdx;

	for (DataIdx = 0; DataIdx < len; DataIdx++)
 8002682:	2300      	movs	r3, #0
 8002684:	617b      	str	r3, [r7, #20]
 8002686:	e009      	b.n	800269c <_write+0x26>
	{
		__io_putchar(*ptr++);
 8002688:	68bb      	ldr	r3, [r7, #8]
 800268a:	1c5a      	adds	r2, r3, #1
 800268c:	60ba      	str	r2, [r7, #8]
 800268e:	781b      	ldrb	r3, [r3, #0]
 8002690:	4618      	mov	r0, r3
 8002692:	f3af 8000 	nop.w
	for (DataIdx = 0; DataIdx < len; DataIdx++)
 8002696:	697b      	ldr	r3, [r7, #20]
 8002698:	3301      	adds	r3, #1
 800269a:	617b      	str	r3, [r7, #20]
 800269c:	697a      	ldr	r2, [r7, #20]
 800269e:	687b      	ldr	r3, [r7, #4]
 80026a0:	429a      	cmp	r2, r3
 80026a2:	dbf1      	blt.n	8002688 <_write+0x12>
	}
	return len;
 80026a4:	687b      	ldr	r3, [r7, #4]
}
 80026a6:	4618      	mov	r0, r3
 80026a8:	3718      	adds	r7, #24
 80026aa:	46bd      	mov	sp, r7
 80026ac:	bd80      	pop	{r7, pc}

080026ae <_close>:

int _close(int file)
{
 80026ae:	b480      	push	{r7}
 80026b0:	b083      	sub	sp, #12
 80026b2:	af00      	add	r7, sp, #0
 80026b4:	6078      	str	r0, [r7, #4]
	return -1;
 80026b6:	f04f 33ff 	mov.w	r3, #4294967295
}
 80026ba:	4618      	mov	r0, r3
 80026bc:	370c      	adds	r7, #12
 80026be:	46bd      	mov	sp, r7
 80026c0:	f85d 7b04 	ldr.w	r7, [sp], #4
 80026c4:	4770      	bx	lr

080026c6 <_fstat>:


int _fstat(int file, struct stat *st)
{
 80026c6:	b480      	push	{r7}
 80026c8:	b083      	sub	sp, #12
 80026ca:	af00      	add	r7, sp, #0
 80026cc:	6078      	str	r0, [r7, #4]
 80026ce:	6039      	str	r1, [r7, #0]
	st->st_mode = S_IFCHR;
 80026d0:	683b      	ldr	r3, [r7, #0]
 80026d2:	f44f 5200 	mov.w	r2, #8192	; 0x2000
 80026d6:	605a      	str	r2, [r3, #4]
	return 0;
 80026d8:	2300      	movs	r3, #0
}
 80026da:	4618      	mov	r0, r3
 80026dc:	370c      	adds	r7, #12
 80026de:	46bd      	mov	sp, r7
 80026e0:	f85d 7b04 	ldr.w	r7, [sp], #4
 80026e4:	4770      	bx	lr

080026e6 <_isatty>:

int _isatty(int file)
{
 80026e6:	b480      	push	{r7}
 80026e8:	b083      	sub	sp, #12
 80026ea:	af00      	add	r7, sp, #0
 80026ec:	6078      	str	r0, [r7, #4]
	return 1;
 80026ee:	2301      	movs	r3, #1
}
 80026f0:	4618      	mov	r0, r3
 80026f2:	370c      	adds	r7, #12
 80026f4:	46bd      	mov	sp, r7
 80026f6:	f85d 7b04 	ldr.w	r7, [sp], #4
 80026fa:	4770      	bx	lr

080026fc <_lseek>:

int _lseek(int file, int ptr, int dir)
{
 80026fc:	b480      	push	{r7}
 80026fe:	b085      	sub	sp, #20
 8002700:	af00      	add	r7, sp, #0
 8002702:	60f8      	str	r0, [r7, #12]
 8002704:	60b9      	str	r1, [r7, #8]
 8002706:	607a      	str	r2, [r7, #4]
	return 0;
 8002708:	2300      	movs	r3, #0
}
 800270a:	4618      	mov	r0, r3
 800270c:	3714      	adds	r7, #20
 800270e:	46bd      	mov	sp, r7
 8002710:	f85d 7b04 	ldr.w	r7, [sp], #4
 8002714:	4770      	bx	lr
	...

08002718 <_sbrk>:
/**
 _sbrk
 Increase program data space. Malloc and related functions depend on this
**/
void* _sbrk(int incr)
{
 8002718:	b580      	push	{r7, lr}
 800271a:	b084      	sub	sp, #16
 800271c:	af00      	add	r7, sp, #0
 800271e:	6078      	str	r0, [r7, #4]
	extern char end asm("end");
	static char *heap_end;
	char *prev_heap_end;

	if (heap_end == 0)
 8002720:	4b11      	ldr	r3, [pc, #68]	; (8002768 <_sbrk+0x50>)
 8002722:	681b      	ldr	r3, [r3, #0]
 8002724:	2b00      	cmp	r3, #0
 8002726:	d102      	bne.n	800272e <_sbrk+0x16>
		heap_end = &end;
 8002728:	4b0f      	ldr	r3, [pc, #60]	; (8002768 <_sbrk+0x50>)
 800272a:	4a10      	ldr	r2, [pc, #64]	; (800276c <_sbrk+0x54>)
 800272c:	601a      	str	r2, [r3, #0]

	prev_heap_end = heap_end;
 800272e:	4b0e      	ldr	r3, [pc, #56]	; (8002768 <_sbrk+0x50>)
 8002730:	681b      	ldr	r3, [r3, #0]
 8002732:	60fb      	str	r3, [r7, #12]
	if (heap_end + incr > stack_ptr)
 8002734:	4b0c      	ldr	r3, [pc, #48]	; (8002768 <_sbrk+0x50>)
 8002736:	681a      	ldr	r2, [r3, #0]
 8002738:	687b      	ldr	r3, [r7, #4]
 800273a:	4413      	add	r3, r2
 800273c:	466a      	mov	r2, sp
 800273e:	4293      	cmp	r3, r2
 8002740:	d907      	bls.n	8002752 <_sbrk+0x3a>
	{
		errno = ENOMEM;
 8002742:	f001 fb17 	bl	8003d74 <__errno>
 8002746:	4603      	mov	r3, r0
 8002748:	220c      	movs	r2, #12
 800274a:	601a      	str	r2, [r3, #0]
		return (void*) -1;
 800274c:	f04f 33ff 	mov.w	r3, #4294967295
 8002750:	e006      	b.n	8002760 <_sbrk+0x48>
	}

	heap_end += incr;
 8002752:	4b05      	ldr	r3, [pc, #20]	; (8002768 <_sbrk+0x50>)
 8002754:	681a      	ldr	r2, [r3, #0]
 8002756:	687b      	ldr	r3, [r7, #4]
 8002758:	4413      	add	r3, r2
 800275a:	4a03      	ldr	r2, [pc, #12]	; (8002768 <_sbrk+0x50>)
 800275c:	6013      	str	r3, [r2, #0]

	return (void*) prev_heap_end;
 800275e:	68fb      	ldr	r3, [r7, #12]
}
 8002760:	4618      	mov	r0, r3
 8002762:	3710      	adds	r7, #16
 8002764:	46bd      	mov	sp, r7
 8002766:	bd80      	pop	{r7, pc}
 8002768:	200003e4 	.word	0x200003e4
 800276c:	200005c0 	.word	0x200005c0

08002770 <SystemInit>:
  *         Initialize the FPU setting, vector table location and the PLL configuration is reset.
  * @param  None
  * @retval None
  */
void SystemInit(void)
{
 8002770:	b480      	push	{r7}
 8002772:	af00      	add	r7, sp, #0
  /* FPU settings ------------------------------------------------------------*/
  #if (__FPU_PRESENT == 1) && (__FPU_USED == 1)
    SCB->CPACR |= ((3UL << 10*2)|(3UL << 11*2));  /* set CP10 and CP11 Full Access */
 8002774:	4b1f      	ldr	r3, [pc, #124]	; (80027f4 <SystemInit+0x84>)
 8002776:	f8d3 3088 	ldr.w	r3, [r3, #136]	; 0x88
 800277a:	4a1e      	ldr	r2, [pc, #120]	; (80027f4 <SystemInit+0x84>)
 800277c:	f443 0370 	orr.w	r3, r3, #15728640	; 0xf00000
 8002780:	f8c2 3088 	str.w	r3, [r2, #136]	; 0x88
  #endif

  /* Reset the RCC clock configuration to the default reset state ------------*/
  /* Set HSION bit */
  RCC->CR |= 0x00000001U;
 8002784:	4b1c      	ldr	r3, [pc, #112]	; (80027f8 <SystemInit+0x88>)
 8002786:	681b      	ldr	r3, [r3, #0]
 8002788:	4a1b      	ldr	r2, [pc, #108]	; (80027f8 <SystemInit+0x88>)
 800278a:	f043 0301 	orr.w	r3, r3, #1
 800278e:	6013      	str	r3, [r2, #0]

  /* Reset CFGR register */
  RCC->CFGR &= 0xF87FC00CU;
 8002790:	4b19      	ldr	r3, [pc, #100]	; (80027f8 <SystemInit+0x88>)
 8002792:	685a      	ldr	r2, [r3, #4]
 8002794:	4918      	ldr	r1, [pc, #96]	; (80027f8 <SystemInit+0x88>)
 8002796:	4b19      	ldr	r3, [pc, #100]	; (80027fc <SystemInit+0x8c>)
 8002798:	4013      	ands	r3, r2
 800279a:	604b      	str	r3, [r1, #4]

  /* Reset HSEON, CSSON and PLLON bits */
  RCC->CR &= 0xFEF6FFFFU;
 800279c:	4b16      	ldr	r3, [pc, #88]	; (80027f8 <SystemInit+0x88>)
 800279e:	681b      	ldr	r3, [r3, #0]
 80027a0:	4a15      	ldr	r2, [pc, #84]	; (80027f8 <SystemInit+0x88>)
 80027a2:	f023 7384 	bic.w	r3, r3, #17301504	; 0x1080000
 80027a6:	f423 3380 	bic.w	r3, r3, #65536	; 0x10000
 80027aa:	6013      	str	r3, [r2, #0]

  /* Reset HSEBYP bit */
  RCC->CR &= 0xFFFBFFFFU;
 80027ac:	4b12      	ldr	r3, [pc, #72]	; (80027f8 <SystemInit+0x88>)
 80027ae:	681b      	ldr	r3, [r3, #0]
 80027b0:	4a11      	ldr	r2, [pc, #68]	; (80027f8 <SystemInit+0x88>)
 80027b2:	f423 2380 	bic.w	r3, r3, #262144	; 0x40000
 80027b6:	6013      	str	r3, [r2, #0]

  /* Reset PLLSRC, PLLXTPRE, PLLMUL and USBPRE bits */
  RCC->CFGR &= 0xFF80FFFFU;
 80027b8:	4b0f      	ldr	r3, [pc, #60]	; (80027f8 <SystemInit+0x88>)
 80027ba:	685b      	ldr	r3, [r3, #4]
 80027bc:	4a0e      	ldr	r2, [pc, #56]	; (80027f8 <SystemInit+0x88>)
 80027be:	f423 03fe 	bic.w	r3, r3, #8323072	; 0x7f0000
 80027c2:	6053      	str	r3, [r2, #4]

  /* Reset PREDIV1[3:0] bits */
  RCC->CFGR2 &= 0xFFFFFFF0U;
 80027c4:	4b0c      	ldr	r3, [pc, #48]	; (80027f8 <SystemInit+0x88>)
 80027c6:	6adb      	ldr	r3, [r3, #44]	; 0x2c
 80027c8:	4a0b      	ldr	r2, [pc, #44]	; (80027f8 <SystemInit+0x88>)
 80027ca:	f023 030f 	bic.w	r3, r3, #15
 80027ce:	62d3      	str	r3, [r2, #44]	; 0x2c

  /* Reset USARTSW[1:0], I2CSW and TIMs bits */
  RCC->CFGR3 &= 0xFF00FCCCU;
 80027d0:	4b09      	ldr	r3, [pc, #36]	; (80027f8 <SystemInit+0x88>)
 80027d2:	6b1a      	ldr	r2, [r3, #48]	; 0x30
 80027d4:	4908      	ldr	r1, [pc, #32]	; (80027f8 <SystemInit+0x88>)
 80027d6:	4b0a      	ldr	r3, [pc, #40]	; (8002800 <SystemInit+0x90>)
 80027d8:	4013      	ands	r3, r2
 80027da:	630b      	str	r3, [r1, #48]	; 0x30

  /* Disable all interrupts */
  RCC->CIR = 0x00000000U;
 80027dc:	4b06      	ldr	r3, [pc, #24]	; (80027f8 <SystemInit+0x88>)
 80027de:	2200      	movs	r2, #0
 80027e0:	609a      	str	r2, [r3, #8]

#ifdef VECT_TAB_SRAM
  SCB->VTOR = SRAM_BASE | VECT_TAB_OFFSET; /* Vector Table Relocation in Internal SRAM */
#else
  SCB->VTOR = FLASH_BASE | VECT_TAB_OFFSET; /* Vector Table Relocation in Internal FLASH */
 80027e2:	4b04      	ldr	r3, [pc, #16]	; (80027f4 <SystemInit+0x84>)
 80027e4:	f04f 6200 	mov.w	r2, #134217728	; 0x8000000
 80027e8:	609a      	str	r2, [r3, #8]
#endif
}
 80027ea:	bf00      	nop
 80027ec:	46bd      	mov	sp, r7
 80027ee:	f85d 7b04 	ldr.w	r7, [sp], #4
 80027f2:	4770      	bx	lr
 80027f4:	e000ed00 	.word	0xe000ed00
 80027f8:	40021000 	.word	0x40021000
 80027fc:	f87fc00c 	.word	0xf87fc00c
 8002800:	ff00fccc 	.word	0xff00fccc

08002804 <NVIC_EnableIRQ>:
{
 8002804:	b480      	push	{r7}
 8002806:	b083      	sub	sp, #12
 8002808:	af00      	add	r7, sp, #0
 800280a:	4603      	mov	r3, r0
 800280c:	71fb      	strb	r3, [r7, #7]
  NVIC->ISER[(((uint32_t)(int32_t)IRQn) >> 5UL)] = (uint32_t)(1UL << (((uint32_t)(int32_t)IRQn) & 0x1FUL));
 800280e:	79fb      	ldrb	r3, [r7, #7]
 8002810:	f003 021f 	and.w	r2, r3, #31
 8002814:	4907      	ldr	r1, [pc, #28]	; (8002834 <NVIC_EnableIRQ+0x30>)
 8002816:	f997 3007 	ldrsb.w	r3, [r7, #7]
 800281a:	095b      	lsrs	r3, r3, #5
 800281c:	2001      	movs	r0, #1
 800281e:	fa00 f202 	lsl.w	r2, r0, r2
 8002822:	f841 2023 	str.w	r2, [r1, r3, lsl #2]
}
 8002826:	bf00      	nop
 8002828:	370c      	adds	r7, #12
 800282a:	46bd      	mov	sp, r7
 800282c:	f85d 7b04 	ldr.w	r7, [sp], #4
 8002830:	4770      	bx	lr
 8002832:	bf00      	nop
 8002834:	e000e100 	.word	0xe000e100

08002838 <NVIC_SetPriority>:
{
 8002838:	b480      	push	{r7}
 800283a:	b083      	sub	sp, #12
 800283c:	af00      	add	r7, sp, #0
 800283e:	4603      	mov	r3, r0
 8002840:	6039      	str	r1, [r7, #0]
 8002842:	71fb      	strb	r3, [r7, #7]
  if ((int32_t)(IRQn) < 0)
 8002844:	f997 3007 	ldrsb.w	r3, [r7, #7]
 8002848:	2b00      	cmp	r3, #0
 800284a:	da0b      	bge.n	8002864 <NVIC_SetPriority+0x2c>
    SCB->SHP[(((uint32_t)(int32_t)IRQn) & 0xFUL)-4UL] = (uint8_t)((priority << (8U - __NVIC_PRIO_BITS)) & (uint32_t)0xFFUL);
 800284c:	683b      	ldr	r3, [r7, #0]
 800284e:	b2da      	uxtb	r2, r3
 8002850:	490c      	ldr	r1, [pc, #48]	; (8002884 <NVIC_SetPriority+0x4c>)
 8002852:	79fb      	ldrb	r3, [r7, #7]
 8002854:	f003 030f 	and.w	r3, r3, #15
 8002858:	3b04      	subs	r3, #4
 800285a:	0112      	lsls	r2, r2, #4
 800285c:	b2d2      	uxtb	r2, r2
 800285e:	440b      	add	r3, r1
 8002860:	761a      	strb	r2, [r3, #24]
}
 8002862:	e009      	b.n	8002878 <NVIC_SetPriority+0x40>
    NVIC->IP[((uint32_t)(int32_t)IRQn)]               = (uint8_t)((priority << (8U - __NVIC_PRIO_BITS)) & (uint32_t)0xFFUL);
 8002864:	683b      	ldr	r3, [r7, #0]
 8002866:	b2da      	uxtb	r2, r3
 8002868:	4907      	ldr	r1, [pc, #28]	; (8002888 <NVIC_SetPriority+0x50>)
 800286a:	f997 3007 	ldrsb.w	r3, [r7, #7]
 800286e:	0112      	lsls	r2, r2, #4
 8002870:	b2d2      	uxtb	r2, r2
 8002872:	440b      	add	r3, r1
 8002874:	f883 2300 	strb.w	r2, [r3, #768]	; 0x300
}
 8002878:	bf00      	nop
 800287a:	370c      	adds	r7, #12
 800287c:	46bd      	mov	sp, r7
 800287e:	f85d 7b04 	ldr.w	r7, [sp], #4
 8002882:	4770      	bx	lr
 8002884:	e000ed00 	.word	0xe000ed00
 8002888:	e000e100 	.word	0xe000e100

0800288c <LL_AHB1_GRP1_EnableClock>:
{
 800288c:	b480      	push	{r7}
 800288e:	b085      	sub	sp, #20
 8002890:	af00      	add	r7, sp, #0
 8002892:	6078      	str	r0, [r7, #4]
  SET_BIT(RCC->AHBENR, Periphs);
 8002894:	4b08      	ldr	r3, [pc, #32]	; (80028b8 <LL_AHB1_GRP1_EnableClock+0x2c>)
 8002896:	695a      	ldr	r2, [r3, #20]
 8002898:	4907      	ldr	r1, [pc, #28]	; (80028b8 <LL_AHB1_GRP1_EnableClock+0x2c>)
 800289a:	687b      	ldr	r3, [r7, #4]
 800289c:	4313      	orrs	r3, r2
 800289e:	614b      	str	r3, [r1, #20]
  tmpreg = READ_BIT(RCC->AHBENR, Periphs);
 80028a0:	4b05      	ldr	r3, [pc, #20]	; (80028b8 <LL_AHB1_GRP1_EnableClock+0x2c>)
 80028a2:	695a      	ldr	r2, [r3, #20]
 80028a4:	687b      	ldr	r3, [r7, #4]
 80028a6:	4013      	ands	r3, r2
 80028a8:	60fb      	str	r3, [r7, #12]
  (void)tmpreg;
 80028aa:	68fb      	ldr	r3, [r7, #12]
}
 80028ac:	bf00      	nop
 80028ae:	3714      	adds	r7, #20
 80028b0:	46bd      	mov	sp, r7
 80028b2:	f85d 7b04 	ldr.w	r7, [sp], #4
 80028b6:	4770      	bx	lr
 80028b8:	40021000 	.word	0x40021000

080028bc <LL_APB1_GRP1_EnableClock>:
{
 80028bc:	b480      	push	{r7}
 80028be:	b085      	sub	sp, #20
 80028c0:	af00      	add	r7, sp, #0
 80028c2:	6078      	str	r0, [r7, #4]
  SET_BIT(RCC->APB1ENR, Periphs);
 80028c4:	4b08      	ldr	r3, [pc, #32]	; (80028e8 <LL_APB1_GRP1_EnableClock+0x2c>)
 80028c6:	69da      	ldr	r2, [r3, #28]
 80028c8:	4907      	ldr	r1, [pc, #28]	; (80028e8 <LL_APB1_GRP1_EnableClock+0x2c>)
 80028ca:	687b      	ldr	r3, [r7, #4]
 80028cc:	4313      	orrs	r3, r2
 80028ce:	61cb      	str	r3, [r1, #28]
  tmpreg = READ_BIT(RCC->APB1ENR, Periphs);
 80028d0:	4b05      	ldr	r3, [pc, #20]	; (80028e8 <LL_APB1_GRP1_EnableClock+0x2c>)
 80028d2:	69da      	ldr	r2, [r3, #28]
 80028d4:	687b      	ldr	r3, [r7, #4]
 80028d6:	4013      	ands	r3, r2
 80028d8:	60fb      	str	r3, [r7, #12]
  (void)tmpreg;
 80028da:	68fb      	ldr	r3, [r7, #12]
}
 80028dc:	bf00      	nop
 80028de:	3714      	adds	r7, #20
 80028e0:	46bd      	mov	sp, r7
 80028e2:	f85d 7b04 	ldr.w	r7, [sp], #4
 80028e6:	4770      	bx	lr
 80028e8:	40021000 	.word	0x40021000

080028ec <LL_DMA_EnableChannel>:
{
 80028ec:	b480      	push	{r7}
 80028ee:	b083      	sub	sp, #12
 80028f0:	af00      	add	r7, sp, #0
 80028f2:	6078      	str	r0, [r7, #4]
 80028f4:	6039      	str	r1, [r7, #0]
  SET_BIT(((DMA_Channel_TypeDef *)((uint32_t)((uint32_t)DMAx + CHANNEL_OFFSET_TAB[Channel - 1U])))->CCR, DMA_CCR_EN);
 80028f6:	683b      	ldr	r3, [r7, #0]
 80028f8:	3b01      	subs	r3, #1
 80028fa:	4a0b      	ldr	r2, [pc, #44]	; (8002928 <LL_DMA_EnableChannel+0x3c>)
 80028fc:	5cd3      	ldrb	r3, [r2, r3]
 80028fe:	461a      	mov	r2, r3
 8002900:	687b      	ldr	r3, [r7, #4]
 8002902:	4413      	add	r3, r2
 8002904:	681b      	ldr	r3, [r3, #0]
 8002906:	683a      	ldr	r2, [r7, #0]
 8002908:	3a01      	subs	r2, #1
 800290a:	4907      	ldr	r1, [pc, #28]	; (8002928 <LL_DMA_EnableChannel+0x3c>)
 800290c:	5c8a      	ldrb	r2, [r1, r2]
 800290e:	4611      	mov	r1, r2
 8002910:	687a      	ldr	r2, [r7, #4]
 8002912:	440a      	add	r2, r1
 8002914:	f043 0301 	orr.w	r3, r3, #1
 8002918:	6013      	str	r3, [r2, #0]
}
 800291a:	bf00      	nop
 800291c:	370c      	adds	r7, #12
 800291e:	46bd      	mov	sp, r7
 8002920:	f85d 7b04 	ldr.w	r7, [sp], #4
 8002924:	4770      	bx	lr
 8002926:	bf00      	nop
 8002928:	080066f0 	.word	0x080066f0

0800292c <LL_DMA_DisableChannel>:
{
 800292c:	b480      	push	{r7}
 800292e:	b083      	sub	sp, #12
 8002930:	af00      	add	r7, sp, #0
 8002932:	6078      	str	r0, [r7, #4]
 8002934:	6039      	str	r1, [r7, #0]
  CLEAR_BIT(((DMA_Channel_TypeDef *)((uint32_t)((uint32_t)DMAx + CHANNEL_OFFSET_TAB[Channel - 1U])))->CCR, DMA_CCR_EN);
 8002936:	683b      	ldr	r3, [r7, #0]
 8002938:	3b01      	subs	r3, #1
 800293a:	4a0b      	ldr	r2, [pc, #44]	; (8002968 <LL_DMA_DisableChannel+0x3c>)
 800293c:	5cd3      	ldrb	r3, [r2, r3]
 800293e:	461a      	mov	r2, r3
 8002940:	687b      	ldr	r3, [r7, #4]
 8002942:	4413      	add	r3, r2
 8002944:	681b      	ldr	r3, [r3, #0]
 8002946:	683a      	ldr	r2, [r7, #0]
 8002948:	3a01      	subs	r2, #1
 800294a:	4907      	ldr	r1, [pc, #28]	; (8002968 <LL_DMA_DisableChannel+0x3c>)
 800294c:	5c8a      	ldrb	r2, [r1, r2]
 800294e:	4611      	mov	r1, r2
 8002950:	687a      	ldr	r2, [r7, #4]
 8002952:	440a      	add	r2, r1
 8002954:	f023 0301 	bic.w	r3, r3, #1
 8002958:	6013      	str	r3, [r2, #0]
}
 800295a:	bf00      	nop
 800295c:	370c      	adds	r7, #12
 800295e:	46bd      	mov	sp, r7
 8002960:	f85d 7b04 	ldr.w	r7, [sp], #4
 8002964:	4770      	bx	lr
 8002966:	bf00      	nop
 8002968:	080066f0 	.word	0x080066f0

0800296c <LL_DMA_SetDataTransferDirection>:
{
 800296c:	b480      	push	{r7}
 800296e:	b085      	sub	sp, #20
 8002970:	af00      	add	r7, sp, #0
 8002972:	60f8      	str	r0, [r7, #12]
 8002974:	60b9      	str	r1, [r7, #8]
 8002976:	607a      	str	r2, [r7, #4]
  MODIFY_REG(((DMA_Channel_TypeDef *)((uint32_t)((uint32_t)DMAx + CHANNEL_OFFSET_TAB[Channel - 1U])))->CCR,
 8002978:	68bb      	ldr	r3, [r7, #8]
 800297a:	3b01      	subs	r3, #1
 800297c:	4a0d      	ldr	r2, [pc, #52]	; (80029b4 <LL_DMA_SetDataTransferDirection+0x48>)
 800297e:	5cd3      	ldrb	r3, [r2, r3]
 8002980:	461a      	mov	r2, r3
 8002982:	68fb      	ldr	r3, [r7, #12]
 8002984:	4413      	add	r3, r2
 8002986:	681b      	ldr	r3, [r3, #0]
 8002988:	f423 4380 	bic.w	r3, r3, #16384	; 0x4000
 800298c:	f023 0310 	bic.w	r3, r3, #16
 8002990:	68ba      	ldr	r2, [r7, #8]
 8002992:	3a01      	subs	r2, #1
 8002994:	4907      	ldr	r1, [pc, #28]	; (80029b4 <LL_DMA_SetDataTransferDirection+0x48>)
 8002996:	5c8a      	ldrb	r2, [r1, r2]
 8002998:	4611      	mov	r1, r2
 800299a:	68fa      	ldr	r2, [r7, #12]
 800299c:	440a      	add	r2, r1
 800299e:	4611      	mov	r1, r2
 80029a0:	687a      	ldr	r2, [r7, #4]
 80029a2:	4313      	orrs	r3, r2
 80029a4:	600b      	str	r3, [r1, #0]
}
 80029a6:	bf00      	nop
 80029a8:	3714      	adds	r7, #20
 80029aa:	46bd      	mov	sp, r7
 80029ac:	f85d 7b04 	ldr.w	r7, [sp], #4
 80029b0:	4770      	bx	lr
 80029b2:	bf00      	nop
 80029b4:	080066f0 	.word	0x080066f0

080029b8 <LL_DMA_GetDataTransferDirection>:
{
 80029b8:	b480      	push	{r7}
 80029ba:	b083      	sub	sp, #12
 80029bc:	af00      	add	r7, sp, #0
 80029be:	6078      	str	r0, [r7, #4]
 80029c0:	6039      	str	r1, [r7, #0]
  return (READ_BIT(((DMA_Channel_TypeDef *)((uint32_t)((uint32_t)DMAx + CHANNEL_OFFSET_TAB[Channel - 1U])))->CCR,
 80029c2:	683b      	ldr	r3, [r7, #0]
 80029c4:	3b01      	subs	r3, #1
 80029c6:	4a07      	ldr	r2, [pc, #28]	; (80029e4 <LL_DMA_GetDataTransferDirection+0x2c>)
 80029c8:	5cd3      	ldrb	r3, [r2, r3]
 80029ca:	461a      	mov	r2, r3
 80029cc:	687b      	ldr	r3, [r7, #4]
 80029ce:	4413      	add	r3, r2
 80029d0:	681a      	ldr	r2, [r3, #0]
 80029d2:	f244 0310 	movw	r3, #16400	; 0x4010
 80029d6:	4013      	ands	r3, r2
}
 80029d8:	4618      	mov	r0, r3
 80029da:	370c      	adds	r7, #12
 80029dc:	46bd      	mov	sp, r7
 80029de:	f85d 7b04 	ldr.w	r7, [sp], #4
 80029e2:	4770      	bx	lr
 80029e4:	080066f0 	.word	0x080066f0

080029e8 <LL_DMA_SetMode>:
{
 80029e8:	b480      	push	{r7}
 80029ea:	b085      	sub	sp, #20
 80029ec:	af00      	add	r7, sp, #0
 80029ee:	60f8      	str	r0, [r7, #12]
 80029f0:	60b9      	str	r1, [r7, #8]
 80029f2:	607a      	str	r2, [r7, #4]
  MODIFY_REG(((DMA_Channel_TypeDef *)((uint32_t)((uint32_t)DMAx + CHANNEL_OFFSET_TAB[Channel - 1U])))->CCR, DMA_CCR_CIRC,
 80029f4:	68bb      	ldr	r3, [r7, #8]
 80029f6:	3b01      	subs	r3, #1
 80029f8:	4a0c      	ldr	r2, [pc, #48]	; (8002a2c <LL_DMA_SetMode+0x44>)
 80029fa:	5cd3      	ldrb	r3, [r2, r3]
 80029fc:	461a      	mov	r2, r3
 80029fe:	68fb      	ldr	r3, [r7, #12]
 8002a00:	4413      	add	r3, r2
 8002a02:	681b      	ldr	r3, [r3, #0]
 8002a04:	f023 0220 	bic.w	r2, r3, #32
 8002a08:	68bb      	ldr	r3, [r7, #8]
 8002a0a:	3b01      	subs	r3, #1
 8002a0c:	4907      	ldr	r1, [pc, #28]	; (8002a2c <LL_DMA_SetMode+0x44>)
 8002a0e:	5ccb      	ldrb	r3, [r1, r3]
 8002a10:	4619      	mov	r1, r3
 8002a12:	68fb      	ldr	r3, [r7, #12]
 8002a14:	440b      	add	r3, r1
 8002a16:	4619      	mov	r1, r3
 8002a18:	687b      	ldr	r3, [r7, #4]
 8002a1a:	4313      	orrs	r3, r2
 8002a1c:	600b      	str	r3, [r1, #0]
}
 8002a1e:	bf00      	nop
 8002a20:	3714      	adds	r7, #20
 8002a22:	46bd      	mov	sp, r7
 8002a24:	f85d 7b04 	ldr.w	r7, [sp], #4
 8002a28:	4770      	bx	lr
 8002a2a:	bf00      	nop
 8002a2c:	080066f0 	.word	0x080066f0

08002a30 <LL_DMA_SetPeriphIncMode>:
{
 8002a30:	b480      	push	{r7}
 8002a32:	b085      	sub	sp, #20
 8002a34:	af00      	add	r7, sp, #0
 8002a36:	60f8      	str	r0, [r7, #12]
 8002a38:	60b9      	str	r1, [r7, #8]
 8002a3a:	607a      	str	r2, [r7, #4]
  MODIFY_REG(((DMA_Channel_TypeDef *)((uint32_t)((uint32_t)DMAx + CHANNEL_OFFSET_TAB[Channel - 1U])))->CCR, DMA_CCR_PINC,
 8002a3c:	68bb      	ldr	r3, [r7, #8]
 8002a3e:	3b01      	subs	r3, #1
 8002a40:	4a0c      	ldr	r2, [pc, #48]	; (8002a74 <LL_DMA_SetPeriphIncMode+0x44>)
 8002a42:	5cd3      	ldrb	r3, [r2, r3]
 8002a44:	461a      	mov	r2, r3
 8002a46:	68fb      	ldr	r3, [r7, #12]
 8002a48:	4413      	add	r3, r2
 8002a4a:	681b      	ldr	r3, [r3, #0]
 8002a4c:	f023 0240 	bic.w	r2, r3, #64	; 0x40
 8002a50:	68bb      	ldr	r3, [r7, #8]
 8002a52:	3b01      	subs	r3, #1
 8002a54:	4907      	ldr	r1, [pc, #28]	; (8002a74 <LL_DMA_SetPeriphIncMode+0x44>)
 8002a56:	5ccb      	ldrb	r3, [r1, r3]
 8002a58:	4619      	mov	r1, r3
 8002a5a:	68fb      	ldr	r3, [r7, #12]
 8002a5c:	440b      	add	r3, r1
 8002a5e:	4619      	mov	r1, r3
 8002a60:	687b      	ldr	r3, [r7, #4]
 8002a62:	4313      	orrs	r3, r2
 8002a64:	600b      	str	r3, [r1, #0]
}
 8002a66:	bf00      	nop
 8002a68:	3714      	adds	r7, #20
 8002a6a:	46bd      	mov	sp, r7
 8002a6c:	f85d 7b04 	ldr.w	r7, [sp], #4
 8002a70:	4770      	bx	lr
 8002a72:	bf00      	nop
 8002a74:	080066f0 	.word	0x080066f0

08002a78 <LL_DMA_SetMemoryIncMode>:
{
 8002a78:	b480      	push	{r7}
 8002a7a:	b085      	sub	sp, #20
 8002a7c:	af00      	add	r7, sp, #0
 8002a7e:	60f8      	str	r0, [r7, #12]
 8002a80:	60b9      	str	r1, [r7, #8]
 8002a82:	607a      	str	r2, [r7, #4]
  MODIFY_REG(((DMA_Channel_TypeDef *)((uint32_t)((uint32_t)DMAx + CHANNEL_OFFSET_TAB[Channel - 1U])))->CCR, DMA_CCR_MINC,
 8002a84:	68bb      	ldr	r3, [r7, #8]
 8002a86:	3b01      	subs	r3, #1
 8002a88:	4a0c      	ldr	r2, [pc, #48]	; (8002abc <LL_DMA_SetMemoryIncMode+0x44>)
 8002a8a:	5cd3      	ldrb	r3, [r2, r3]
 8002a8c:	461a      	mov	r2, r3
 8002a8e:	68fb      	ldr	r3, [r7, #12]
 8002a90:	4413      	add	r3, r2
 8002a92:	681b      	ldr	r3, [r3, #0]
 8002a94:	f023 0280 	bic.w	r2, r3, #128	; 0x80
 8002a98:	68bb      	ldr	r3, [r7, #8]
 8002a9a:	3b01      	subs	r3, #1
 8002a9c:	4907      	ldr	r1, [pc, #28]	; (8002abc <LL_DMA_SetMemoryIncMode+0x44>)
 8002a9e:	5ccb      	ldrb	r3, [r1, r3]
 8002aa0:	4619      	mov	r1, r3
 8002aa2:	68fb      	ldr	r3, [r7, #12]
 8002aa4:	440b      	add	r3, r1
 8002aa6:	4619      	mov	r1, r3
 8002aa8:	687b      	ldr	r3, [r7, #4]
 8002aaa:	4313      	orrs	r3, r2
 8002aac:	600b      	str	r3, [r1, #0]
}
 8002aae:	bf00      	nop
 8002ab0:	3714      	adds	r7, #20
 8002ab2:	46bd      	mov	sp, r7
 8002ab4:	f85d 7b04 	ldr.w	r7, [sp], #4
 8002ab8:	4770      	bx	lr
 8002aba:	bf00      	nop
 8002abc:	080066f0 	.word	0x080066f0

08002ac0 <LL_DMA_SetPeriphSize>:
{
 8002ac0:	b480      	push	{r7}
 8002ac2:	b085      	sub	sp, #20
 8002ac4:	af00      	add	r7, sp, #0
 8002ac6:	60f8      	str	r0, [r7, #12]
 8002ac8:	60b9      	str	r1, [r7, #8]
 8002aca:	607a      	str	r2, [r7, #4]
  MODIFY_REG(((DMA_Channel_TypeDef *)((uint32_t)((uint32_t)DMAx + CHANNEL_OFFSET_TAB[Channel - 1U])))->CCR, DMA_CCR_PSIZE,
 8002acc:	68bb      	ldr	r3, [r7, #8]
 8002ace:	3b01      	subs	r3, #1
 8002ad0:	4a0c      	ldr	r2, [pc, #48]	; (8002b04 <LL_DMA_SetPeriphSize+0x44>)
 8002ad2:	5cd3      	ldrb	r3, [r2, r3]
 8002ad4:	461a      	mov	r2, r3
 8002ad6:	68fb      	ldr	r3, [r7, #12]
 8002ad8:	4413      	add	r3, r2
 8002ada:	681b      	ldr	r3, [r3, #0]
 8002adc:	f423 7240 	bic.w	r2, r3, #768	; 0x300
 8002ae0:	68bb      	ldr	r3, [r7, #8]
 8002ae2:	3b01      	subs	r3, #1
 8002ae4:	4907      	ldr	r1, [pc, #28]	; (8002b04 <LL_DMA_SetPeriphSize+0x44>)
 8002ae6:	5ccb      	ldrb	r3, [r1, r3]
 8002ae8:	4619      	mov	r1, r3
 8002aea:	68fb      	ldr	r3, [r7, #12]
 8002aec:	440b      	add	r3, r1
 8002aee:	4619      	mov	r1, r3
 8002af0:	687b      	ldr	r3, [r7, #4]
 8002af2:	4313      	orrs	r3, r2
 8002af4:	600b      	str	r3, [r1, #0]
}
 8002af6:	bf00      	nop
 8002af8:	3714      	adds	r7, #20
 8002afa:	46bd      	mov	sp, r7
 8002afc:	f85d 7b04 	ldr.w	r7, [sp], #4
 8002b00:	4770      	bx	lr
 8002b02:	bf00      	nop
 8002b04:	080066f0 	.word	0x080066f0

08002b08 <LL_DMA_SetMemorySize>:
{
 8002b08:	b480      	push	{r7}
 8002b0a:	b085      	sub	sp, #20
 8002b0c:	af00      	add	r7, sp, #0
 8002b0e:	60f8      	str	r0, [r7, #12]
 8002b10:	60b9      	str	r1, [r7, #8]
 8002b12:	607a      	str	r2, [r7, #4]
  MODIFY_REG(((DMA_Channel_TypeDef *)((uint32_t)((uint32_t)DMAx + CHANNEL_OFFSET_TAB[Channel - 1U])))->CCR, DMA_CCR_MSIZE,
 8002b14:	68bb      	ldr	r3, [r7, #8]
 8002b16:	3b01      	subs	r3, #1
 8002b18:	4a0c      	ldr	r2, [pc, #48]	; (8002b4c <LL_DMA_SetMemorySize+0x44>)
 8002b1a:	5cd3      	ldrb	r3, [r2, r3]
 8002b1c:	461a      	mov	r2, r3
 8002b1e:	68fb      	ldr	r3, [r7, #12]
 8002b20:	4413      	add	r3, r2
 8002b22:	681b      	ldr	r3, [r3, #0]
 8002b24:	f423 6240 	bic.w	r2, r3, #3072	; 0xc00
 8002b28:	68bb      	ldr	r3, [r7, #8]
 8002b2a:	3b01      	subs	r3, #1
 8002b2c:	4907      	ldr	r1, [pc, #28]	; (8002b4c <LL_DMA_SetMemorySize+0x44>)
 8002b2e:	5ccb      	ldrb	r3, [r1, r3]
 8002b30:	4619      	mov	r1, r3
 8002b32:	68fb      	ldr	r3, [r7, #12]
 8002b34:	440b      	add	r3, r1
 8002b36:	4619      	mov	r1, r3
 8002b38:	687b      	ldr	r3, [r7, #4]
 8002b3a:	4313      	orrs	r3, r2
 8002b3c:	600b      	str	r3, [r1, #0]
}
 8002b3e:	bf00      	nop
 8002b40:	3714      	adds	r7, #20
 8002b42:	46bd      	mov	sp, r7
 8002b44:	f85d 7b04 	ldr.w	r7, [sp], #4
 8002b48:	4770      	bx	lr
 8002b4a:	bf00      	nop
 8002b4c:	080066f0 	.word	0x080066f0

08002b50 <LL_DMA_SetChannelPriorityLevel>:
{
 8002b50:	b480      	push	{r7}
 8002b52:	b085      	sub	sp, #20
 8002b54:	af00      	add	r7, sp, #0
 8002b56:	60f8      	str	r0, [r7, #12]
 8002b58:	60b9      	str	r1, [r7, #8]
 8002b5a:	607a      	str	r2, [r7, #4]
  MODIFY_REG(((DMA_Channel_TypeDef *)((uint32_t)((uint32_t)DMAx + CHANNEL_OFFSET_TAB[Channel - 1U])))->CCR, DMA_CCR_PL,
 8002b5c:	68bb      	ldr	r3, [r7, #8]
 8002b5e:	3b01      	subs	r3, #1
 8002b60:	4a0c      	ldr	r2, [pc, #48]	; (8002b94 <LL_DMA_SetChannelPriorityLevel+0x44>)
 8002b62:	5cd3      	ldrb	r3, [r2, r3]
 8002b64:	461a      	mov	r2, r3
 8002b66:	68fb      	ldr	r3, [r7, #12]
 8002b68:	4413      	add	r3, r2
 8002b6a:	681b      	ldr	r3, [r3, #0]
 8002b6c:	f423 5240 	bic.w	r2, r3, #12288	; 0x3000
 8002b70:	68bb      	ldr	r3, [r7, #8]
 8002b72:	3b01      	subs	r3, #1
 8002b74:	4907      	ldr	r1, [pc, #28]	; (8002b94 <LL_DMA_SetChannelPriorityLevel+0x44>)
 8002b76:	5ccb      	ldrb	r3, [r1, r3]
 8002b78:	4619      	mov	r1, r3
 8002b7a:	68fb      	ldr	r3, [r7, #12]
 8002b7c:	440b      	add	r3, r1
 8002b7e:	4619      	mov	r1, r3
 8002b80:	687b      	ldr	r3, [r7, #4]
 8002b82:	4313      	orrs	r3, r2
 8002b84:	600b      	str	r3, [r1, #0]
}
 8002b86:	bf00      	nop
 8002b88:	3714      	adds	r7, #20
 8002b8a:	46bd      	mov	sp, r7
 8002b8c:	f85d 7b04 	ldr.w	r7, [sp], #4
 8002b90:	4770      	bx	lr
 8002b92:	bf00      	nop
 8002b94:	080066f0 	.word	0x080066f0

08002b98 <LL_DMA_SetDataLength>:
{
 8002b98:	b480      	push	{r7}
 8002b9a:	b085      	sub	sp, #20
 8002b9c:	af00      	add	r7, sp, #0
 8002b9e:	60f8      	str	r0, [r7, #12]
 8002ba0:	60b9      	str	r1, [r7, #8]
 8002ba2:	607a      	str	r2, [r7, #4]
  MODIFY_REG(((DMA_Channel_TypeDef *)((uint32_t)((uint32_t)DMAx + CHANNEL_OFFSET_TAB[Channel - 1U])))->CNDTR,
 8002ba4:	68bb      	ldr	r3, [r7, #8]
 8002ba6:	3b01      	subs	r3, #1
 8002ba8:	4a0c      	ldr	r2, [pc, #48]	; (8002bdc <LL_DMA_SetDataLength+0x44>)
 8002baa:	5cd3      	ldrb	r3, [r2, r3]
 8002bac:	461a      	mov	r2, r3
 8002bae:	68fb      	ldr	r3, [r7, #12]
 8002bb0:	4413      	add	r3, r2
 8002bb2:	685b      	ldr	r3, [r3, #4]
 8002bb4:	0c1b      	lsrs	r3, r3, #16
 8002bb6:	041b      	lsls	r3, r3, #16
 8002bb8:	68ba      	ldr	r2, [r7, #8]
 8002bba:	3a01      	subs	r2, #1
 8002bbc:	4907      	ldr	r1, [pc, #28]	; (8002bdc <LL_DMA_SetDataLength+0x44>)
 8002bbe:	5c8a      	ldrb	r2, [r1, r2]
 8002bc0:	4611      	mov	r1, r2
 8002bc2:	68fa      	ldr	r2, [r7, #12]
 8002bc4:	440a      	add	r2, r1
 8002bc6:	4611      	mov	r1, r2
 8002bc8:	687a      	ldr	r2, [r7, #4]
 8002bca:	4313      	orrs	r3, r2
 8002bcc:	604b      	str	r3, [r1, #4]
}
 8002bce:	bf00      	nop
 8002bd0:	3714      	adds	r7, #20
 8002bd2:	46bd      	mov	sp, r7
 8002bd4:	f85d 7b04 	ldr.w	r7, [sp], #4
 8002bd8:	4770      	bx	lr
 8002bda:	bf00      	nop
 8002bdc:	080066f0 	.word	0x080066f0

08002be0 <LL_DMA_GetDataLength>:
{
 8002be0:	b480      	push	{r7}
 8002be2:	b083      	sub	sp, #12
 8002be4:	af00      	add	r7, sp, #0
 8002be6:	6078      	str	r0, [r7, #4]
 8002be8:	6039      	str	r1, [r7, #0]
  return (READ_BIT(((DMA_Channel_TypeDef *)((uint32_t)((uint32_t)DMAx + CHANNEL_OFFSET_TAB[Channel - 1U])))->CNDTR,
 8002bea:	683b      	ldr	r3, [r7, #0]
 8002bec:	3b01      	subs	r3, #1
 8002bee:	4a06      	ldr	r2, [pc, #24]	; (8002c08 <LL_DMA_GetDataLength+0x28>)
 8002bf0:	5cd3      	ldrb	r3, [r2, r3]
 8002bf2:	461a      	mov	r2, r3
 8002bf4:	687b      	ldr	r3, [r7, #4]
 8002bf6:	4413      	add	r3, r2
 8002bf8:	685b      	ldr	r3, [r3, #4]
 8002bfa:	b29b      	uxth	r3, r3
}
 8002bfc:	4618      	mov	r0, r3
 8002bfe:	370c      	adds	r7, #12
 8002c00:	46bd      	mov	sp, r7
 8002c02:	f85d 7b04 	ldr.w	r7, [sp], #4
 8002c06:	4770      	bx	lr
 8002c08:	080066f0 	.word	0x080066f0

08002c0c <LL_DMA_ConfigAddresses>:
{
 8002c0c:	b480      	push	{r7}
 8002c0e:	b085      	sub	sp, #20
 8002c10:	af00      	add	r7, sp, #0
 8002c12:	60f8      	str	r0, [r7, #12]
 8002c14:	60b9      	str	r1, [r7, #8]
 8002c16:	607a      	str	r2, [r7, #4]
 8002c18:	603b      	str	r3, [r7, #0]
  if (Direction == LL_DMA_DIRECTION_MEMORY_TO_PERIPH)
 8002c1a:	69bb      	ldr	r3, [r7, #24]
 8002c1c:	2b10      	cmp	r3, #16
 8002c1e:	d114      	bne.n	8002c4a <LL_DMA_ConfigAddresses+0x3e>
    WRITE_REG(((DMA_Channel_TypeDef *)((uint32_t)((uint32_t)DMAx + CHANNEL_OFFSET_TAB[Channel - 1U])))->CMAR, SrcAddress);
 8002c20:	68bb      	ldr	r3, [r7, #8]
 8002c22:	3b01      	subs	r3, #1
 8002c24:	4a16      	ldr	r2, [pc, #88]	; (8002c80 <LL_DMA_ConfigAddresses+0x74>)
 8002c26:	5cd3      	ldrb	r3, [r2, r3]
 8002c28:	461a      	mov	r2, r3
 8002c2a:	68fb      	ldr	r3, [r7, #12]
 8002c2c:	4413      	add	r3, r2
 8002c2e:	461a      	mov	r2, r3
 8002c30:	687b      	ldr	r3, [r7, #4]
 8002c32:	60d3      	str	r3, [r2, #12]
    WRITE_REG(((DMA_Channel_TypeDef *)((uint32_t)((uint32_t)DMAx + CHANNEL_OFFSET_TAB[Channel - 1U])))->CPAR, DstAddress);
 8002c34:	68bb      	ldr	r3, [r7, #8]
 8002c36:	3b01      	subs	r3, #1
 8002c38:	4a11      	ldr	r2, [pc, #68]	; (8002c80 <LL_DMA_ConfigAddresses+0x74>)
 8002c3a:	5cd3      	ldrb	r3, [r2, r3]
 8002c3c:	461a      	mov	r2, r3
 8002c3e:	68fb      	ldr	r3, [r7, #12]
 8002c40:	4413      	add	r3, r2
 8002c42:	461a      	mov	r2, r3
 8002c44:	683b      	ldr	r3, [r7, #0]
 8002c46:	6093      	str	r3, [r2, #8]
}
 8002c48:	e013      	b.n	8002c72 <LL_DMA_ConfigAddresses+0x66>
    WRITE_REG(((DMA_Channel_TypeDef *)((uint32_t)((uint32_t)DMAx + CHANNEL_OFFSET_TAB[Channel - 1U])))->CPAR, SrcAddress);
 8002c4a:	68bb      	ldr	r3, [r7, #8]
 8002c4c:	3b01      	subs	r3, #1
 8002c4e:	4a0c      	ldr	r2, [pc, #48]	; (8002c80 <LL_DMA_ConfigAddresses+0x74>)
 8002c50:	5cd3      	ldrb	r3, [r2, r3]
 8002c52:	461a      	mov	r2, r3
 8002c54:	68fb      	ldr	r3, [r7, #12]
 8002c56:	4413      	add	r3, r2
 8002c58:	461a      	mov	r2, r3
 8002c5a:	687b      	ldr	r3, [r7, #4]
 8002c5c:	6093      	str	r3, [r2, #8]
    WRITE_REG(((DMA_Channel_TypeDef *)((uint32_t)((uint32_t)DMAx + CHANNEL_OFFSET_TAB[Channel - 1U])))->CMAR, DstAddress);
 8002c5e:	68bb      	ldr	r3, [r7, #8]
 8002c60:	3b01      	subs	r3, #1
 8002c62:	4a07      	ldr	r2, [pc, #28]	; (8002c80 <LL_DMA_ConfigAddresses+0x74>)
 8002c64:	5cd3      	ldrb	r3, [r2, r3]
 8002c66:	461a      	mov	r2, r3
 8002c68:	68fb      	ldr	r3, [r7, #12]
 8002c6a:	4413      	add	r3, r2
 8002c6c:	461a      	mov	r2, r3
 8002c6e:	683b      	ldr	r3, [r7, #0]
 8002c70:	60d3      	str	r3, [r2, #12]
}
 8002c72:	bf00      	nop
 8002c74:	3714      	adds	r7, #20
 8002c76:	46bd      	mov	sp, r7
 8002c78:	f85d 7b04 	ldr.w	r7, [sp], #4
 8002c7c:	4770      	bx	lr
 8002c7e:	bf00      	nop
 8002c80:	080066f0 	.word	0x080066f0

08002c84 <LL_DMA_SetMemoryAddress>:
{
 8002c84:	b480      	push	{r7}
 8002c86:	b085      	sub	sp, #20
 8002c88:	af00      	add	r7, sp, #0
 8002c8a:	60f8      	str	r0, [r7, #12]
 8002c8c:	60b9      	str	r1, [r7, #8]
 8002c8e:	607a      	str	r2, [r7, #4]
  WRITE_REG(((DMA_Channel_TypeDef *)((uint32_t)((uint32_t)DMAx + CHANNEL_OFFSET_TAB[Channel - 1U])))->CMAR, MemoryAddress);
 8002c90:	68bb      	ldr	r3, [r7, #8]
 8002c92:	3b01      	subs	r3, #1
 8002c94:	4a06      	ldr	r2, [pc, #24]	; (8002cb0 <LL_DMA_SetMemoryAddress+0x2c>)
 8002c96:	5cd3      	ldrb	r3, [r2, r3]
 8002c98:	461a      	mov	r2, r3
 8002c9a:	68fb      	ldr	r3, [r7, #12]
 8002c9c:	4413      	add	r3, r2
 8002c9e:	461a      	mov	r2, r3
 8002ca0:	687b      	ldr	r3, [r7, #4]
 8002ca2:	60d3      	str	r3, [r2, #12]
}
 8002ca4:	bf00      	nop
 8002ca6:	3714      	adds	r7, #20
 8002ca8:	46bd      	mov	sp, r7
 8002caa:	f85d 7b04 	ldr.w	r7, [sp], #4
 8002cae:	4770      	bx	lr
 8002cb0:	080066f0 	.word	0x080066f0

08002cb4 <LL_DMA_SetPeriphAddress>:
{
 8002cb4:	b480      	push	{r7}
 8002cb6:	b085      	sub	sp, #20
 8002cb8:	af00      	add	r7, sp, #0
 8002cba:	60f8      	str	r0, [r7, #12]
 8002cbc:	60b9      	str	r1, [r7, #8]
 8002cbe:	607a      	str	r2, [r7, #4]
  WRITE_REG(((DMA_Channel_TypeDef *)((uint32_t)((uint32_t)DMAx + CHANNEL_OFFSET_TAB[Channel - 1U])))->CPAR, PeriphAddress);
 8002cc0:	68bb      	ldr	r3, [r7, #8]
 8002cc2:	3b01      	subs	r3, #1
 8002cc4:	4a06      	ldr	r2, [pc, #24]	; (8002ce0 <LL_DMA_SetPeriphAddress+0x2c>)
 8002cc6:	5cd3      	ldrb	r3, [r2, r3]
 8002cc8:	461a      	mov	r2, r3
 8002cca:	68fb      	ldr	r3, [r7, #12]
 8002ccc:	4413      	add	r3, r2
 8002cce:	461a      	mov	r2, r3
 8002cd0:	687b      	ldr	r3, [r7, #4]
 8002cd2:	6093      	str	r3, [r2, #8]
}
 8002cd4:	bf00      	nop
 8002cd6:	3714      	adds	r7, #20
 8002cd8:	46bd      	mov	sp, r7
 8002cda:	f85d 7b04 	ldr.w	r7, [sp], #4
 8002cde:	4770      	bx	lr
 8002ce0:	080066f0 	.word	0x080066f0

08002ce4 <LL_DMA_EnableIT_TC>:
  *         @arg @ref LL_DMA_CHANNEL_6
  *         @arg @ref LL_DMA_CHANNEL_7
  * @retval None
  */
__STATIC_INLINE void LL_DMA_EnableIT_TC(DMA_TypeDef *DMAx, uint32_t Channel)
{
 8002ce4:	b480      	push	{r7}
 8002ce6:	b083      	sub	sp, #12
 8002ce8:	af00      	add	r7, sp, #0
 8002cea:	6078      	str	r0, [r7, #4]
 8002cec:	6039      	str	r1, [r7, #0]
  SET_BIT(((DMA_Channel_TypeDef *)((uint32_t)((uint32_t)DMAx + CHANNEL_OFFSET_TAB[Channel - 1U])))->CCR, DMA_CCR_TCIE);
 8002cee:	683b      	ldr	r3, [r7, #0]
 8002cf0:	3b01      	subs	r3, #1
 8002cf2:	4a0b      	ldr	r2, [pc, #44]	; (8002d20 <LL_DMA_EnableIT_TC+0x3c>)
 8002cf4:	5cd3      	ldrb	r3, [r2, r3]
 8002cf6:	461a      	mov	r2, r3
 8002cf8:	687b      	ldr	r3, [r7, #4]
 8002cfa:	4413      	add	r3, r2
 8002cfc:	681b      	ldr	r3, [r3, #0]
 8002cfe:	683a      	ldr	r2, [r7, #0]
 8002d00:	3a01      	subs	r2, #1
 8002d02:	4907      	ldr	r1, [pc, #28]	; (8002d20 <LL_DMA_EnableIT_TC+0x3c>)
 8002d04:	5c8a      	ldrb	r2, [r1, r2]
 8002d06:	4611      	mov	r1, r2
 8002d08:	687a      	ldr	r2, [r7, #4]
 8002d0a:	440a      	add	r2, r1
 8002d0c:	f043 0302 	orr.w	r3, r3, #2
 8002d10:	6013      	str	r3, [r2, #0]
}
 8002d12:	bf00      	nop
 8002d14:	370c      	adds	r7, #12
 8002d16:	46bd      	mov	sp, r7
 8002d18:	f85d 7b04 	ldr.w	r7, [sp], #4
 8002d1c:	4770      	bx	lr
 8002d1e:	bf00      	nop
 8002d20:	080066f0 	.word	0x080066f0

08002d24 <LL_DMA_EnableIT_HT>:
  *         @arg @ref LL_DMA_CHANNEL_6
  *         @arg @ref LL_DMA_CHANNEL_7
  * @retval None
  */
__STATIC_INLINE void LL_DMA_EnableIT_HT(DMA_TypeDef *DMAx, uint32_t Channel)
{
 8002d24:	b480      	push	{r7}
 8002d26:	b083      	sub	sp, #12
 8002d28:	af00      	add	r7, sp, #0
 8002d2a:	6078      	str	r0, [r7, #4]
 8002d2c:	6039      	str	r1, [r7, #0]
  SET_BIT(((DMA_Channel_TypeDef *)((uint32_t)((uint32_t)DMAx + CHANNEL_OFFSET_TAB[Channel - 1U])))->CCR, DMA_CCR_HTIE);
 8002d2e:	683b      	ldr	r3, [r7, #0]
 8002d30:	3b01      	subs	r3, #1
 8002d32:	4a0b      	ldr	r2, [pc, #44]	; (8002d60 <LL_DMA_EnableIT_HT+0x3c>)
 8002d34:	5cd3      	ldrb	r3, [r2, r3]
 8002d36:	461a      	mov	r2, r3
 8002d38:	687b      	ldr	r3, [r7, #4]
 8002d3a:	4413      	add	r3, r2
 8002d3c:	681b      	ldr	r3, [r3, #0]
 8002d3e:	683a      	ldr	r2, [r7, #0]
 8002d40:	3a01      	subs	r2, #1
 8002d42:	4907      	ldr	r1, [pc, #28]	; (8002d60 <LL_DMA_EnableIT_HT+0x3c>)
 8002d44:	5c8a      	ldrb	r2, [r1, r2]
 8002d46:	4611      	mov	r1, r2
 8002d48:	687a      	ldr	r2, [r7, #4]
 8002d4a:	440a      	add	r2, r1
 8002d4c:	f043 0304 	orr.w	r3, r3, #4
 8002d50:	6013      	str	r3, [r2, #0]
}
 8002d52:	bf00      	nop
 8002d54:	370c      	adds	r7, #12
 8002d56:	46bd      	mov	sp, r7
 8002d58:	f85d 7b04 	ldr.w	r7, [sp], #4
 8002d5c:	4770      	bx	lr
 8002d5e:	bf00      	nop
 8002d60:	080066f0 	.word	0x080066f0

08002d64 <LL_DMA_EnableIT_TE>:
  *         @arg @ref LL_DMA_CHANNEL_6
  *         @arg @ref LL_DMA_CHANNEL_7
  * @retval None
  */
__STATIC_INLINE void LL_DMA_EnableIT_TE(DMA_TypeDef *DMAx, uint32_t Channel)
{
 8002d64:	b480      	push	{r7}
 8002d66:	b083      	sub	sp, #12
 8002d68:	af00      	add	r7, sp, #0
 8002d6a:	6078      	str	r0, [r7, #4]
 8002d6c:	6039      	str	r1, [r7, #0]
  SET_BIT(((DMA_Channel_TypeDef *)((uint32_t)((uint32_t)DMAx + CHANNEL_OFFSET_TAB[Channel - 1U])))->CCR, DMA_CCR_TEIE);
 8002d6e:	683b      	ldr	r3, [r7, #0]
 8002d70:	3b01      	subs	r3, #1
 8002d72:	4a0b      	ldr	r2, [pc, #44]	; (8002da0 <LL_DMA_EnableIT_TE+0x3c>)
 8002d74:	5cd3      	ldrb	r3, [r2, r3]
 8002d76:	461a      	mov	r2, r3
 8002d78:	687b      	ldr	r3, [r7, #4]
 8002d7a:	4413      	add	r3, r2
 8002d7c:	681b      	ldr	r3, [r3, #0]
 8002d7e:	683a      	ldr	r2, [r7, #0]
 8002d80:	3a01      	subs	r2, #1
 8002d82:	4907      	ldr	r1, [pc, #28]	; (8002da0 <LL_DMA_EnableIT_TE+0x3c>)
 8002d84:	5c8a      	ldrb	r2, [r1, r2]
 8002d86:	4611      	mov	r1, r2
 8002d88:	687a      	ldr	r2, [r7, #4]
 8002d8a:	440a      	add	r2, r1
 8002d8c:	f043 0308 	orr.w	r3, r3, #8
 8002d90:	6013      	str	r3, [r2, #0]
}
 8002d92:	bf00      	nop
 8002d94:	370c      	adds	r7, #12
 8002d96:	46bd      	mov	sp, r7
 8002d98:	f85d 7b04 	ldr.w	r7, [sp], #4
 8002d9c:	4770      	bx	lr
 8002d9e:	bf00      	nop
 8002da0:	080066f0 	.word	0x080066f0

08002da4 <LL_USART_Enable>:
{
 8002da4:	b480      	push	{r7}
 8002da6:	b083      	sub	sp, #12
 8002da8:	af00      	add	r7, sp, #0
 8002daa:	6078      	str	r0, [r7, #4]
  SET_BIT(USARTx->CR1, USART_CR1_UE);
 8002dac:	687b      	ldr	r3, [r7, #4]
 8002dae:	681b      	ldr	r3, [r3, #0]
 8002db0:	f043 0201 	orr.w	r2, r3, #1
 8002db4:	687b      	ldr	r3, [r7, #4]
 8002db6:	601a      	str	r2, [r3, #0]
}
 8002db8:	bf00      	nop
 8002dba:	370c      	adds	r7, #12
 8002dbc:	46bd      	mov	sp, r7
 8002dbe:	f85d 7b04 	ldr.w	r7, [sp], #4
 8002dc2:	4770      	bx	lr

08002dc4 <LL_USART_ConfigAsyncMode>:
{
 8002dc4:	b480      	push	{r7}
 8002dc6:	b083      	sub	sp, #12
 8002dc8:	af00      	add	r7, sp, #0
 8002dca:	6078      	str	r0, [r7, #4]
  CLEAR_BIT(USARTx->CR2, (USART_CR2_LINEN | USART_CR2_CLKEN));
 8002dcc:	687b      	ldr	r3, [r7, #4]
 8002dce:	685b      	ldr	r3, [r3, #4]
 8002dd0:	f423 4290 	bic.w	r2, r3, #18432	; 0x4800
 8002dd4:	687b      	ldr	r3, [r7, #4]
 8002dd6:	605a      	str	r2, [r3, #4]
  CLEAR_BIT(USARTx->CR3, (USART_CR3_SCEN | USART_CR3_IREN | USART_CR3_HDSEL));
 8002dd8:	687b      	ldr	r3, [r7, #4]
 8002dda:	689b      	ldr	r3, [r3, #8]
 8002ddc:	f023 022a 	bic.w	r2, r3, #42	; 0x2a
 8002de0:	687b      	ldr	r3, [r7, #4]
 8002de2:	609a      	str	r2, [r3, #8]
}
 8002de4:	bf00      	nop
 8002de6:	370c      	adds	r7, #12
 8002de8:	46bd      	mov	sp, r7
 8002dea:	f85d 7b04 	ldr.w	r7, [sp], #4
 8002dee:	4770      	bx	lr

08002df0 <LL_USART_EnableIT_IDLE>:
  * @rmtoll CR1          IDLEIE        LL_USART_EnableIT_IDLE
  * @param  USARTx USART Instance
  * @retval None
  */
__STATIC_INLINE void LL_USART_EnableIT_IDLE(USART_TypeDef *USARTx)
{
 8002df0:	b480      	push	{r7}
 8002df2:	b083      	sub	sp, #12
 8002df4:	af00      	add	r7, sp, #0
 8002df6:	6078      	str	r0, [r7, #4]
  SET_BIT(USARTx->CR1, USART_CR1_IDLEIE);
 8002df8:	687b      	ldr	r3, [r7, #4]
 8002dfa:	681b      	ldr	r3, [r3, #0]
 8002dfc:	f043 0210 	orr.w	r2, r3, #16
 8002e00:	687b      	ldr	r3, [r7, #4]
 8002e02:	601a      	str	r2, [r3, #0]
}
 8002e04:	bf00      	nop
 8002e06:	370c      	adds	r7, #12
 8002e08:	46bd      	mov	sp, r7
 8002e0a:	f85d 7b04 	ldr.w	r7, [sp], #4
 8002e0e:	4770      	bx	lr

08002e10 <LL_USART_DisableIT_CTS>:
  * @rmtoll CR3          CTSIE         LL_USART_DisableIT_CTS
  * @param  USARTx USART Instance
  * @retval None
  */
__STATIC_INLINE void LL_USART_DisableIT_CTS(USART_TypeDef *USARTx)
{
 8002e10:	b480      	push	{r7}
 8002e12:	b083      	sub	sp, #12
 8002e14:	af00      	add	r7, sp, #0
 8002e16:	6078      	str	r0, [r7, #4]
  CLEAR_BIT(USARTx->CR3, USART_CR3_CTSIE);
 8002e18:	687b      	ldr	r3, [r7, #4]
 8002e1a:	689b      	ldr	r3, [r3, #8]
 8002e1c:	f423 6280 	bic.w	r2, r3, #1024	; 0x400
 8002e20:	687b      	ldr	r3, [r7, #4]
 8002e22:	609a      	str	r2, [r3, #8]
}
 8002e24:	bf00      	nop
 8002e26:	370c      	adds	r7, #12
 8002e28:	46bd      	mov	sp, r7
 8002e2a:	f85d 7b04 	ldr.w	r7, [sp], #4
 8002e2e:	4770      	bx	lr

08002e30 <LL_USART_EnableDMAReq_RX>:
  * @rmtoll CR3          DMAR          LL_USART_EnableDMAReq_RX
  * @param  USARTx USART Instance
  * @retval None
  */
__STATIC_INLINE void LL_USART_EnableDMAReq_RX(USART_TypeDef *USARTx)
{
 8002e30:	b480      	push	{r7}
 8002e32:	b083      	sub	sp, #12
 8002e34:	af00      	add	r7, sp, #0
 8002e36:	6078      	str	r0, [r7, #4]
  SET_BIT(USARTx->CR3, USART_CR3_DMAR);
 8002e38:	687b      	ldr	r3, [r7, #4]
 8002e3a:	689b      	ldr	r3, [r3, #8]
 8002e3c:	f043 0240 	orr.w	r2, r3, #64	; 0x40
 8002e40:	687b      	ldr	r3, [r7, #4]
 8002e42:	609a      	str	r2, [r3, #8]
}
 8002e44:	bf00      	nop
 8002e46:	370c      	adds	r7, #12
 8002e48:	46bd      	mov	sp, r7
 8002e4a:	f85d 7b04 	ldr.w	r7, [sp], #4
 8002e4e:	4770      	bx	lr

08002e50 <LL_USART_EnableDMAReq_TX>:
  * @rmtoll CR3          DMAT          LL_USART_EnableDMAReq_TX
  * @param  USARTx USART Instance
  * @retval None
  */
__STATIC_INLINE void LL_USART_EnableDMAReq_TX(USART_TypeDef *USARTx)
{
 8002e50:	b480      	push	{r7}
 8002e52:	b083      	sub	sp, #12
 8002e54:	af00      	add	r7, sp, #0
 8002e56:	6078      	str	r0, [r7, #4]
  SET_BIT(USARTx->CR3, USART_CR3_DMAT);
 8002e58:	687b      	ldr	r3, [r7, #4]
 8002e5a:	689b      	ldr	r3, [r3, #8]
 8002e5c:	f043 0280 	orr.w	r2, r3, #128	; 0x80
 8002e60:	687b      	ldr	r3, [r7, #4]
 8002e62:	609a      	str	r2, [r3, #8]
}
 8002e64:	bf00      	nop
 8002e66:	370c      	adds	r7, #12
 8002e68:	46bd      	mov	sp, r7
 8002e6a:	f85d 7b04 	ldr.w	r7, [sp], #4
 8002e6e:	4770      	bx	lr

08002e70 <LL_USART_DMA_GetRegAddr>:
  *         @arg @ref LL_USART_DMA_REG_DATA_TRANSMIT
  *         @arg @ref LL_USART_DMA_REG_DATA_RECEIVE
  * @retval Address of data register
  */
__STATIC_INLINE uint32_t LL_USART_DMA_GetRegAddr(USART_TypeDef *USARTx, uint32_t Direction)
{
 8002e70:	b490      	push	{r4, r7}
 8002e72:	b082      	sub	sp, #8
 8002e74:	af00      	add	r7, sp, #0
 8002e76:	6078      	str	r0, [r7, #4]
 8002e78:	6039      	str	r1, [r7, #0]
  register uint32_t data_reg_addr = 0U;

  if (Direction == LL_USART_DMA_REG_DATA_TRANSMIT)
 8002e7a:	683b      	ldr	r3, [r7, #0]
 8002e7c:	2b00      	cmp	r3, #0
 8002e7e:	d103      	bne.n	8002e88 <LL_USART_DMA_GetRegAddr+0x18>
  {
    /* return address of TDR register */
    data_reg_addr = (uint32_t) &(USARTx->TDR);
 8002e80:	687b      	ldr	r3, [r7, #4]
 8002e82:	3328      	adds	r3, #40	; 0x28
 8002e84:	461c      	mov	r4, r3
 8002e86:	e002      	b.n	8002e8e <LL_USART_DMA_GetRegAddr+0x1e>
  }
  else
  {
    /* return address of RDR register */
    data_reg_addr = (uint32_t) &(USARTx->RDR);
 8002e88:	687b      	ldr	r3, [r7, #4]
 8002e8a:	3324      	adds	r3, #36	; 0x24
 8002e8c:	461c      	mov	r4, r3
  }

  return data_reg_addr;
 8002e8e:	4623      	mov	r3, r4
}
 8002e90:	4618      	mov	r0, r3
 8002e92:	3708      	adds	r7, #8
 8002e94:	46bd      	mov	sp, r7
 8002e96:	bc90      	pop	{r4, r7}
 8002e98:	4770      	bx	lr
	...

08002e9c <MX_USART2_UART_Init>:
	}
}

/* USART2 init function */
void MX_USART2_UART_Init(void)
{
 8002e9c:	b5b0      	push	{r4, r5, r7, lr}
 8002e9e:	b090      	sub	sp, #64	; 0x40
 8002ea0:	af02      	add	r7, sp, #8
  LL_USART_InitTypeDef USART_InitStruct = {0};
 8002ea2:	f107 031c 	add.w	r3, r7, #28
 8002ea6:	2200      	movs	r2, #0
 8002ea8:	601a      	str	r2, [r3, #0]
 8002eaa:	605a      	str	r2, [r3, #4]
 8002eac:	609a      	str	r2, [r3, #8]
 8002eae:	60da      	str	r2, [r3, #12]
 8002eb0:	611a      	str	r2, [r3, #16]
 8002eb2:	615a      	str	r2, [r3, #20]
 8002eb4:	619a      	str	r2, [r3, #24]

  LL_GPIO_InitTypeDef GPIO_InitStruct = {0};
 8002eb6:	1d3b      	adds	r3, r7, #4
 8002eb8:	2200      	movs	r2, #0
 8002eba:	601a      	str	r2, [r3, #0]
 8002ebc:	605a      	str	r2, [r3, #4]
 8002ebe:	609a      	str	r2, [r3, #8]
 8002ec0:	60da      	str	r2, [r3, #12]
 8002ec2:	611a      	str	r2, [r3, #16]
 8002ec4:	615a      	str	r2, [r3, #20]
  /* Peripheral clock enable */
  LL_APB1_GRP1_EnableClock(LL_APB1_GRP1_PERIPH_USART2);
 8002ec6:	f44f 3000 	mov.w	r0, #131072	; 0x20000
 8002eca:	f7ff fcf7 	bl	80028bc <LL_APB1_GRP1_EnableClock>
  
  LL_AHB1_GRP1_EnableClock(LL_AHB1_GRP1_PERIPH_GPIOA);
 8002ece:	f44f 3000 	mov.w	r0, #131072	; 0x20000
 8002ed2:	f7ff fcdb 	bl	800288c <LL_AHB1_GRP1_EnableClock>
  /**USART2 GPIO Configuration  
  PA2   ------> USART2_TX
  PA15   ------> USART2_RX 
  */
  GPIO_InitStruct.Pin = LL_GPIO_PIN_2|LL_GPIO_PIN_15;
 8002ed6:	f248 0304 	movw	r3, #32772	; 0x8004
 8002eda:	607b      	str	r3, [r7, #4]
  GPIO_InitStruct.Mode = LL_GPIO_MODE_ALTERNATE;
 8002edc:	2302      	movs	r3, #2
 8002ede:	60bb      	str	r3, [r7, #8]
  GPIO_InitStruct.Speed = LL_GPIO_SPEED_FREQ_HIGH;
 8002ee0:	2303      	movs	r3, #3
 8002ee2:	60fb      	str	r3, [r7, #12]
  GPIO_InitStruct.OutputType = LL_GPIO_OUTPUT_PUSHPULL;
 8002ee4:	2300      	movs	r3, #0
 8002ee6:	613b      	str	r3, [r7, #16]
  GPIO_InitStruct.Pull = LL_GPIO_PULL_NO;
 8002ee8:	2300      	movs	r3, #0
 8002eea:	617b      	str	r3, [r7, #20]
  GPIO_InitStruct.Alternate = LL_GPIO_AF_7;
 8002eec:	2307      	movs	r3, #7
 8002eee:	61bb      	str	r3, [r7, #24]
  LL_GPIO_Init(GPIOA, &GPIO_InitStruct);
 8002ef0:	1d3b      	adds	r3, r7, #4
 8002ef2:	4619      	mov	r1, r3
 8002ef4:	f04f 4090 	mov.w	r0, #1207959552	; 0x48000000
 8002ef8:	f7fd ff51 	bl	8000d9e <LL_GPIO_Init>
   * You can use configuration from example program and modify it.
   * For more information about DMA registers, refer to reference manual.
   */
  
  /* USART2_RX Init */
  LL_DMA_SetDataTransferDirection(DMA1, LL_DMA_CHANNEL_6, LL_DMA_DIRECTION_PERIPH_TO_MEMORY);
 8002efc:	2200      	movs	r2, #0
 8002efe:	2106      	movs	r1, #6
 8002f00:	4855      	ldr	r0, [pc, #340]	; (8003058 <MX_USART2_UART_Init+0x1bc>)
 8002f02:	f7ff fd33 	bl	800296c <LL_DMA_SetDataTransferDirection>
  LL_DMA_SetChannelPriorityLevel(DMA1, LL_DMA_CHANNEL_6, LL_DMA_PRIORITY_MEDIUM);
 8002f06:	f44f 5280 	mov.w	r2, #4096	; 0x1000
 8002f0a:	2106      	movs	r1, #6
 8002f0c:	4852      	ldr	r0, [pc, #328]	; (8003058 <MX_USART2_UART_Init+0x1bc>)
 8002f0e:	f7ff fe1f 	bl	8002b50 <LL_DMA_SetChannelPriorityLevel>
  LL_DMA_SetMode(DMA1, LL_DMA_CHANNEL_6, LL_DMA_MODE_NORMAL);
 8002f12:	2200      	movs	r2, #0
 8002f14:	2106      	movs	r1, #6
 8002f16:	4850      	ldr	r0, [pc, #320]	; (8003058 <MX_USART2_UART_Init+0x1bc>)
 8002f18:	f7ff fd66 	bl	80029e8 <LL_DMA_SetMode>
  LL_DMA_SetPeriphIncMode(DMA1, LL_DMA_CHANNEL_6, LL_DMA_PERIPH_NOINCREMENT);
 8002f1c:	2200      	movs	r2, #0
 8002f1e:	2106      	movs	r1, #6
 8002f20:	484d      	ldr	r0, [pc, #308]	; (8003058 <MX_USART2_UART_Init+0x1bc>)
 8002f22:	f7ff fd85 	bl	8002a30 <LL_DMA_SetPeriphIncMode>
  LL_DMA_SetMemoryIncMode(DMA1, LL_DMA_CHANNEL_6, LL_DMA_MEMORY_INCREMENT);
 8002f26:	2280      	movs	r2, #128	; 0x80
 8002f28:	2106      	movs	r1, #6
 8002f2a:	484b      	ldr	r0, [pc, #300]	; (8003058 <MX_USART2_UART_Init+0x1bc>)
 8002f2c:	f7ff fda4 	bl	8002a78 <LL_DMA_SetMemoryIncMode>
  LL_DMA_SetPeriphSize(DMA1, LL_DMA_CHANNEL_6, LL_DMA_PDATAALIGN_BYTE);
 8002f30:	2200      	movs	r2, #0
 8002f32:	2106      	movs	r1, #6
 8002f34:	4848      	ldr	r0, [pc, #288]	; (8003058 <MX_USART2_UART_Init+0x1bc>)
 8002f36:	f7ff fdc3 	bl	8002ac0 <LL_DMA_SetPeriphSize>
  LL_DMA_SetMemorySize(DMA1, LL_DMA_CHANNEL_6, LL_DMA_MDATAALIGN_BYTE);
 8002f3a:	2200      	movs	r2, #0
 8002f3c:	2106      	movs	r1, #6
 8002f3e:	4846      	ldr	r0, [pc, #280]	; (8003058 <MX_USART2_UART_Init+0x1bc>)
 8002f40:	f7ff fde2 	bl	8002b08 <LL_DMA_SetMemorySize>

  LL_DMA_ConfigAddresses(	DMA1, LL_DMA_CHANNEL_6,
 8002f44:	2101      	movs	r1, #1
 8002f46:	4845      	ldr	r0, [pc, #276]	; (800305c <MX_USART2_UART_Init+0x1c0>)
 8002f48:	f7ff ff92 	bl	8002e70 <LL_USART_DMA_GetRegAddr>
 8002f4c:	4604      	mov	r4, r0
 8002f4e:	4d44      	ldr	r5, [pc, #272]	; (8003060 <MX_USART2_UART_Init+0x1c4>)
 8002f50:	2106      	movs	r1, #6
 8002f52:	4841      	ldr	r0, [pc, #260]	; (8003058 <MX_USART2_UART_Init+0x1bc>)
 8002f54:	f7ff fd30 	bl	80029b8 <LL_DMA_GetDataTransferDirection>
 8002f58:	4603      	mov	r3, r0
 8002f5a:	9300      	str	r3, [sp, #0]
 8002f5c:	462b      	mov	r3, r5
 8002f5e:	4622      	mov	r2, r4
 8002f60:	2106      	movs	r1, #6
 8002f62:	483d      	ldr	r0, [pc, #244]	; (8003058 <MX_USART2_UART_Init+0x1bc>)
 8002f64:	f7ff fe52 	bl	8002c0c <LL_DMA_ConfigAddresses>
						 	LL_USART_DMA_GetRegAddr(USART2, LL_USART_DMA_REG_DATA_RECEIVE),
							(uint32_t)bufferUSART2dma,
							LL_DMA_GetDataTransferDirection(DMA1, LL_DMA_CHANNEL_6));

  LL_DMA_SetDataLength(DMA1, LL_DMA_CHANNEL_6, DMA_USART2_BUFFER_SIZE);
 8002f68:	2280      	movs	r2, #128	; 0x80
 8002f6a:	2106      	movs	r1, #6
 8002f6c:	483a      	ldr	r0, [pc, #232]	; (8003058 <MX_USART2_UART_Init+0x1bc>)
 8002f6e:	f7ff fe13 	bl	8002b98 <LL_DMA_SetDataLength>
  LL_DMA_EnableChannel(DMA1, LL_DMA_CHANNEL_6);
 8002f72:	2106      	movs	r1, #6
 8002f74:	4838      	ldr	r0, [pc, #224]	; (8003058 <MX_USART2_UART_Init+0x1bc>)
 8002f76:	f7ff fcb9 	bl	80028ec <LL_DMA_EnableChannel>
  LL_USART_EnableDMAReq_RX(USART2);
 8002f7a:	4838      	ldr	r0, [pc, #224]	; (800305c <MX_USART2_UART_Init+0x1c0>)
 8002f7c:	f7ff ff58 	bl	8002e30 <LL_USART_EnableDMAReq_RX>


  LL_DMA_EnableIT_TC(DMA1, LL_DMA_CHANNEL_6);
 8002f80:	2106      	movs	r1, #6
 8002f82:	4835      	ldr	r0, [pc, #212]	; (8003058 <MX_USART2_UART_Init+0x1bc>)
 8002f84:	f7ff feae 	bl	8002ce4 <LL_DMA_EnableIT_TC>
  LL_DMA_EnableIT_HT(DMA1, LL_DMA_CHANNEL_6);
 8002f88:	2106      	movs	r1, #6
 8002f8a:	4833      	ldr	r0, [pc, #204]	; (8003058 <MX_USART2_UART_Init+0x1bc>)
 8002f8c:	f7ff feca 	bl	8002d24 <LL_DMA_EnableIT_HT>


  /* USART2_TX Init */
  LL_DMA_SetDataTransferDirection(DMA1, LL_DMA_CHANNEL_7, LL_DMA_DIRECTION_MEMORY_TO_PERIPH);
 8002f90:	2210      	movs	r2, #16
 8002f92:	2107      	movs	r1, #7
 8002f94:	4830      	ldr	r0, [pc, #192]	; (8003058 <MX_USART2_UART_Init+0x1bc>)
 8002f96:	f7ff fce9 	bl	800296c <LL_DMA_SetDataTransferDirection>
  LL_DMA_SetChannelPriorityLevel(DMA1, LL_DMA_CHANNEL_7, LL_DMA_PRIORITY_MEDIUM);
 8002f9a:	f44f 5280 	mov.w	r2, #4096	; 0x1000
 8002f9e:	2107      	movs	r1, #7
 8002fa0:	482d      	ldr	r0, [pc, #180]	; (8003058 <MX_USART2_UART_Init+0x1bc>)
 8002fa2:	f7ff fdd5 	bl	8002b50 <LL_DMA_SetChannelPriorityLevel>
  LL_DMA_SetMode(DMA1, LL_DMA_CHANNEL_7, LL_DMA_MODE_NORMAL);
 8002fa6:	2200      	movs	r2, #0
 8002fa8:	2107      	movs	r1, #7
 8002faa:	482b      	ldr	r0, [pc, #172]	; (8003058 <MX_USART2_UART_Init+0x1bc>)
 8002fac:	f7ff fd1c 	bl	80029e8 <LL_DMA_SetMode>
  LL_DMA_SetPeriphIncMode(DMA1, LL_DMA_CHANNEL_7, LL_DMA_PERIPH_NOINCREMENT);
 8002fb0:	2200      	movs	r2, #0
 8002fb2:	2107      	movs	r1, #7
 8002fb4:	4828      	ldr	r0, [pc, #160]	; (8003058 <MX_USART2_UART_Init+0x1bc>)
 8002fb6:	f7ff fd3b 	bl	8002a30 <LL_DMA_SetPeriphIncMode>
  LL_DMA_SetMemoryIncMode(DMA1, LL_DMA_CHANNEL_7, LL_DMA_MEMORY_INCREMENT);
 8002fba:	2280      	movs	r2, #128	; 0x80
 8002fbc:	2107      	movs	r1, #7
 8002fbe:	4826      	ldr	r0, [pc, #152]	; (8003058 <MX_USART2_UART_Init+0x1bc>)
 8002fc0:	f7ff fd5a 	bl	8002a78 <LL_DMA_SetMemoryIncMode>
  LL_DMA_SetPeriphSize(DMA1, LL_DMA_CHANNEL_7, LL_DMA_PDATAALIGN_BYTE);
 8002fc4:	2200      	movs	r2, #0
 8002fc6:	2107      	movs	r1, #7
 8002fc8:	4823      	ldr	r0, [pc, #140]	; (8003058 <MX_USART2_UART_Init+0x1bc>)
 8002fca:	f7ff fd79 	bl	8002ac0 <LL_DMA_SetPeriphSize>
  LL_DMA_SetMemorySize(DMA1, LL_DMA_CHANNEL_7, LL_DMA_MDATAALIGN_BYTE);
 8002fce:	2200      	movs	r2, #0
 8002fd0:	2107      	movs	r1, #7
 8002fd2:	4821      	ldr	r0, [pc, #132]	; (8003058 <MX_USART2_UART_Init+0x1bc>)
 8002fd4:	f7ff fd98 	bl	8002b08 <LL_DMA_SetMemorySize>

  LL_DMA_SetPeriphAddress(DMA1, LL_DMA_CHANNEL_7, LL_USART_DMA_GetRegAddr(USART2, LL_USART_DMA_REG_DATA_TRANSMIT));
 8002fd8:	2100      	movs	r1, #0
 8002fda:	4820      	ldr	r0, [pc, #128]	; (800305c <MX_USART2_UART_Init+0x1c0>)
 8002fdc:	f7ff ff48 	bl	8002e70 <LL_USART_DMA_GetRegAddr>
 8002fe0:	4603      	mov	r3, r0
 8002fe2:	461a      	mov	r2, r3
 8002fe4:	2107      	movs	r1, #7
 8002fe6:	481c      	ldr	r0, [pc, #112]	; (8003058 <MX_USART2_UART_Init+0x1bc>)
 8002fe8:	f7ff fe64 	bl	8002cb4 <LL_DMA_SetPeriphAddress>
  LL_USART_EnableDMAReq_TX(USART2);
 8002fec:	481b      	ldr	r0, [pc, #108]	; (800305c <MX_USART2_UART_Init+0x1c0>)
 8002fee:	f7ff ff2f 	bl	8002e50 <LL_USART_EnableDMAReq_TX>

  LL_DMA_EnableIT_TE(DMA1, LL_DMA_CHANNEL_7);
 8002ff2:	2107      	movs	r1, #7
 8002ff4:	4818      	ldr	r0, [pc, #96]	; (8003058 <MX_USART2_UART_Init+0x1bc>)
 8002ff6:	f7ff feb5 	bl	8002d64 <LL_DMA_EnableIT_TE>

  /* USART2 interrupt Init */
  NVIC_SetPriority(USART2_IRQn, 0);
 8002ffa:	2100      	movs	r1, #0
 8002ffc:	2026      	movs	r0, #38	; 0x26
 8002ffe:	f7ff fc1b 	bl	8002838 <NVIC_SetPriority>
  NVIC_EnableIRQ(USART2_IRQn);
 8003002:	2026      	movs	r0, #38	; 0x26
 8003004:	f7ff fbfe 	bl	8002804 <NVIC_EnableIRQ>

  USART_InitStruct.BaudRate = 115200;
 8003008:	f44f 33e1 	mov.w	r3, #115200	; 0x1c200
 800300c:	61fb      	str	r3, [r7, #28]
  USART_InitStruct.DataWidth = LL_USART_DATAWIDTH_8B;
 800300e:	2300      	movs	r3, #0
 8003010:	623b      	str	r3, [r7, #32]
  USART_InitStruct.StopBits = LL_USART_STOPBITS_1;
 8003012:	2300      	movs	r3, #0
 8003014:	627b      	str	r3, [r7, #36]	; 0x24
  USART_InitStruct.Parity = LL_USART_PARITY_NONE;
 8003016:	2300      	movs	r3, #0
 8003018:	62bb      	str	r3, [r7, #40]	; 0x28
  USART_InitStruct.TransferDirection = LL_USART_DIRECTION_TX_RX;
 800301a:	230c      	movs	r3, #12
 800301c:	62fb      	str	r3, [r7, #44]	; 0x2c
  USART_InitStruct.HardwareFlowControl = LL_USART_HWCONTROL_NONE;
 800301e:	2300      	movs	r3, #0
 8003020:	633b      	str	r3, [r7, #48]	; 0x30
  USART_InitStruct.OverSampling = LL_USART_OVERSAMPLING_16;
 8003022:	2300      	movs	r3, #0
 8003024:	637b      	str	r3, [r7, #52]	; 0x34
  LL_USART_Init(USART2, &USART_InitStruct);
 8003026:	f107 031c 	add.w	r3, r7, #28
 800302a:	4619      	mov	r1, r3
 800302c:	480b      	ldr	r0, [pc, #44]	; (800305c <MX_USART2_UART_Init+0x1c0>)
 800302e:	f7fe fa1f 	bl	8001470 <LL_USART_Init>
  LL_USART_ConfigAsyncMode(USART2);
 8003032:	480a      	ldr	r0, [pc, #40]	; (800305c <MX_USART2_UART_Init+0x1c0>)
 8003034:	f7ff fec6 	bl	8002dc4 <LL_USART_ConfigAsyncMode>
  LL_USART_DisableIT_CTS(USART2);
 8003038:	4808      	ldr	r0, [pc, #32]	; (800305c <MX_USART2_UART_Init+0x1c0>)
 800303a:	f7ff fee9 	bl	8002e10 <LL_USART_DisableIT_CTS>

  /* Enable USART2 peripheral and interrupts*/
  LL_USART_EnableIT_IDLE(USART2);
 800303e:	4807      	ldr	r0, [pc, #28]	; (800305c <MX_USART2_UART_Init+0x1c0>)
 8003040:	f7ff fed6 	bl	8002df0 <LL_USART_EnableIT_IDLE>
  LL_USART_ConfigAsyncMode(USART2);
 8003044:	4805      	ldr	r0, [pc, #20]	; (800305c <MX_USART2_UART_Init+0x1c0>)
 8003046:	f7ff febd 	bl	8002dc4 <LL_USART_ConfigAsyncMode>
  LL_USART_Enable(USART2);
 800304a:	4804      	ldr	r0, [pc, #16]	; (800305c <MX_USART2_UART_Init+0x1c0>)
 800304c:	f7ff feaa 	bl	8002da4 <LL_USART_Enable>
}
 8003050:	bf00      	nop
 8003052:	3738      	adds	r7, #56	; 0x38
 8003054:	46bd      	mov	sp, r7
 8003056:	bdb0      	pop	{r4, r5, r7, pc}
 8003058:	40020000 	.word	0x40020000
 800305c:	40004400 	.word	0x40004400
 8003060:	200003e8 	.word	0x200003e8

08003064 <USART2_PutBuffer>:


// Send data stored in buffer with DMA
void USART2_PutBuffer(uint8_t *buffer, uint8_t length)
{
 8003064:	b580      	push	{r7, lr}
 8003066:	b082      	sub	sp, #8
 8003068:	af00      	add	r7, sp, #0
 800306a:	6078      	str	r0, [r7, #4]
 800306c:	460b      	mov	r3, r1
 800306e:	70fb      	strb	r3, [r7, #3]
	LL_DMA_SetMemoryAddress(DMA1, LL_DMA_CHANNEL_7, (uint32_t)buffer);
 8003070:	687b      	ldr	r3, [r7, #4]
 8003072:	461a      	mov	r2, r3
 8003074:	2107      	movs	r1, #7
 8003076:	480a      	ldr	r0, [pc, #40]	; (80030a0 <USART2_PutBuffer+0x3c>)
 8003078:	f7ff fe04 	bl	8002c84 <LL_DMA_SetMemoryAddress>

	LL_DMA_SetDataLength(DMA1, LL_DMA_CHANNEL_7, length);
 800307c:	78fb      	ldrb	r3, [r7, #3]
 800307e:	461a      	mov	r2, r3
 8003080:	2107      	movs	r1, #7
 8003082:	4807      	ldr	r0, [pc, #28]	; (80030a0 <USART2_PutBuffer+0x3c>)
 8003084:	f7ff fd88 	bl	8002b98 <LL_DMA_SetDataLength>

	LL_DMA_EnableIT_TC(DMA1, LL_DMA_CHANNEL_7);
 8003088:	2107      	movs	r1, #7
 800308a:	4805      	ldr	r0, [pc, #20]	; (80030a0 <USART2_PutBuffer+0x3c>)
 800308c:	f7ff fe2a 	bl	8002ce4 <LL_DMA_EnableIT_TC>

	LL_DMA_EnableChannel(DMA1, LL_DMA_CHANNEL_7);
 8003090:	2107      	movs	r1, #7
 8003092:	4803      	ldr	r0, [pc, #12]	; (80030a0 <USART2_PutBuffer+0x3c>)
 8003094:	f7ff fc2a 	bl	80028ec <LL_DMA_EnableChannel>
}
 8003098:	bf00      	nop
 800309a:	3708      	adds	r7, #8
 800309c:	46bd      	mov	sp, r7
 800309e:	bd80      	pop	{r7, pc}
 80030a0:	40020000 	.word	0x40020000

080030a4 <USART2_CheckDmaReception>:
 *	Forwards data to callback function.
 *	Keeps track of pointer pointing to Rx memory buffer and resets the pointer if overflow is possible in next Rx.
 *	Refer to reference manual - "normal memory mode" and "increment memory mode".
 */
void USART2_CheckDmaReception(void)
{
 80030a4:	b5b0      	push	{r4, r5, r7, lr}
 80030a6:	b084      	sub	sp, #16
 80030a8:	af02      	add	r7, sp, #8
	if(USART2_ProcessData == 0) return;
 80030aa:	4b29      	ldr	r3, [pc, #164]	; (8003150 <USART2_CheckDmaReception+0xac>)
 80030ac:	681b      	ldr	r3, [r3, #0]
 80030ae:	2b00      	cmp	r3, #0
 80030b0:	d04a      	beq.n	8003148 <USART2_CheckDmaReception+0xa4>

	static uint16_t old_pos = 0;
	uint16_t pos = DMA_USART2_BUFFER_SIZE - LL_DMA_GetDataLength(DMA1, LL_DMA_CHANNEL_6);
 80030b2:	2106      	movs	r1, #6
 80030b4:	4827      	ldr	r0, [pc, #156]	; (8003154 <USART2_CheckDmaReception+0xb0>)
 80030b6:	f7ff fd93 	bl	8002be0 <LL_DMA_GetDataLength>
 80030ba:	4603      	mov	r3, r0
 80030bc:	b29b      	uxth	r3, r3
 80030be:	f1c3 0380 	rsb	r3, r3, #128	; 0x80
 80030c2:	80fb      	strh	r3, [r7, #6]

	if ((pos - old_pos) < 35 && (pos != old_pos)) USART2_ProcessData(&bufferUSART2dma[old_pos], pos - old_pos, pos);
 80030c4:	88fb      	ldrh	r3, [r7, #6]
 80030c6:	4a24      	ldr	r2, [pc, #144]	; (8003158 <USART2_CheckDmaReception+0xb4>)
 80030c8:	8812      	ldrh	r2, [r2, #0]
 80030ca:	1a9b      	subs	r3, r3, r2
 80030cc:	2b22      	cmp	r3, #34	; 0x22
 80030ce:	dc12      	bgt.n	80030f6 <USART2_CheckDmaReception+0x52>
 80030d0:	4b21      	ldr	r3, [pc, #132]	; (8003158 <USART2_CheckDmaReception+0xb4>)
 80030d2:	881b      	ldrh	r3, [r3, #0]
 80030d4:	88fa      	ldrh	r2, [r7, #6]
 80030d6:	429a      	cmp	r2, r3
 80030d8:	d00d      	beq.n	80030f6 <USART2_CheckDmaReception+0x52>
 80030da:	4b1d      	ldr	r3, [pc, #116]	; (8003150 <USART2_CheckDmaReception+0xac>)
 80030dc:	681b      	ldr	r3, [r3, #0]
 80030de:	4a1e      	ldr	r2, [pc, #120]	; (8003158 <USART2_CheckDmaReception+0xb4>)
 80030e0:	8812      	ldrh	r2, [r2, #0]
 80030e2:	4611      	mov	r1, r2
 80030e4:	4a1d      	ldr	r2, [pc, #116]	; (800315c <USART2_CheckDmaReception+0xb8>)
 80030e6:	1888      	adds	r0, r1, r2
 80030e8:	4a1b      	ldr	r2, [pc, #108]	; (8003158 <USART2_CheckDmaReception+0xb4>)
 80030ea:	8812      	ldrh	r2, [r2, #0]
 80030ec:	88f9      	ldrh	r1, [r7, #6]
 80030ee:	1a8a      	subs	r2, r1, r2
 80030f0:	b291      	uxth	r1, r2
 80030f2:	88fa      	ldrh	r2, [r7, #6]
 80030f4:	4798      	blx	r3

	old_pos = pos;
 80030f6:	4a18      	ldr	r2, [pc, #96]	; (8003158 <USART2_CheckDmaReception+0xb4>)
 80030f8:	88fb      	ldrh	r3, [r7, #6]
 80030fa:	8013      	strh	r3, [r2, #0]

	if(pos >= 92) {
 80030fc:	88fb      	ldrh	r3, [r7, #6]
 80030fe:	2b5b      	cmp	r3, #91	; 0x5b
 8003100:	d923      	bls.n	800314a <USART2_CheckDmaReception+0xa6>
		LL_DMA_DisableChannel(DMA1, LL_DMA_CHANNEL_6);
 8003102:	2106      	movs	r1, #6
 8003104:	4813      	ldr	r0, [pc, #76]	; (8003154 <USART2_CheckDmaReception+0xb0>)
 8003106:	f7ff fc11 	bl	800292c <LL_DMA_DisableChannel>

		LL_DMA_ConfigAddresses(DMA1, LL_DMA_CHANNEL_6,
 800310a:	2101      	movs	r1, #1
 800310c:	4814      	ldr	r0, [pc, #80]	; (8003160 <USART2_CheckDmaReception+0xbc>)
 800310e:	f7ff feaf 	bl	8002e70 <LL_USART_DMA_GetRegAddr>
 8003112:	4604      	mov	r4, r0
 8003114:	4d11      	ldr	r5, [pc, #68]	; (800315c <USART2_CheckDmaReception+0xb8>)
 8003116:	2106      	movs	r1, #6
 8003118:	480e      	ldr	r0, [pc, #56]	; (8003154 <USART2_CheckDmaReception+0xb0>)
 800311a:	f7ff fc4d 	bl	80029b8 <LL_DMA_GetDataTransferDirection>
 800311e:	4603      	mov	r3, r0
 8003120:	9300      	str	r3, [sp, #0]
 8003122:	462b      	mov	r3, r5
 8003124:	4622      	mov	r2, r4
 8003126:	2106      	movs	r1, #6
 8003128:	480a      	ldr	r0, [pc, #40]	; (8003154 <USART2_CheckDmaReception+0xb0>)
 800312a:	f7ff fd6f 	bl	8002c0c <LL_DMA_ConfigAddresses>
			                   LL_USART_DMA_GetRegAddr(USART2, LL_USART_DMA_REG_DATA_RECEIVE),
			                   (uint32_t)bufferUSART2dma,
			                   LL_DMA_GetDataTransferDirection(DMA1, LL_DMA_CHANNEL_6));

		LL_DMA_SetDataLength(DMA1, LL_DMA_CHANNEL_6, DMA_USART2_BUFFER_SIZE);
 800312e:	2280      	movs	r2, #128	; 0x80
 8003130:	2106      	movs	r1, #6
 8003132:	4808      	ldr	r0, [pc, #32]	; (8003154 <USART2_CheckDmaReception+0xb0>)
 8003134:	f7ff fd30 	bl	8002b98 <LL_DMA_SetDataLength>
        LL_DMA_EnableChannel(DMA1, LL_DMA_CHANNEL_6);
 8003138:	2106      	movs	r1, #6
 800313a:	4806      	ldr	r0, [pc, #24]	; (8003154 <USART2_CheckDmaReception+0xb0>)
 800313c:	f7ff fbd6 	bl	80028ec <LL_DMA_EnableChannel>
		old_pos = 0;
 8003140:	4b05      	ldr	r3, [pc, #20]	; (8003158 <USART2_CheckDmaReception+0xb4>)
 8003142:	2200      	movs	r2, #0
 8003144:	801a      	strh	r2, [r3, #0]
 8003146:	e000      	b.n	800314a <USART2_CheckDmaReception+0xa6>
	if(USART2_ProcessData == 0) return;
 8003148:	bf00      	nop
	}
}
 800314a:	3708      	adds	r7, #8
 800314c:	46bd      	mov	sp, r7
 800314e:	bdb0      	pop	{r4, r5, r7, pc}
 8003150:	20000468 	.word	0x20000468
 8003154:	40020000 	.word	0x40020000
 8003158:	2000046c 	.word	0x2000046c
 800315c:	200003e8 	.word	0x200003e8
 8003160:	40004400 	.word	0x40004400

08003164 <Reset_Handler>:

    .section	.text.Reset_Handler
	.weak	Reset_Handler
	.type	Reset_Handler, %function
Reset_Handler:
  ldr   sp, =_estack    /* Atollic update: set stack pointer */
 8003164:	f8df d034 	ldr.w	sp, [pc, #52]	; 800319c <LoopForever+0x2>

/* Copy the data segment initializers from flash to SRAM */
  movs	r1, #0
 8003168:	2100      	movs	r1, #0
  b	LoopCopyDataInit
 800316a:	e003      	b.n	8003174 <LoopCopyDataInit>

0800316c <CopyDataInit>:

CopyDataInit:
	ldr	r3, =_sidata
 800316c:	4b0c      	ldr	r3, [pc, #48]	; (80031a0 <LoopForever+0x6>)
	ldr	r3, [r3, r1]
 800316e:	585b      	ldr	r3, [r3, r1]
	str	r3, [r0, r1]
 8003170:	5043      	str	r3, [r0, r1]
	adds	r1, r1, #4
 8003172:	3104      	adds	r1, #4

08003174 <LoopCopyDataInit>:

LoopCopyDataInit:
	ldr	r0, =_sdata
 8003174:	480b      	ldr	r0, [pc, #44]	; (80031a4 <LoopForever+0xa>)
	ldr	r3, =_edata
 8003176:	4b0c      	ldr	r3, [pc, #48]	; (80031a8 <LoopForever+0xe>)
	adds	r2, r0, r1
 8003178:	1842      	adds	r2, r0, r1
	cmp	r2, r3
 800317a:	429a      	cmp	r2, r3
	bcc	CopyDataInit
 800317c:	d3f6      	bcc.n	800316c <CopyDataInit>
	ldr	r2, =_sbss
 800317e:	4a0b      	ldr	r2, [pc, #44]	; (80031ac <LoopForever+0x12>)
	b	LoopFillZerobss
 8003180:	e002      	b.n	8003188 <LoopFillZerobss>

08003182 <FillZerobss>:
/* Zero fill the bss segment. */
FillZerobss:
	movs	r3, #0
 8003182:	2300      	movs	r3, #0
	str	r3, [r2], #4
 8003184:	f842 3b04 	str.w	r3, [r2], #4

08003188 <LoopFillZerobss>:

LoopFillZerobss:
	ldr	r3, = _ebss
 8003188:	4b09      	ldr	r3, [pc, #36]	; (80031b0 <LoopForever+0x16>)
	cmp	r2, r3
 800318a:	429a      	cmp	r2, r3
	bcc	FillZerobss
 800318c:	d3f9      	bcc.n	8003182 <FillZerobss>

/* Call the clock system intitialization function.*/
    bl  SystemInit
 800318e:	f7ff faef 	bl	8002770 <SystemInit>
/* Call static constructors */
    bl __libc_init_array
 8003192:	f000 fdf5 	bl	8003d80 <__libc_init_array>
/* Call the application's entry point.*/
	bl	main
 8003196:	f7ff f853 	bl	8002240 <main>

0800319a <LoopForever>:

LoopForever:
    b LoopForever
 800319a:	e7fe      	b.n	800319a <LoopForever>
  ldr   sp, =_estack    /* Atollic update: set stack pointer */
 800319c:	20003000 	.word	0x20003000
	ldr	r3, =_sidata
 80031a0:	08006a8c 	.word	0x08006a8c
	ldr	r0, =_sdata
 80031a4:	20000000 	.word	0x20000000
	ldr	r3, =_edata
 80031a8:	200001cc 	.word	0x200001cc
	ldr	r2, =_sbss
 80031ac:	200001cc 	.word	0x200001cc
	ldr	r3, = _ebss
 80031b0:	200005bc 	.word	0x200005bc

080031b4 <ADC1_2_IRQHandler>:
 * @retval : None
*/
    .section	.text.Default_Handler,"ax",%progbits
Default_Handler:
Infinite_Loop:
	b	Infinite_Loop
 80031b4:	e7fe      	b.n	80031b4 <ADC1_2_IRQHandler>

080031b6 <__cvt>:
 80031b6:	e92d 47ff 	stmdb	sp!, {r0, r1, r2, r3, r4, r5, r6, r7, r8, r9, sl, lr}
 80031ba:	ec55 4b10 	vmov	r4, r5, d0
 80031be:	2d00      	cmp	r5, #0
 80031c0:	460e      	mov	r6, r1
 80031c2:	4619      	mov	r1, r3
 80031c4:	462b      	mov	r3, r5
 80031c6:	bfbb      	ittet	lt
 80031c8:	f105 4300 	addlt.w	r3, r5, #2147483648	; 0x80000000
 80031cc:	461d      	movlt	r5, r3
 80031ce:	2300      	movge	r3, #0
 80031d0:	232d      	movlt	r3, #45	; 0x2d
 80031d2:	700b      	strb	r3, [r1, #0]
 80031d4:	9b0d      	ldr	r3, [sp, #52]	; 0x34
 80031d6:	f8dd a030 	ldr.w	sl, [sp, #48]	; 0x30
 80031da:	4691      	mov	r9, r2
 80031dc:	f023 0820 	bic.w	r8, r3, #32
 80031e0:	bfbc      	itt	lt
 80031e2:	4622      	movlt	r2, r4
 80031e4:	4614      	movlt	r4, r2
 80031e6:	f1b8 0f46 	cmp.w	r8, #70	; 0x46
 80031ea:	d005      	beq.n	80031f8 <__cvt+0x42>
 80031ec:	f1b8 0f45 	cmp.w	r8, #69	; 0x45
 80031f0:	d100      	bne.n	80031f4 <__cvt+0x3e>
 80031f2:	3601      	adds	r6, #1
 80031f4:	2102      	movs	r1, #2
 80031f6:	e000      	b.n	80031fa <__cvt+0x44>
 80031f8:	2103      	movs	r1, #3
 80031fa:	ab03      	add	r3, sp, #12
 80031fc:	9301      	str	r3, [sp, #4]
 80031fe:	ab02      	add	r3, sp, #8
 8003200:	9300      	str	r3, [sp, #0]
 8003202:	ec45 4b10 	vmov	d0, r4, r5
 8003206:	4653      	mov	r3, sl
 8003208:	4632      	mov	r2, r6
 800320a:	f000 fe69 	bl	8003ee0 <_dtoa_r>
 800320e:	f1b8 0f47 	cmp.w	r8, #71	; 0x47
 8003212:	4607      	mov	r7, r0
 8003214:	d102      	bne.n	800321c <__cvt+0x66>
 8003216:	f019 0f01 	tst.w	r9, #1
 800321a:	d022      	beq.n	8003262 <__cvt+0xac>
 800321c:	f1b8 0f46 	cmp.w	r8, #70	; 0x46
 8003220:	eb07 0906 	add.w	r9, r7, r6
 8003224:	d110      	bne.n	8003248 <__cvt+0x92>
 8003226:	783b      	ldrb	r3, [r7, #0]
 8003228:	2b30      	cmp	r3, #48	; 0x30
 800322a:	d10a      	bne.n	8003242 <__cvt+0x8c>
 800322c:	2200      	movs	r2, #0
 800322e:	2300      	movs	r3, #0
 8003230:	4620      	mov	r0, r4
 8003232:	4629      	mov	r1, r5
 8003234:	f7fd fc48 	bl	8000ac8 <__aeabi_dcmpeq>
 8003238:	b918      	cbnz	r0, 8003242 <__cvt+0x8c>
 800323a:	f1c6 0601 	rsb	r6, r6, #1
 800323e:	f8ca 6000 	str.w	r6, [sl]
 8003242:	f8da 3000 	ldr.w	r3, [sl]
 8003246:	4499      	add	r9, r3
 8003248:	2200      	movs	r2, #0
 800324a:	2300      	movs	r3, #0
 800324c:	4620      	mov	r0, r4
 800324e:	4629      	mov	r1, r5
 8003250:	f7fd fc3a 	bl	8000ac8 <__aeabi_dcmpeq>
 8003254:	b108      	cbz	r0, 800325a <__cvt+0xa4>
 8003256:	f8cd 900c 	str.w	r9, [sp, #12]
 800325a:	2230      	movs	r2, #48	; 0x30
 800325c:	9b03      	ldr	r3, [sp, #12]
 800325e:	454b      	cmp	r3, r9
 8003260:	d307      	bcc.n	8003272 <__cvt+0xbc>
 8003262:	9b03      	ldr	r3, [sp, #12]
 8003264:	9a0e      	ldr	r2, [sp, #56]	; 0x38
 8003266:	1bdb      	subs	r3, r3, r7
 8003268:	4638      	mov	r0, r7
 800326a:	6013      	str	r3, [r2, #0]
 800326c:	b004      	add	sp, #16
 800326e:	e8bd 87f0 	ldmia.w	sp!, {r4, r5, r6, r7, r8, r9, sl, pc}
 8003272:	1c59      	adds	r1, r3, #1
 8003274:	9103      	str	r1, [sp, #12]
 8003276:	701a      	strb	r2, [r3, #0]
 8003278:	e7f0      	b.n	800325c <__cvt+0xa6>

0800327a <__exponent>:
 800327a:	b5f7      	push	{r0, r1, r2, r4, r5, r6, r7, lr}
 800327c:	4603      	mov	r3, r0
 800327e:	2900      	cmp	r1, #0
 8003280:	bfb8      	it	lt
 8003282:	4249      	neglt	r1, r1
 8003284:	f803 2b02 	strb.w	r2, [r3], #2
 8003288:	bfb4      	ite	lt
 800328a:	222d      	movlt	r2, #45	; 0x2d
 800328c:	222b      	movge	r2, #43	; 0x2b
 800328e:	2909      	cmp	r1, #9
 8003290:	7042      	strb	r2, [r0, #1]
 8003292:	dd2a      	ble.n	80032ea <__exponent+0x70>
 8003294:	f10d 0207 	add.w	r2, sp, #7
 8003298:	4617      	mov	r7, r2
 800329a:	260a      	movs	r6, #10
 800329c:	4694      	mov	ip, r2
 800329e:	fb91 f5f6 	sdiv	r5, r1, r6
 80032a2:	fb06 1415 	mls	r4, r6, r5, r1
 80032a6:	3430      	adds	r4, #48	; 0x30
 80032a8:	f80c 4c01 	strb.w	r4, [ip, #-1]
 80032ac:	460c      	mov	r4, r1
 80032ae:	2c63      	cmp	r4, #99	; 0x63
 80032b0:	f102 32ff 	add.w	r2, r2, #4294967295
 80032b4:	4629      	mov	r1, r5
 80032b6:	dcf1      	bgt.n	800329c <__exponent+0x22>
 80032b8:	3130      	adds	r1, #48	; 0x30
 80032ba:	f1ac 0402 	sub.w	r4, ip, #2
 80032be:	f802 1c01 	strb.w	r1, [r2, #-1]
 80032c2:	1c41      	adds	r1, r0, #1
 80032c4:	4622      	mov	r2, r4
 80032c6:	42ba      	cmp	r2, r7
 80032c8:	d30a      	bcc.n	80032e0 <__exponent+0x66>
 80032ca:	f10d 0209 	add.w	r2, sp, #9
 80032ce:	eba2 020c 	sub.w	r2, r2, ip
 80032d2:	42bc      	cmp	r4, r7
 80032d4:	bf88      	it	hi
 80032d6:	2200      	movhi	r2, #0
 80032d8:	4413      	add	r3, r2
 80032da:	1a18      	subs	r0, r3, r0
 80032dc:	b003      	add	sp, #12
 80032de:	bdf0      	pop	{r4, r5, r6, r7, pc}
 80032e0:	f812 5b01 	ldrb.w	r5, [r2], #1
 80032e4:	f801 5f01 	strb.w	r5, [r1, #1]!
 80032e8:	e7ed      	b.n	80032c6 <__exponent+0x4c>
 80032ea:	2330      	movs	r3, #48	; 0x30
 80032ec:	3130      	adds	r1, #48	; 0x30
 80032ee:	7083      	strb	r3, [r0, #2]
 80032f0:	70c1      	strb	r1, [r0, #3]
 80032f2:	1d03      	adds	r3, r0, #4
 80032f4:	e7f1      	b.n	80032da <__exponent+0x60>
	...

080032f8 <_printf_float>:
 80032f8:	e92d 4ff0 	stmdb	sp!, {r4, r5, r6, r7, r8, r9, sl, fp, lr}
 80032fc:	ed2d 8b02 	vpush	{d8}
 8003300:	b08d      	sub	sp, #52	; 0x34
 8003302:	460c      	mov	r4, r1
 8003304:	f8dd 8060 	ldr.w	r8, [sp, #96]	; 0x60
 8003308:	4616      	mov	r6, r2
 800330a:	461f      	mov	r7, r3
 800330c:	4605      	mov	r5, r0
 800330e:	f000 fce7 	bl	8003ce0 <_localeconv_r>
 8003312:	f8d0 a000 	ldr.w	sl, [r0]
 8003316:	4650      	mov	r0, sl
 8003318:	f7fc ffaa 	bl	8000270 <strlen>
 800331c:	2300      	movs	r3, #0
 800331e:	930a      	str	r3, [sp, #40]	; 0x28
 8003320:	6823      	ldr	r3, [r4, #0]
 8003322:	9305      	str	r3, [sp, #20]
 8003324:	f8d8 3000 	ldr.w	r3, [r8]
 8003328:	f894 b018 	ldrb.w	fp, [r4, #24]
 800332c:	3307      	adds	r3, #7
 800332e:	f023 0307 	bic.w	r3, r3, #7
 8003332:	f103 0208 	add.w	r2, r3, #8
 8003336:	f8c8 2000 	str.w	r2, [r8]
 800333a:	e9d3 8900 	ldrd	r8, r9, [r3]
 800333e:	f029 4300 	bic.w	r3, r9, #2147483648	; 0x80000000
 8003342:	9307      	str	r3, [sp, #28]
 8003344:	f8cd 8018 	str.w	r8, [sp, #24]
 8003348:	ee08 0a10 	vmov	s16, r0
 800334c:	e9c4 8912 	strd	r8, r9, [r4, #72]	; 0x48
 8003350:	e9dd 0106 	ldrd	r0, r1, [sp, #24]
 8003354:	4b9e      	ldr	r3, [pc, #632]	; (80035d0 <_printf_float+0x2d8>)
 8003356:	f04f 32ff 	mov.w	r2, #4294967295
 800335a:	f7fd fbe7 	bl	8000b2c <__aeabi_dcmpun>
 800335e:	bb88      	cbnz	r0, 80033c4 <_printf_float+0xcc>
 8003360:	e9dd 0106 	ldrd	r0, r1, [sp, #24]
 8003364:	4b9a      	ldr	r3, [pc, #616]	; (80035d0 <_printf_float+0x2d8>)
 8003366:	f04f 32ff 	mov.w	r2, #4294967295
 800336a:	f7fd fbc1 	bl	8000af0 <__aeabi_dcmple>
 800336e:	bb48      	cbnz	r0, 80033c4 <_printf_float+0xcc>
 8003370:	2200      	movs	r2, #0
 8003372:	2300      	movs	r3, #0
 8003374:	4640      	mov	r0, r8
 8003376:	4649      	mov	r1, r9
 8003378:	f7fd fbb0 	bl	8000adc <__aeabi_dcmplt>
 800337c:	b110      	cbz	r0, 8003384 <_printf_float+0x8c>
 800337e:	232d      	movs	r3, #45	; 0x2d
 8003380:	f884 3043 	strb.w	r3, [r4, #67]	; 0x43
 8003384:	4a93      	ldr	r2, [pc, #588]	; (80035d4 <_printf_float+0x2dc>)
 8003386:	4b94      	ldr	r3, [pc, #592]	; (80035d8 <_printf_float+0x2e0>)
 8003388:	f1bb 0f47 	cmp.w	fp, #71	; 0x47
 800338c:	bf94      	ite	ls
 800338e:	4690      	movls	r8, r2
 8003390:	4698      	movhi	r8, r3
 8003392:	2303      	movs	r3, #3
 8003394:	6123      	str	r3, [r4, #16]
 8003396:	9b05      	ldr	r3, [sp, #20]
 8003398:	f023 0304 	bic.w	r3, r3, #4
 800339c:	6023      	str	r3, [r4, #0]
 800339e:	f04f 0900 	mov.w	r9, #0
 80033a2:	9700      	str	r7, [sp, #0]
 80033a4:	4633      	mov	r3, r6
 80033a6:	aa0b      	add	r2, sp, #44	; 0x2c
 80033a8:	4621      	mov	r1, r4
 80033aa:	4628      	mov	r0, r5
 80033ac:	f000 f9da 	bl	8003764 <_printf_common>
 80033b0:	3001      	adds	r0, #1
 80033b2:	f040 8090 	bne.w	80034d6 <_printf_float+0x1de>
 80033b6:	f04f 30ff 	mov.w	r0, #4294967295
 80033ba:	b00d      	add	sp, #52	; 0x34
 80033bc:	ecbd 8b02 	vpop	{d8}
 80033c0:	e8bd 8ff0 	ldmia.w	sp!, {r4, r5, r6, r7, r8, r9, sl, fp, pc}
 80033c4:	4642      	mov	r2, r8
 80033c6:	464b      	mov	r3, r9
 80033c8:	4640      	mov	r0, r8
 80033ca:	4649      	mov	r1, r9
 80033cc:	f7fd fbae 	bl	8000b2c <__aeabi_dcmpun>
 80033d0:	b140      	cbz	r0, 80033e4 <_printf_float+0xec>
 80033d2:	464b      	mov	r3, r9
 80033d4:	2b00      	cmp	r3, #0
 80033d6:	bfbc      	itt	lt
 80033d8:	232d      	movlt	r3, #45	; 0x2d
 80033da:	f884 3043 	strblt.w	r3, [r4, #67]	; 0x43
 80033de:	4a7f      	ldr	r2, [pc, #508]	; (80035dc <_printf_float+0x2e4>)
 80033e0:	4b7f      	ldr	r3, [pc, #508]	; (80035e0 <_printf_float+0x2e8>)
 80033e2:	e7d1      	b.n	8003388 <_printf_float+0x90>
 80033e4:	6863      	ldr	r3, [r4, #4]
 80033e6:	f00b 02df 	and.w	r2, fp, #223	; 0xdf
 80033ea:	9206      	str	r2, [sp, #24]
 80033ec:	1c5a      	adds	r2, r3, #1
 80033ee:	d13f      	bne.n	8003470 <_printf_float+0x178>
 80033f0:	2306      	movs	r3, #6
 80033f2:	6063      	str	r3, [r4, #4]
 80033f4:	9b05      	ldr	r3, [sp, #20]
 80033f6:	6861      	ldr	r1, [r4, #4]
 80033f8:	f443 6280 	orr.w	r2, r3, #1024	; 0x400
 80033fc:	2300      	movs	r3, #0
 80033fe:	9303      	str	r3, [sp, #12]
 8003400:	ab0a      	add	r3, sp, #40	; 0x28
 8003402:	e9cd b301 	strd	fp, r3, [sp, #4]
 8003406:	ab09      	add	r3, sp, #36	; 0x24
 8003408:	ec49 8b10 	vmov	d0, r8, r9
 800340c:	9300      	str	r3, [sp, #0]
 800340e:	6022      	str	r2, [r4, #0]
 8003410:	f10d 0323 	add.w	r3, sp, #35	; 0x23
 8003414:	4628      	mov	r0, r5
 8003416:	f7ff fece 	bl	80031b6 <__cvt>
 800341a:	9b06      	ldr	r3, [sp, #24]
 800341c:	9909      	ldr	r1, [sp, #36]	; 0x24
 800341e:	2b47      	cmp	r3, #71	; 0x47
 8003420:	4680      	mov	r8, r0
 8003422:	d108      	bne.n	8003436 <_printf_float+0x13e>
 8003424:	1cc8      	adds	r0, r1, #3
 8003426:	db02      	blt.n	800342e <_printf_float+0x136>
 8003428:	6863      	ldr	r3, [r4, #4]
 800342a:	4299      	cmp	r1, r3
 800342c:	dd41      	ble.n	80034b2 <_printf_float+0x1ba>
 800342e:	f1ab 0302 	sub.w	r3, fp, #2
 8003432:	fa5f fb83 	uxtb.w	fp, r3
 8003436:	f1bb 0f65 	cmp.w	fp, #101	; 0x65
 800343a:	d820      	bhi.n	800347e <_printf_float+0x186>
 800343c:	3901      	subs	r1, #1
 800343e:	465a      	mov	r2, fp
 8003440:	f104 0050 	add.w	r0, r4, #80	; 0x50
 8003444:	9109      	str	r1, [sp, #36]	; 0x24
 8003446:	f7ff ff18 	bl	800327a <__exponent>
 800344a:	9a0a      	ldr	r2, [sp, #40]	; 0x28
 800344c:	1813      	adds	r3, r2, r0
 800344e:	2a01      	cmp	r2, #1
 8003450:	4681      	mov	r9, r0
 8003452:	6123      	str	r3, [r4, #16]
 8003454:	dc02      	bgt.n	800345c <_printf_float+0x164>
 8003456:	6822      	ldr	r2, [r4, #0]
 8003458:	07d2      	lsls	r2, r2, #31
 800345a:	d501      	bpl.n	8003460 <_printf_float+0x168>
 800345c:	3301      	adds	r3, #1
 800345e:	6123      	str	r3, [r4, #16]
 8003460:	f89d 3023 	ldrb.w	r3, [sp, #35]	; 0x23
 8003464:	2b00      	cmp	r3, #0
 8003466:	d09c      	beq.n	80033a2 <_printf_float+0xaa>
 8003468:	232d      	movs	r3, #45	; 0x2d
 800346a:	f884 3043 	strb.w	r3, [r4, #67]	; 0x43
 800346e:	e798      	b.n	80033a2 <_printf_float+0xaa>
 8003470:	9a06      	ldr	r2, [sp, #24]
 8003472:	2a47      	cmp	r2, #71	; 0x47
 8003474:	d1be      	bne.n	80033f4 <_printf_float+0xfc>
 8003476:	2b00      	cmp	r3, #0
 8003478:	d1bc      	bne.n	80033f4 <_printf_float+0xfc>
 800347a:	2301      	movs	r3, #1
 800347c:	e7b9      	b.n	80033f2 <_printf_float+0xfa>
 800347e:	f1bb 0f66 	cmp.w	fp, #102	; 0x66
 8003482:	d118      	bne.n	80034b6 <_printf_float+0x1be>
 8003484:	2900      	cmp	r1, #0
 8003486:	6863      	ldr	r3, [r4, #4]
 8003488:	dd0b      	ble.n	80034a2 <_printf_float+0x1aa>
 800348a:	6121      	str	r1, [r4, #16]
 800348c:	b913      	cbnz	r3, 8003494 <_printf_float+0x19c>
 800348e:	6822      	ldr	r2, [r4, #0]
 8003490:	07d0      	lsls	r0, r2, #31
 8003492:	d502      	bpl.n	800349a <_printf_float+0x1a2>
 8003494:	3301      	adds	r3, #1
 8003496:	440b      	add	r3, r1
 8003498:	6123      	str	r3, [r4, #16]
 800349a:	65a1      	str	r1, [r4, #88]	; 0x58
 800349c:	f04f 0900 	mov.w	r9, #0
 80034a0:	e7de      	b.n	8003460 <_printf_float+0x168>
 80034a2:	b913      	cbnz	r3, 80034aa <_printf_float+0x1b2>
 80034a4:	6822      	ldr	r2, [r4, #0]
 80034a6:	07d2      	lsls	r2, r2, #31
 80034a8:	d501      	bpl.n	80034ae <_printf_float+0x1b6>
 80034aa:	3302      	adds	r3, #2
 80034ac:	e7f4      	b.n	8003498 <_printf_float+0x1a0>
 80034ae:	2301      	movs	r3, #1
 80034b0:	e7f2      	b.n	8003498 <_printf_float+0x1a0>
 80034b2:	f04f 0b67 	mov.w	fp, #103	; 0x67
 80034b6:	9b0a      	ldr	r3, [sp, #40]	; 0x28
 80034b8:	4299      	cmp	r1, r3
 80034ba:	db05      	blt.n	80034c8 <_printf_float+0x1d0>
 80034bc:	6823      	ldr	r3, [r4, #0]
 80034be:	6121      	str	r1, [r4, #16]
 80034c0:	07d8      	lsls	r0, r3, #31
 80034c2:	d5ea      	bpl.n	800349a <_printf_float+0x1a2>
 80034c4:	1c4b      	adds	r3, r1, #1
 80034c6:	e7e7      	b.n	8003498 <_printf_float+0x1a0>
 80034c8:	2900      	cmp	r1, #0
 80034ca:	bfd4      	ite	le
 80034cc:	f1c1 0202 	rsble	r2, r1, #2
 80034d0:	2201      	movgt	r2, #1
 80034d2:	4413      	add	r3, r2
 80034d4:	e7e0      	b.n	8003498 <_printf_float+0x1a0>
 80034d6:	6823      	ldr	r3, [r4, #0]
 80034d8:	055a      	lsls	r2, r3, #21
 80034da:	d407      	bmi.n	80034ec <_printf_float+0x1f4>
 80034dc:	6923      	ldr	r3, [r4, #16]
 80034de:	4642      	mov	r2, r8
 80034e0:	4631      	mov	r1, r6
 80034e2:	4628      	mov	r0, r5
 80034e4:	47b8      	blx	r7
 80034e6:	3001      	adds	r0, #1
 80034e8:	d12c      	bne.n	8003544 <_printf_float+0x24c>
 80034ea:	e764      	b.n	80033b6 <_printf_float+0xbe>
 80034ec:	f1bb 0f65 	cmp.w	fp, #101	; 0x65
 80034f0:	f240 80e0 	bls.w	80036b4 <_printf_float+0x3bc>
 80034f4:	e9d4 0112 	ldrd	r0, r1, [r4, #72]	; 0x48
 80034f8:	2200      	movs	r2, #0
 80034fa:	2300      	movs	r3, #0
 80034fc:	f7fd fae4 	bl	8000ac8 <__aeabi_dcmpeq>
 8003500:	2800      	cmp	r0, #0
 8003502:	d034      	beq.n	800356e <_printf_float+0x276>
 8003504:	4a37      	ldr	r2, [pc, #220]	; (80035e4 <_printf_float+0x2ec>)
 8003506:	2301      	movs	r3, #1
 8003508:	4631      	mov	r1, r6
 800350a:	4628      	mov	r0, r5
 800350c:	47b8      	blx	r7
 800350e:	3001      	adds	r0, #1
 8003510:	f43f af51 	beq.w	80033b6 <_printf_float+0xbe>
 8003514:	e9dd 2309 	ldrd	r2, r3, [sp, #36]	; 0x24
 8003518:	429a      	cmp	r2, r3
 800351a:	db02      	blt.n	8003522 <_printf_float+0x22a>
 800351c:	6823      	ldr	r3, [r4, #0]
 800351e:	07d8      	lsls	r0, r3, #31
 8003520:	d510      	bpl.n	8003544 <_printf_float+0x24c>
 8003522:	ee18 3a10 	vmov	r3, s16
 8003526:	4652      	mov	r2, sl
 8003528:	4631      	mov	r1, r6
 800352a:	4628      	mov	r0, r5
 800352c:	47b8      	blx	r7
 800352e:	3001      	adds	r0, #1
 8003530:	f43f af41 	beq.w	80033b6 <_printf_float+0xbe>
 8003534:	f04f 0800 	mov.w	r8, #0
 8003538:	f104 091a 	add.w	r9, r4, #26
 800353c:	9b0a      	ldr	r3, [sp, #40]	; 0x28
 800353e:	3b01      	subs	r3, #1
 8003540:	4543      	cmp	r3, r8
 8003542:	dc09      	bgt.n	8003558 <_printf_float+0x260>
 8003544:	6823      	ldr	r3, [r4, #0]
 8003546:	079b      	lsls	r3, r3, #30
 8003548:	f100 8107 	bmi.w	800375a <_printf_float+0x462>
 800354c:	68e0      	ldr	r0, [r4, #12]
 800354e:	9b0b      	ldr	r3, [sp, #44]	; 0x2c
 8003550:	4298      	cmp	r0, r3
 8003552:	bfb8      	it	lt
 8003554:	4618      	movlt	r0, r3
 8003556:	e730      	b.n	80033ba <_printf_float+0xc2>
 8003558:	2301      	movs	r3, #1
 800355a:	464a      	mov	r2, r9
 800355c:	4631      	mov	r1, r6
 800355e:	4628      	mov	r0, r5
 8003560:	47b8      	blx	r7
 8003562:	3001      	adds	r0, #1
 8003564:	f43f af27 	beq.w	80033b6 <_printf_float+0xbe>
 8003568:	f108 0801 	add.w	r8, r8, #1
 800356c:	e7e6      	b.n	800353c <_printf_float+0x244>
 800356e:	9b09      	ldr	r3, [sp, #36]	; 0x24
 8003570:	2b00      	cmp	r3, #0
 8003572:	dc39      	bgt.n	80035e8 <_printf_float+0x2f0>
 8003574:	4a1b      	ldr	r2, [pc, #108]	; (80035e4 <_printf_float+0x2ec>)
 8003576:	2301      	movs	r3, #1
 8003578:	4631      	mov	r1, r6
 800357a:	4628      	mov	r0, r5
 800357c:	47b8      	blx	r7
 800357e:	3001      	adds	r0, #1
 8003580:	f43f af19 	beq.w	80033b6 <_printf_float+0xbe>
 8003584:	e9dd 3209 	ldrd	r3, r2, [sp, #36]	; 0x24
 8003588:	4313      	orrs	r3, r2
 800358a:	d102      	bne.n	8003592 <_printf_float+0x29a>
 800358c:	6823      	ldr	r3, [r4, #0]
 800358e:	07d9      	lsls	r1, r3, #31
 8003590:	d5d8      	bpl.n	8003544 <_printf_float+0x24c>
 8003592:	ee18 3a10 	vmov	r3, s16
 8003596:	4652      	mov	r2, sl
 8003598:	4631      	mov	r1, r6
 800359a:	4628      	mov	r0, r5
 800359c:	47b8      	blx	r7
 800359e:	3001      	adds	r0, #1
 80035a0:	f43f af09 	beq.w	80033b6 <_printf_float+0xbe>
 80035a4:	f04f 0900 	mov.w	r9, #0
 80035a8:	f104 0a1a 	add.w	sl, r4, #26
 80035ac:	9b09      	ldr	r3, [sp, #36]	; 0x24
 80035ae:	425b      	negs	r3, r3
 80035b0:	454b      	cmp	r3, r9
 80035b2:	dc01      	bgt.n	80035b8 <_printf_float+0x2c0>
 80035b4:	9b0a      	ldr	r3, [sp, #40]	; 0x28
 80035b6:	e792      	b.n	80034de <_printf_float+0x1e6>
 80035b8:	2301      	movs	r3, #1
 80035ba:	4652      	mov	r2, sl
 80035bc:	4631      	mov	r1, r6
 80035be:	4628      	mov	r0, r5
 80035c0:	47b8      	blx	r7
 80035c2:	3001      	adds	r0, #1
 80035c4:	f43f aef7 	beq.w	80033b6 <_printf_float+0xbe>
 80035c8:	f109 0901 	add.w	r9, r9, #1
 80035cc:	e7ee      	b.n	80035ac <_printf_float+0x2b4>
 80035ce:	bf00      	nop
 80035d0:	7fefffff 	.word	0x7fefffff
 80035d4:	080066f7 	.word	0x080066f7
 80035d8:	080066fb 	.word	0x080066fb
 80035dc:	080066ff 	.word	0x080066ff
 80035e0:	08006703 	.word	0x08006703
 80035e4:	08006707 	.word	0x08006707
 80035e8:	9a0a      	ldr	r2, [sp, #40]	; 0x28
 80035ea:	6da3      	ldr	r3, [r4, #88]	; 0x58
 80035ec:	429a      	cmp	r2, r3
 80035ee:	bfa8      	it	ge
 80035f0:	461a      	movge	r2, r3
 80035f2:	2a00      	cmp	r2, #0
 80035f4:	4691      	mov	r9, r2
 80035f6:	dc37      	bgt.n	8003668 <_printf_float+0x370>
 80035f8:	f04f 0b00 	mov.w	fp, #0
 80035fc:	ea29 79e9 	bic.w	r9, r9, r9, asr #31
 8003600:	f104 021a 	add.w	r2, r4, #26
 8003604:	6da3      	ldr	r3, [r4, #88]	; 0x58
 8003606:	9305      	str	r3, [sp, #20]
 8003608:	eba3 0309 	sub.w	r3, r3, r9
 800360c:	455b      	cmp	r3, fp
 800360e:	dc33      	bgt.n	8003678 <_printf_float+0x380>
 8003610:	e9dd 2309 	ldrd	r2, r3, [sp, #36]	; 0x24
 8003614:	429a      	cmp	r2, r3
 8003616:	db3b      	blt.n	8003690 <_printf_float+0x398>
 8003618:	6823      	ldr	r3, [r4, #0]
 800361a:	07da      	lsls	r2, r3, #31
 800361c:	d438      	bmi.n	8003690 <_printf_float+0x398>
 800361e:	e9dd 3209 	ldrd	r3, r2, [sp, #36]	; 0x24
 8003622:	eba2 0903 	sub.w	r9, r2, r3
 8003626:	9b05      	ldr	r3, [sp, #20]
 8003628:	1ad2      	subs	r2, r2, r3
 800362a:	4591      	cmp	r9, r2
 800362c:	bfa8      	it	ge
 800362e:	4691      	movge	r9, r2
 8003630:	f1b9 0f00 	cmp.w	r9, #0
 8003634:	dc35      	bgt.n	80036a2 <_printf_float+0x3aa>
 8003636:	f04f 0800 	mov.w	r8, #0
 800363a:	ea29 79e9 	bic.w	r9, r9, r9, asr #31
 800363e:	f104 0a1a 	add.w	sl, r4, #26
 8003642:	e9dd 2309 	ldrd	r2, r3, [sp, #36]	; 0x24
 8003646:	1a9b      	subs	r3, r3, r2
 8003648:	eba3 0309 	sub.w	r3, r3, r9
 800364c:	4543      	cmp	r3, r8
 800364e:	f77f af79 	ble.w	8003544 <_printf_float+0x24c>
 8003652:	2301      	movs	r3, #1
 8003654:	4652      	mov	r2, sl
 8003656:	4631      	mov	r1, r6
 8003658:	4628      	mov	r0, r5
 800365a:	47b8      	blx	r7
 800365c:	3001      	adds	r0, #1
 800365e:	f43f aeaa 	beq.w	80033b6 <_printf_float+0xbe>
 8003662:	f108 0801 	add.w	r8, r8, #1
 8003666:	e7ec      	b.n	8003642 <_printf_float+0x34a>
 8003668:	4613      	mov	r3, r2
 800366a:	4631      	mov	r1, r6
 800366c:	4642      	mov	r2, r8
 800366e:	4628      	mov	r0, r5
 8003670:	47b8      	blx	r7
 8003672:	3001      	adds	r0, #1
 8003674:	d1c0      	bne.n	80035f8 <_printf_float+0x300>
 8003676:	e69e      	b.n	80033b6 <_printf_float+0xbe>
 8003678:	2301      	movs	r3, #1
 800367a:	4631      	mov	r1, r6
 800367c:	4628      	mov	r0, r5
 800367e:	9205      	str	r2, [sp, #20]
 8003680:	47b8      	blx	r7
 8003682:	3001      	adds	r0, #1
 8003684:	f43f ae97 	beq.w	80033b6 <_printf_float+0xbe>
 8003688:	9a05      	ldr	r2, [sp, #20]
 800368a:	f10b 0b01 	add.w	fp, fp, #1
 800368e:	e7b9      	b.n	8003604 <_printf_float+0x30c>
 8003690:	ee18 3a10 	vmov	r3, s16
 8003694:	4652      	mov	r2, sl
 8003696:	4631      	mov	r1, r6
 8003698:	4628      	mov	r0, r5
 800369a:	47b8      	blx	r7
 800369c:	3001      	adds	r0, #1
 800369e:	d1be      	bne.n	800361e <_printf_float+0x326>
 80036a0:	e689      	b.n	80033b6 <_printf_float+0xbe>
 80036a2:	9a05      	ldr	r2, [sp, #20]
 80036a4:	464b      	mov	r3, r9
 80036a6:	4442      	add	r2, r8
 80036a8:	4631      	mov	r1, r6
 80036aa:	4628      	mov	r0, r5
 80036ac:	47b8      	blx	r7
 80036ae:	3001      	adds	r0, #1
 80036b0:	d1c1      	bne.n	8003636 <_printf_float+0x33e>
 80036b2:	e680      	b.n	80033b6 <_printf_float+0xbe>
 80036b4:	9a0a      	ldr	r2, [sp, #40]	; 0x28
 80036b6:	2a01      	cmp	r2, #1
 80036b8:	dc01      	bgt.n	80036be <_printf_float+0x3c6>
 80036ba:	07db      	lsls	r3, r3, #31
 80036bc:	d53a      	bpl.n	8003734 <_printf_float+0x43c>
 80036be:	2301      	movs	r3, #1
 80036c0:	4642      	mov	r2, r8
 80036c2:	4631      	mov	r1, r6
 80036c4:	4628      	mov	r0, r5
 80036c6:	47b8      	blx	r7
 80036c8:	3001      	adds	r0, #1
 80036ca:	f43f ae74 	beq.w	80033b6 <_printf_float+0xbe>
 80036ce:	ee18 3a10 	vmov	r3, s16
 80036d2:	4652      	mov	r2, sl
 80036d4:	4631      	mov	r1, r6
 80036d6:	4628      	mov	r0, r5
 80036d8:	47b8      	blx	r7
 80036da:	3001      	adds	r0, #1
 80036dc:	f43f ae6b 	beq.w	80033b6 <_printf_float+0xbe>
 80036e0:	e9d4 0112 	ldrd	r0, r1, [r4, #72]	; 0x48
 80036e4:	2200      	movs	r2, #0
 80036e6:	2300      	movs	r3, #0
 80036e8:	f8dd a028 	ldr.w	sl, [sp, #40]	; 0x28
 80036ec:	f7fd f9ec 	bl	8000ac8 <__aeabi_dcmpeq>
 80036f0:	b9d8      	cbnz	r0, 800372a <_printf_float+0x432>
 80036f2:	f10a 33ff 	add.w	r3, sl, #4294967295
 80036f6:	f108 0201 	add.w	r2, r8, #1
 80036fa:	4631      	mov	r1, r6
 80036fc:	4628      	mov	r0, r5
 80036fe:	47b8      	blx	r7
 8003700:	3001      	adds	r0, #1
 8003702:	d10e      	bne.n	8003722 <_printf_float+0x42a>
 8003704:	e657      	b.n	80033b6 <_printf_float+0xbe>
 8003706:	2301      	movs	r3, #1
 8003708:	4652      	mov	r2, sl
 800370a:	4631      	mov	r1, r6
 800370c:	4628      	mov	r0, r5
 800370e:	47b8      	blx	r7
 8003710:	3001      	adds	r0, #1
 8003712:	f43f ae50 	beq.w	80033b6 <_printf_float+0xbe>
 8003716:	f108 0801 	add.w	r8, r8, #1
 800371a:	9b0a      	ldr	r3, [sp, #40]	; 0x28
 800371c:	3b01      	subs	r3, #1
 800371e:	4543      	cmp	r3, r8
 8003720:	dcf1      	bgt.n	8003706 <_printf_float+0x40e>
 8003722:	464b      	mov	r3, r9
 8003724:	f104 0250 	add.w	r2, r4, #80	; 0x50
 8003728:	e6da      	b.n	80034e0 <_printf_float+0x1e8>
 800372a:	f04f 0800 	mov.w	r8, #0
 800372e:	f104 0a1a 	add.w	sl, r4, #26
 8003732:	e7f2      	b.n	800371a <_printf_float+0x422>
 8003734:	2301      	movs	r3, #1
 8003736:	4642      	mov	r2, r8
 8003738:	e7df      	b.n	80036fa <_printf_float+0x402>
 800373a:	2301      	movs	r3, #1
 800373c:	464a      	mov	r2, r9
 800373e:	4631      	mov	r1, r6
 8003740:	4628      	mov	r0, r5
 8003742:	47b8      	blx	r7
 8003744:	3001      	adds	r0, #1
 8003746:	f43f ae36 	beq.w	80033b6 <_printf_float+0xbe>
 800374a:	f108 0801 	add.w	r8, r8, #1
 800374e:	68e3      	ldr	r3, [r4, #12]
 8003750:	990b      	ldr	r1, [sp, #44]	; 0x2c
 8003752:	1a5b      	subs	r3, r3, r1
 8003754:	4543      	cmp	r3, r8
 8003756:	dcf0      	bgt.n	800373a <_printf_float+0x442>
 8003758:	e6f8      	b.n	800354c <_printf_float+0x254>
 800375a:	f04f 0800 	mov.w	r8, #0
 800375e:	f104 0919 	add.w	r9, r4, #25
 8003762:	e7f4      	b.n	800374e <_printf_float+0x456>

08003764 <_printf_common>:
 8003764:	e92d 47f0 	stmdb	sp!, {r4, r5, r6, r7, r8, r9, sl, lr}
 8003768:	4616      	mov	r6, r2
 800376a:	4699      	mov	r9, r3
 800376c:	688a      	ldr	r2, [r1, #8]
 800376e:	690b      	ldr	r3, [r1, #16]
 8003770:	f8dd 8020 	ldr.w	r8, [sp, #32]
 8003774:	4293      	cmp	r3, r2
 8003776:	bfb8      	it	lt
 8003778:	4613      	movlt	r3, r2
 800377a:	6033      	str	r3, [r6, #0]
 800377c:	f891 2043 	ldrb.w	r2, [r1, #67]	; 0x43
 8003780:	4607      	mov	r7, r0
 8003782:	460c      	mov	r4, r1
 8003784:	b10a      	cbz	r2, 800378a <_printf_common+0x26>
 8003786:	3301      	adds	r3, #1
 8003788:	6033      	str	r3, [r6, #0]
 800378a:	6823      	ldr	r3, [r4, #0]
 800378c:	0699      	lsls	r1, r3, #26
 800378e:	bf42      	ittt	mi
 8003790:	6833      	ldrmi	r3, [r6, #0]
 8003792:	3302      	addmi	r3, #2
 8003794:	6033      	strmi	r3, [r6, #0]
 8003796:	6825      	ldr	r5, [r4, #0]
 8003798:	f015 0506 	ands.w	r5, r5, #6
 800379c:	d106      	bne.n	80037ac <_printf_common+0x48>
 800379e:	f104 0a19 	add.w	sl, r4, #25
 80037a2:	68e3      	ldr	r3, [r4, #12]
 80037a4:	6832      	ldr	r2, [r6, #0]
 80037a6:	1a9b      	subs	r3, r3, r2
 80037a8:	42ab      	cmp	r3, r5
 80037aa:	dc26      	bgt.n	80037fa <_printf_common+0x96>
 80037ac:	f894 2043 	ldrb.w	r2, [r4, #67]	; 0x43
 80037b0:	1e13      	subs	r3, r2, #0
 80037b2:	6822      	ldr	r2, [r4, #0]
 80037b4:	bf18      	it	ne
 80037b6:	2301      	movne	r3, #1
 80037b8:	0692      	lsls	r2, r2, #26
 80037ba:	d42b      	bmi.n	8003814 <_printf_common+0xb0>
 80037bc:	f104 0243 	add.w	r2, r4, #67	; 0x43
 80037c0:	4649      	mov	r1, r9
 80037c2:	4638      	mov	r0, r7
 80037c4:	47c0      	blx	r8
 80037c6:	3001      	adds	r0, #1
 80037c8:	d01e      	beq.n	8003808 <_printf_common+0xa4>
 80037ca:	6823      	ldr	r3, [r4, #0]
 80037cc:	6922      	ldr	r2, [r4, #16]
 80037ce:	f003 0306 	and.w	r3, r3, #6
 80037d2:	2b04      	cmp	r3, #4
 80037d4:	bf02      	ittt	eq
 80037d6:	68e5      	ldreq	r5, [r4, #12]
 80037d8:	6833      	ldreq	r3, [r6, #0]
 80037da:	1aed      	subeq	r5, r5, r3
 80037dc:	68a3      	ldr	r3, [r4, #8]
 80037de:	bf0c      	ite	eq
 80037e0:	ea25 75e5 	biceq.w	r5, r5, r5, asr #31
 80037e4:	2500      	movne	r5, #0
 80037e6:	4293      	cmp	r3, r2
 80037e8:	bfc4      	itt	gt
 80037ea:	1a9b      	subgt	r3, r3, r2
 80037ec:	18ed      	addgt	r5, r5, r3
 80037ee:	2600      	movs	r6, #0
 80037f0:	341a      	adds	r4, #26
 80037f2:	42b5      	cmp	r5, r6
 80037f4:	d11a      	bne.n	800382c <_printf_common+0xc8>
 80037f6:	2000      	movs	r0, #0
 80037f8:	e008      	b.n	800380c <_printf_common+0xa8>
 80037fa:	2301      	movs	r3, #1
 80037fc:	4652      	mov	r2, sl
 80037fe:	4649      	mov	r1, r9
 8003800:	4638      	mov	r0, r7
 8003802:	47c0      	blx	r8
 8003804:	3001      	adds	r0, #1
 8003806:	d103      	bne.n	8003810 <_printf_common+0xac>
 8003808:	f04f 30ff 	mov.w	r0, #4294967295
 800380c:	e8bd 87f0 	ldmia.w	sp!, {r4, r5, r6, r7, r8, r9, sl, pc}
 8003810:	3501      	adds	r5, #1
 8003812:	e7c6      	b.n	80037a2 <_printf_common+0x3e>
 8003814:	18e1      	adds	r1, r4, r3
 8003816:	1c5a      	adds	r2, r3, #1
 8003818:	2030      	movs	r0, #48	; 0x30
 800381a:	f881 0043 	strb.w	r0, [r1, #67]	; 0x43
 800381e:	4422      	add	r2, r4
 8003820:	f894 1045 	ldrb.w	r1, [r4, #69]	; 0x45
 8003824:	f882 1043 	strb.w	r1, [r2, #67]	; 0x43
 8003828:	3302      	adds	r3, #2
 800382a:	e7c7      	b.n	80037bc <_printf_common+0x58>
 800382c:	2301      	movs	r3, #1
 800382e:	4622      	mov	r2, r4
 8003830:	4649      	mov	r1, r9
 8003832:	4638      	mov	r0, r7
 8003834:	47c0      	blx	r8
 8003836:	3001      	adds	r0, #1
 8003838:	d0e6      	beq.n	8003808 <_printf_common+0xa4>
 800383a:	3601      	adds	r6, #1
 800383c:	e7d9      	b.n	80037f2 <_printf_common+0x8e>
	...

08003840 <_printf_i>:
 8003840:	e92d 47ff 	stmdb	sp!, {r0, r1, r2, r3, r4, r5, r6, r7, r8, r9, sl, lr}
 8003844:	7e0f      	ldrb	r7, [r1, #24]
 8003846:	9d0c      	ldr	r5, [sp, #48]	; 0x30
 8003848:	2f78      	cmp	r7, #120	; 0x78
 800384a:	4691      	mov	r9, r2
 800384c:	4680      	mov	r8, r0
 800384e:	460c      	mov	r4, r1
 8003850:	469a      	mov	sl, r3
 8003852:	f101 0243 	add.w	r2, r1, #67	; 0x43
 8003856:	d807      	bhi.n	8003868 <_printf_i+0x28>
 8003858:	2f62      	cmp	r7, #98	; 0x62
 800385a:	d80a      	bhi.n	8003872 <_printf_i+0x32>
 800385c:	2f00      	cmp	r7, #0
 800385e:	f000 80d4 	beq.w	8003a0a <_printf_i+0x1ca>
 8003862:	2f58      	cmp	r7, #88	; 0x58
 8003864:	f000 80c0 	beq.w	80039e8 <_printf_i+0x1a8>
 8003868:	f104 0542 	add.w	r5, r4, #66	; 0x42
 800386c:	f884 7042 	strb.w	r7, [r4, #66]	; 0x42
 8003870:	e03a      	b.n	80038e8 <_printf_i+0xa8>
 8003872:	f1a7 0363 	sub.w	r3, r7, #99	; 0x63
 8003876:	2b15      	cmp	r3, #21
 8003878:	d8f6      	bhi.n	8003868 <_printf_i+0x28>
 800387a:	a101      	add	r1, pc, #4	; (adr r1, 8003880 <_printf_i+0x40>)
 800387c:	f851 f023 	ldr.w	pc, [r1, r3, lsl #2]
 8003880:	080038d9 	.word	0x080038d9
 8003884:	080038ed 	.word	0x080038ed
 8003888:	08003869 	.word	0x08003869
 800388c:	08003869 	.word	0x08003869
 8003890:	08003869 	.word	0x08003869
 8003894:	08003869 	.word	0x08003869
 8003898:	080038ed 	.word	0x080038ed
 800389c:	08003869 	.word	0x08003869
 80038a0:	08003869 	.word	0x08003869
 80038a4:	08003869 	.word	0x08003869
 80038a8:	08003869 	.word	0x08003869
 80038ac:	080039f1 	.word	0x080039f1
 80038b0:	08003919 	.word	0x08003919
 80038b4:	080039ab 	.word	0x080039ab
 80038b8:	08003869 	.word	0x08003869
 80038bc:	08003869 	.word	0x08003869
 80038c0:	08003a13 	.word	0x08003a13
 80038c4:	08003869 	.word	0x08003869
 80038c8:	08003919 	.word	0x08003919
 80038cc:	08003869 	.word	0x08003869
 80038d0:	08003869 	.word	0x08003869
 80038d4:	080039b3 	.word	0x080039b3
 80038d8:	682b      	ldr	r3, [r5, #0]
 80038da:	1d1a      	adds	r2, r3, #4
 80038dc:	681b      	ldr	r3, [r3, #0]
 80038de:	602a      	str	r2, [r5, #0]
 80038e0:	f104 0542 	add.w	r5, r4, #66	; 0x42
 80038e4:	f884 3042 	strb.w	r3, [r4, #66]	; 0x42
 80038e8:	2301      	movs	r3, #1
 80038ea:	e09f      	b.n	8003a2c <_printf_i+0x1ec>
 80038ec:	6820      	ldr	r0, [r4, #0]
 80038ee:	682b      	ldr	r3, [r5, #0]
 80038f0:	0607      	lsls	r7, r0, #24
 80038f2:	f103 0104 	add.w	r1, r3, #4
 80038f6:	6029      	str	r1, [r5, #0]
 80038f8:	d501      	bpl.n	80038fe <_printf_i+0xbe>
 80038fa:	681e      	ldr	r6, [r3, #0]
 80038fc:	e003      	b.n	8003906 <_printf_i+0xc6>
 80038fe:	0646      	lsls	r6, r0, #25
 8003900:	d5fb      	bpl.n	80038fa <_printf_i+0xba>
 8003902:	f9b3 6000 	ldrsh.w	r6, [r3]
 8003906:	2e00      	cmp	r6, #0
 8003908:	da03      	bge.n	8003912 <_printf_i+0xd2>
 800390a:	232d      	movs	r3, #45	; 0x2d
 800390c:	4276      	negs	r6, r6
 800390e:	f884 3043 	strb.w	r3, [r4, #67]	; 0x43
 8003912:	485a      	ldr	r0, [pc, #360]	; (8003a7c <_printf_i+0x23c>)
 8003914:	230a      	movs	r3, #10
 8003916:	e012      	b.n	800393e <_printf_i+0xfe>
 8003918:	682b      	ldr	r3, [r5, #0]
 800391a:	6820      	ldr	r0, [r4, #0]
 800391c:	1d19      	adds	r1, r3, #4
 800391e:	6029      	str	r1, [r5, #0]
 8003920:	0605      	lsls	r5, r0, #24
 8003922:	d501      	bpl.n	8003928 <_printf_i+0xe8>
 8003924:	681e      	ldr	r6, [r3, #0]
 8003926:	e002      	b.n	800392e <_printf_i+0xee>
 8003928:	0641      	lsls	r1, r0, #25
 800392a:	d5fb      	bpl.n	8003924 <_printf_i+0xe4>
 800392c:	881e      	ldrh	r6, [r3, #0]
 800392e:	4853      	ldr	r0, [pc, #332]	; (8003a7c <_printf_i+0x23c>)
 8003930:	2f6f      	cmp	r7, #111	; 0x6f
 8003932:	bf0c      	ite	eq
 8003934:	2308      	moveq	r3, #8
 8003936:	230a      	movne	r3, #10
 8003938:	2100      	movs	r1, #0
 800393a:	f884 1043 	strb.w	r1, [r4, #67]	; 0x43
 800393e:	6865      	ldr	r5, [r4, #4]
 8003940:	60a5      	str	r5, [r4, #8]
 8003942:	2d00      	cmp	r5, #0
 8003944:	bfa2      	ittt	ge
 8003946:	6821      	ldrge	r1, [r4, #0]
 8003948:	f021 0104 	bicge.w	r1, r1, #4
 800394c:	6021      	strge	r1, [r4, #0]
 800394e:	b90e      	cbnz	r6, 8003954 <_printf_i+0x114>
 8003950:	2d00      	cmp	r5, #0
 8003952:	d04b      	beq.n	80039ec <_printf_i+0x1ac>
 8003954:	4615      	mov	r5, r2
 8003956:	fbb6 f1f3 	udiv	r1, r6, r3
 800395a:	fb03 6711 	mls	r7, r3, r1, r6
 800395e:	5dc7      	ldrb	r7, [r0, r7]
 8003960:	f805 7d01 	strb.w	r7, [r5, #-1]!
 8003964:	4637      	mov	r7, r6
 8003966:	42bb      	cmp	r3, r7
 8003968:	460e      	mov	r6, r1
 800396a:	d9f4      	bls.n	8003956 <_printf_i+0x116>
 800396c:	2b08      	cmp	r3, #8
 800396e:	d10b      	bne.n	8003988 <_printf_i+0x148>
 8003970:	6823      	ldr	r3, [r4, #0]
 8003972:	07de      	lsls	r6, r3, #31
 8003974:	d508      	bpl.n	8003988 <_printf_i+0x148>
 8003976:	6923      	ldr	r3, [r4, #16]
 8003978:	6861      	ldr	r1, [r4, #4]
 800397a:	4299      	cmp	r1, r3
 800397c:	bfde      	ittt	le
 800397e:	2330      	movle	r3, #48	; 0x30
 8003980:	f805 3c01 	strble.w	r3, [r5, #-1]
 8003984:	f105 35ff 	addle.w	r5, r5, #4294967295
 8003988:	1b52      	subs	r2, r2, r5
 800398a:	6122      	str	r2, [r4, #16]
 800398c:	f8cd a000 	str.w	sl, [sp]
 8003990:	464b      	mov	r3, r9
 8003992:	aa03      	add	r2, sp, #12
 8003994:	4621      	mov	r1, r4
 8003996:	4640      	mov	r0, r8
 8003998:	f7ff fee4 	bl	8003764 <_printf_common>
 800399c:	3001      	adds	r0, #1
 800399e:	d14a      	bne.n	8003a36 <_printf_i+0x1f6>
 80039a0:	f04f 30ff 	mov.w	r0, #4294967295
 80039a4:	b004      	add	sp, #16
 80039a6:	e8bd 87f0 	ldmia.w	sp!, {r4, r5, r6, r7, r8, r9, sl, pc}
 80039aa:	6823      	ldr	r3, [r4, #0]
 80039ac:	f043 0320 	orr.w	r3, r3, #32
 80039b0:	6023      	str	r3, [r4, #0]
 80039b2:	4833      	ldr	r0, [pc, #204]	; (8003a80 <_printf_i+0x240>)
 80039b4:	2778      	movs	r7, #120	; 0x78
 80039b6:	f884 7045 	strb.w	r7, [r4, #69]	; 0x45
 80039ba:	6823      	ldr	r3, [r4, #0]
 80039bc:	6829      	ldr	r1, [r5, #0]
 80039be:	061f      	lsls	r7, r3, #24
 80039c0:	f851 6b04 	ldr.w	r6, [r1], #4
 80039c4:	d402      	bmi.n	80039cc <_printf_i+0x18c>
 80039c6:	065f      	lsls	r7, r3, #25
 80039c8:	bf48      	it	mi
 80039ca:	b2b6      	uxthmi	r6, r6
 80039cc:	07df      	lsls	r7, r3, #31
 80039ce:	bf48      	it	mi
 80039d0:	f043 0320 	orrmi.w	r3, r3, #32
 80039d4:	6029      	str	r1, [r5, #0]
 80039d6:	bf48      	it	mi
 80039d8:	6023      	strmi	r3, [r4, #0]
 80039da:	b91e      	cbnz	r6, 80039e4 <_printf_i+0x1a4>
 80039dc:	6823      	ldr	r3, [r4, #0]
 80039de:	f023 0320 	bic.w	r3, r3, #32
 80039e2:	6023      	str	r3, [r4, #0]
 80039e4:	2310      	movs	r3, #16
 80039e6:	e7a7      	b.n	8003938 <_printf_i+0xf8>
 80039e8:	4824      	ldr	r0, [pc, #144]	; (8003a7c <_printf_i+0x23c>)
 80039ea:	e7e4      	b.n	80039b6 <_printf_i+0x176>
 80039ec:	4615      	mov	r5, r2
 80039ee:	e7bd      	b.n	800396c <_printf_i+0x12c>
 80039f0:	682b      	ldr	r3, [r5, #0]
 80039f2:	6826      	ldr	r6, [r4, #0]
 80039f4:	6961      	ldr	r1, [r4, #20]
 80039f6:	1d18      	adds	r0, r3, #4
 80039f8:	6028      	str	r0, [r5, #0]
 80039fa:	0635      	lsls	r5, r6, #24
 80039fc:	681b      	ldr	r3, [r3, #0]
 80039fe:	d501      	bpl.n	8003a04 <_printf_i+0x1c4>
 8003a00:	6019      	str	r1, [r3, #0]
 8003a02:	e002      	b.n	8003a0a <_printf_i+0x1ca>
 8003a04:	0670      	lsls	r0, r6, #25
 8003a06:	d5fb      	bpl.n	8003a00 <_printf_i+0x1c0>
 8003a08:	8019      	strh	r1, [r3, #0]
 8003a0a:	2300      	movs	r3, #0
 8003a0c:	6123      	str	r3, [r4, #16]
 8003a0e:	4615      	mov	r5, r2
 8003a10:	e7bc      	b.n	800398c <_printf_i+0x14c>
 8003a12:	682b      	ldr	r3, [r5, #0]
 8003a14:	1d1a      	adds	r2, r3, #4
 8003a16:	602a      	str	r2, [r5, #0]
 8003a18:	681d      	ldr	r5, [r3, #0]
 8003a1a:	6862      	ldr	r2, [r4, #4]
 8003a1c:	2100      	movs	r1, #0
 8003a1e:	4628      	mov	r0, r5
 8003a20:	f7fc fbd6 	bl	80001d0 <memchr>
 8003a24:	b108      	cbz	r0, 8003a2a <_printf_i+0x1ea>
 8003a26:	1b40      	subs	r0, r0, r5
 8003a28:	6060      	str	r0, [r4, #4]
 8003a2a:	6863      	ldr	r3, [r4, #4]
 8003a2c:	6123      	str	r3, [r4, #16]
 8003a2e:	2300      	movs	r3, #0
 8003a30:	f884 3043 	strb.w	r3, [r4, #67]	; 0x43
 8003a34:	e7aa      	b.n	800398c <_printf_i+0x14c>
 8003a36:	6923      	ldr	r3, [r4, #16]
 8003a38:	462a      	mov	r2, r5
 8003a3a:	4649      	mov	r1, r9
 8003a3c:	4640      	mov	r0, r8
 8003a3e:	47d0      	blx	sl
 8003a40:	3001      	adds	r0, #1
 8003a42:	d0ad      	beq.n	80039a0 <_printf_i+0x160>
 8003a44:	6823      	ldr	r3, [r4, #0]
 8003a46:	079b      	lsls	r3, r3, #30
 8003a48:	d413      	bmi.n	8003a72 <_printf_i+0x232>
 8003a4a:	68e0      	ldr	r0, [r4, #12]
 8003a4c:	9b03      	ldr	r3, [sp, #12]
 8003a4e:	4298      	cmp	r0, r3
 8003a50:	bfb8      	it	lt
 8003a52:	4618      	movlt	r0, r3
 8003a54:	e7a6      	b.n	80039a4 <_printf_i+0x164>
 8003a56:	2301      	movs	r3, #1
 8003a58:	4632      	mov	r2, r6
 8003a5a:	4649      	mov	r1, r9
 8003a5c:	4640      	mov	r0, r8
 8003a5e:	47d0      	blx	sl
 8003a60:	3001      	adds	r0, #1
 8003a62:	d09d      	beq.n	80039a0 <_printf_i+0x160>
 8003a64:	3501      	adds	r5, #1
 8003a66:	68e3      	ldr	r3, [r4, #12]
 8003a68:	9903      	ldr	r1, [sp, #12]
 8003a6a:	1a5b      	subs	r3, r3, r1
 8003a6c:	42ab      	cmp	r3, r5
 8003a6e:	dcf2      	bgt.n	8003a56 <_printf_i+0x216>
 8003a70:	e7eb      	b.n	8003a4a <_printf_i+0x20a>
 8003a72:	2500      	movs	r5, #0
 8003a74:	f104 0619 	add.w	r6, r4, #25
 8003a78:	e7f5      	b.n	8003a66 <_printf_i+0x226>
 8003a7a:	bf00      	nop
 8003a7c:	08006709 	.word	0x08006709
 8003a80:	0800671a 	.word	0x0800671a

08003a84 <std>:
 8003a84:	2300      	movs	r3, #0
 8003a86:	b510      	push	{r4, lr}
 8003a88:	4604      	mov	r4, r0
 8003a8a:	e9c0 3300 	strd	r3, r3, [r0]
 8003a8e:	e9c0 3304 	strd	r3, r3, [r0, #16]
 8003a92:	6083      	str	r3, [r0, #8]
 8003a94:	8181      	strh	r1, [r0, #12]
 8003a96:	6643      	str	r3, [r0, #100]	; 0x64
 8003a98:	81c2      	strh	r2, [r0, #14]
 8003a9a:	6183      	str	r3, [r0, #24]
 8003a9c:	4619      	mov	r1, r3
 8003a9e:	2208      	movs	r2, #8
 8003aa0:	305c      	adds	r0, #92	; 0x5c
 8003aa2:	f000 f914 	bl	8003cce <memset>
 8003aa6:	4b0d      	ldr	r3, [pc, #52]	; (8003adc <std+0x58>)
 8003aa8:	6263      	str	r3, [r4, #36]	; 0x24
 8003aaa:	4b0d      	ldr	r3, [pc, #52]	; (8003ae0 <std+0x5c>)
 8003aac:	62a3      	str	r3, [r4, #40]	; 0x28
 8003aae:	4b0d      	ldr	r3, [pc, #52]	; (8003ae4 <std+0x60>)
 8003ab0:	62e3      	str	r3, [r4, #44]	; 0x2c
 8003ab2:	4b0d      	ldr	r3, [pc, #52]	; (8003ae8 <std+0x64>)
 8003ab4:	6323      	str	r3, [r4, #48]	; 0x30
 8003ab6:	4b0d      	ldr	r3, [pc, #52]	; (8003aec <std+0x68>)
 8003ab8:	6224      	str	r4, [r4, #32]
 8003aba:	429c      	cmp	r4, r3
 8003abc:	d006      	beq.n	8003acc <std+0x48>
 8003abe:	f103 0268 	add.w	r2, r3, #104	; 0x68
 8003ac2:	4294      	cmp	r4, r2
 8003ac4:	d002      	beq.n	8003acc <std+0x48>
 8003ac6:	33d0      	adds	r3, #208	; 0xd0
 8003ac8:	429c      	cmp	r4, r3
 8003aca:	d105      	bne.n	8003ad8 <std+0x54>
 8003acc:	f104 0058 	add.w	r0, r4, #88	; 0x58
 8003ad0:	e8bd 4010 	ldmia.w	sp!, {r4, lr}
 8003ad4:	f000 b978 	b.w	8003dc8 <__retarget_lock_init_recursive>
 8003ad8:	bd10      	pop	{r4, pc}
 8003ada:	bf00      	nop
 8003adc:	08003c49 	.word	0x08003c49
 8003ae0:	08003c6b 	.word	0x08003c6b
 8003ae4:	08003ca3 	.word	0x08003ca3
 8003ae8:	08003cc7 	.word	0x08003cc7
 8003aec:	20000470 	.word	0x20000470

08003af0 <stdio_exit_handler>:
 8003af0:	4a02      	ldr	r2, [pc, #8]	; (8003afc <stdio_exit_handler+0xc>)
 8003af2:	4903      	ldr	r1, [pc, #12]	; (8003b00 <stdio_exit_handler+0x10>)
 8003af4:	4803      	ldr	r0, [pc, #12]	; (8003b04 <stdio_exit_handler+0x14>)
 8003af6:	f000 b869 	b.w	8003bcc <_fwalk_sglue>
 8003afa:	bf00      	nop
 8003afc:	20000004 	.word	0x20000004
 8003b00:	08005779 	.word	0x08005779
 8003b04:	20000010 	.word	0x20000010

08003b08 <cleanup_stdio>:
 8003b08:	6841      	ldr	r1, [r0, #4]
 8003b0a:	4b0c      	ldr	r3, [pc, #48]	; (8003b3c <cleanup_stdio+0x34>)
 8003b0c:	4299      	cmp	r1, r3
 8003b0e:	b510      	push	{r4, lr}
 8003b10:	4604      	mov	r4, r0
 8003b12:	d001      	beq.n	8003b18 <cleanup_stdio+0x10>
 8003b14:	f001 fe30 	bl	8005778 <_fflush_r>
 8003b18:	68a1      	ldr	r1, [r4, #8]
 8003b1a:	4b09      	ldr	r3, [pc, #36]	; (8003b40 <cleanup_stdio+0x38>)
 8003b1c:	4299      	cmp	r1, r3
 8003b1e:	d002      	beq.n	8003b26 <cleanup_stdio+0x1e>
 8003b20:	4620      	mov	r0, r4
 8003b22:	f001 fe29 	bl	8005778 <_fflush_r>
 8003b26:	68e1      	ldr	r1, [r4, #12]
 8003b28:	4b06      	ldr	r3, [pc, #24]	; (8003b44 <cleanup_stdio+0x3c>)
 8003b2a:	4299      	cmp	r1, r3
 8003b2c:	d004      	beq.n	8003b38 <cleanup_stdio+0x30>
 8003b2e:	4620      	mov	r0, r4
 8003b30:	e8bd 4010 	ldmia.w	sp!, {r4, lr}
 8003b34:	f001 be20 	b.w	8005778 <_fflush_r>
 8003b38:	bd10      	pop	{r4, pc}
 8003b3a:	bf00      	nop
 8003b3c:	20000470 	.word	0x20000470
 8003b40:	200004d8 	.word	0x200004d8
 8003b44:	20000540 	.word	0x20000540

08003b48 <global_stdio_init.part.0>:
 8003b48:	b510      	push	{r4, lr}
 8003b4a:	4b0b      	ldr	r3, [pc, #44]	; (8003b78 <global_stdio_init.part.0+0x30>)
 8003b4c:	4c0b      	ldr	r4, [pc, #44]	; (8003b7c <global_stdio_init.part.0+0x34>)
 8003b4e:	4a0c      	ldr	r2, [pc, #48]	; (8003b80 <global_stdio_init.part.0+0x38>)
 8003b50:	601a      	str	r2, [r3, #0]
 8003b52:	4620      	mov	r0, r4
 8003b54:	2200      	movs	r2, #0
 8003b56:	2104      	movs	r1, #4
 8003b58:	f7ff ff94 	bl	8003a84 <std>
 8003b5c:	f104 0068 	add.w	r0, r4, #104	; 0x68
 8003b60:	2201      	movs	r2, #1
 8003b62:	2109      	movs	r1, #9
 8003b64:	f7ff ff8e 	bl	8003a84 <std>
 8003b68:	f104 00d0 	add.w	r0, r4, #208	; 0xd0
 8003b6c:	2202      	movs	r2, #2
 8003b6e:	e8bd 4010 	ldmia.w	sp!, {r4, lr}
 8003b72:	2112      	movs	r1, #18
 8003b74:	f7ff bf86 	b.w	8003a84 <std>
 8003b78:	200005a8 	.word	0x200005a8
 8003b7c:	20000470 	.word	0x20000470
 8003b80:	08003af1 	.word	0x08003af1

08003b84 <__sfp_lock_acquire>:
 8003b84:	4801      	ldr	r0, [pc, #4]	; (8003b8c <__sfp_lock_acquire+0x8>)
 8003b86:	f000 b920 	b.w	8003dca <__retarget_lock_acquire_recursive>
 8003b8a:	bf00      	nop
 8003b8c:	200005b1 	.word	0x200005b1

08003b90 <__sfp_lock_release>:
 8003b90:	4801      	ldr	r0, [pc, #4]	; (8003b98 <__sfp_lock_release+0x8>)
 8003b92:	f000 b91b 	b.w	8003dcc <__retarget_lock_release_recursive>
 8003b96:	bf00      	nop
 8003b98:	200005b1 	.word	0x200005b1

08003b9c <__sinit>:
 8003b9c:	b510      	push	{r4, lr}
 8003b9e:	4604      	mov	r4, r0
 8003ba0:	f7ff fff0 	bl	8003b84 <__sfp_lock_acquire>
 8003ba4:	6a23      	ldr	r3, [r4, #32]
 8003ba6:	b11b      	cbz	r3, 8003bb0 <__sinit+0x14>
 8003ba8:	e8bd 4010 	ldmia.w	sp!, {r4, lr}
 8003bac:	f7ff bff0 	b.w	8003b90 <__sfp_lock_release>
 8003bb0:	4b04      	ldr	r3, [pc, #16]	; (8003bc4 <__sinit+0x28>)
 8003bb2:	6223      	str	r3, [r4, #32]
 8003bb4:	4b04      	ldr	r3, [pc, #16]	; (8003bc8 <__sinit+0x2c>)
 8003bb6:	681b      	ldr	r3, [r3, #0]
 8003bb8:	2b00      	cmp	r3, #0
 8003bba:	d1f5      	bne.n	8003ba8 <__sinit+0xc>
 8003bbc:	f7ff ffc4 	bl	8003b48 <global_stdio_init.part.0>
 8003bc0:	e7f2      	b.n	8003ba8 <__sinit+0xc>
 8003bc2:	bf00      	nop
 8003bc4:	08003b09 	.word	0x08003b09
 8003bc8:	200005a8 	.word	0x200005a8

08003bcc <_fwalk_sglue>:
 8003bcc:	e92d 43f8 	stmdb	sp!, {r3, r4, r5, r6, r7, r8, r9, lr}
 8003bd0:	4607      	mov	r7, r0
 8003bd2:	4688      	mov	r8, r1
 8003bd4:	4614      	mov	r4, r2
 8003bd6:	2600      	movs	r6, #0
 8003bd8:	e9d4 9501 	ldrd	r9, r5, [r4, #4]
 8003bdc:	f1b9 0901 	subs.w	r9, r9, #1
 8003be0:	d505      	bpl.n	8003bee <_fwalk_sglue+0x22>
 8003be2:	6824      	ldr	r4, [r4, #0]
 8003be4:	2c00      	cmp	r4, #0
 8003be6:	d1f7      	bne.n	8003bd8 <_fwalk_sglue+0xc>
 8003be8:	4630      	mov	r0, r6
 8003bea:	e8bd 83f8 	ldmia.w	sp!, {r3, r4, r5, r6, r7, r8, r9, pc}
 8003bee:	89ab      	ldrh	r3, [r5, #12]
 8003bf0:	2b01      	cmp	r3, #1
 8003bf2:	d907      	bls.n	8003c04 <_fwalk_sglue+0x38>
 8003bf4:	f9b5 300e 	ldrsh.w	r3, [r5, #14]
 8003bf8:	3301      	adds	r3, #1
 8003bfa:	d003      	beq.n	8003c04 <_fwalk_sglue+0x38>
 8003bfc:	4629      	mov	r1, r5
 8003bfe:	4638      	mov	r0, r7
 8003c00:	47c0      	blx	r8
 8003c02:	4306      	orrs	r6, r0
 8003c04:	3568      	adds	r5, #104	; 0x68
 8003c06:	e7e9      	b.n	8003bdc <_fwalk_sglue+0x10>

08003c08 <siprintf>:
 8003c08:	b40e      	push	{r1, r2, r3}
 8003c0a:	b500      	push	{lr}
 8003c0c:	b09c      	sub	sp, #112	; 0x70
 8003c0e:	ab1d      	add	r3, sp, #116	; 0x74
 8003c10:	9002      	str	r0, [sp, #8]
 8003c12:	9006      	str	r0, [sp, #24]
 8003c14:	f06f 4100 	mvn.w	r1, #2147483648	; 0x80000000
 8003c18:	4809      	ldr	r0, [pc, #36]	; (8003c40 <siprintf+0x38>)
 8003c1a:	9107      	str	r1, [sp, #28]
 8003c1c:	9104      	str	r1, [sp, #16]
 8003c1e:	4909      	ldr	r1, [pc, #36]	; (8003c44 <siprintf+0x3c>)
 8003c20:	f853 2b04 	ldr.w	r2, [r3], #4
 8003c24:	9105      	str	r1, [sp, #20]
 8003c26:	6800      	ldr	r0, [r0, #0]
 8003c28:	9301      	str	r3, [sp, #4]
 8003c2a:	a902      	add	r1, sp, #8
 8003c2c:	f001 fc20 	bl	8005470 <_svfiprintf_r>
 8003c30:	9b02      	ldr	r3, [sp, #8]
 8003c32:	2200      	movs	r2, #0
 8003c34:	701a      	strb	r2, [r3, #0]
 8003c36:	b01c      	add	sp, #112	; 0x70
 8003c38:	f85d eb04 	ldr.w	lr, [sp], #4
 8003c3c:	b003      	add	sp, #12
 8003c3e:	4770      	bx	lr
 8003c40:	2000005c 	.word	0x2000005c
 8003c44:	ffff0208 	.word	0xffff0208

08003c48 <__sread>:
 8003c48:	b510      	push	{r4, lr}
 8003c4a:	460c      	mov	r4, r1
 8003c4c:	f9b1 100e 	ldrsh.w	r1, [r1, #14]
 8003c50:	f000 f86c 	bl	8003d2c <_read_r>
 8003c54:	2800      	cmp	r0, #0
 8003c56:	bfab      	itete	ge
 8003c58:	6d63      	ldrge	r3, [r4, #84]	; 0x54
 8003c5a:	89a3      	ldrhlt	r3, [r4, #12]
 8003c5c:	181b      	addge	r3, r3, r0
 8003c5e:	f423 5380 	biclt.w	r3, r3, #4096	; 0x1000
 8003c62:	bfac      	ite	ge
 8003c64:	6563      	strge	r3, [r4, #84]	; 0x54
 8003c66:	81a3      	strhlt	r3, [r4, #12]
 8003c68:	bd10      	pop	{r4, pc}

08003c6a <__swrite>:
 8003c6a:	e92d 41f0 	stmdb	sp!, {r4, r5, r6, r7, r8, lr}
 8003c6e:	461f      	mov	r7, r3
 8003c70:	898b      	ldrh	r3, [r1, #12]
 8003c72:	05db      	lsls	r3, r3, #23
 8003c74:	4605      	mov	r5, r0
 8003c76:	460c      	mov	r4, r1
 8003c78:	4616      	mov	r6, r2
 8003c7a:	d505      	bpl.n	8003c88 <__swrite+0x1e>
 8003c7c:	f9b1 100e 	ldrsh.w	r1, [r1, #14]
 8003c80:	2302      	movs	r3, #2
 8003c82:	2200      	movs	r2, #0
 8003c84:	f000 f840 	bl	8003d08 <_lseek_r>
 8003c88:	89a3      	ldrh	r3, [r4, #12]
 8003c8a:	f9b4 100e 	ldrsh.w	r1, [r4, #14]
 8003c8e:	f423 5380 	bic.w	r3, r3, #4096	; 0x1000
 8003c92:	81a3      	strh	r3, [r4, #12]
 8003c94:	4632      	mov	r2, r6
 8003c96:	463b      	mov	r3, r7
 8003c98:	4628      	mov	r0, r5
 8003c9a:	e8bd 41f0 	ldmia.w	sp!, {r4, r5, r6, r7, r8, lr}
 8003c9e:	f000 b857 	b.w	8003d50 <_write_r>

08003ca2 <__sseek>:
 8003ca2:	b510      	push	{r4, lr}
 8003ca4:	460c      	mov	r4, r1
 8003ca6:	f9b1 100e 	ldrsh.w	r1, [r1, #14]
 8003caa:	f000 f82d 	bl	8003d08 <_lseek_r>
 8003cae:	1c43      	adds	r3, r0, #1
 8003cb0:	89a3      	ldrh	r3, [r4, #12]
 8003cb2:	bf15      	itete	ne
 8003cb4:	6560      	strne	r0, [r4, #84]	; 0x54
 8003cb6:	f423 5380 	biceq.w	r3, r3, #4096	; 0x1000
 8003cba:	f443 5380 	orrne.w	r3, r3, #4096	; 0x1000
 8003cbe:	81a3      	strheq	r3, [r4, #12]
 8003cc0:	bf18      	it	ne
 8003cc2:	81a3      	strhne	r3, [r4, #12]
 8003cc4:	bd10      	pop	{r4, pc}

08003cc6 <__sclose>:
 8003cc6:	f9b1 100e 	ldrsh.w	r1, [r1, #14]
 8003cca:	f000 b80d 	b.w	8003ce8 <_close_r>

08003cce <memset>:
 8003cce:	4402      	add	r2, r0
 8003cd0:	4603      	mov	r3, r0
 8003cd2:	4293      	cmp	r3, r2
 8003cd4:	d100      	bne.n	8003cd8 <memset+0xa>
 8003cd6:	4770      	bx	lr
 8003cd8:	f803 1b01 	strb.w	r1, [r3], #1
 8003cdc:	e7f9      	b.n	8003cd2 <memset+0x4>
	...

08003ce0 <_localeconv_r>:
 8003ce0:	4800      	ldr	r0, [pc, #0]	; (8003ce4 <_localeconv_r+0x4>)
 8003ce2:	4770      	bx	lr
 8003ce4:	20000150 	.word	0x20000150

08003ce8 <_close_r>:
 8003ce8:	b538      	push	{r3, r4, r5, lr}
 8003cea:	4d06      	ldr	r5, [pc, #24]	; (8003d04 <_close_r+0x1c>)
 8003cec:	2300      	movs	r3, #0
 8003cee:	4604      	mov	r4, r0
 8003cf0:	4608      	mov	r0, r1
 8003cf2:	602b      	str	r3, [r5, #0]
 8003cf4:	f7fe fcdb 	bl	80026ae <_close>
 8003cf8:	1c43      	adds	r3, r0, #1
 8003cfa:	d102      	bne.n	8003d02 <_close_r+0x1a>
 8003cfc:	682b      	ldr	r3, [r5, #0]
 8003cfe:	b103      	cbz	r3, 8003d02 <_close_r+0x1a>
 8003d00:	6023      	str	r3, [r4, #0]
 8003d02:	bd38      	pop	{r3, r4, r5, pc}
 8003d04:	200005ac 	.word	0x200005ac

08003d08 <_lseek_r>:
 8003d08:	b538      	push	{r3, r4, r5, lr}
 8003d0a:	4d07      	ldr	r5, [pc, #28]	; (8003d28 <_lseek_r+0x20>)
 8003d0c:	4604      	mov	r4, r0
 8003d0e:	4608      	mov	r0, r1
 8003d10:	4611      	mov	r1, r2
 8003d12:	2200      	movs	r2, #0
 8003d14:	602a      	str	r2, [r5, #0]
 8003d16:	461a      	mov	r2, r3
 8003d18:	f7fe fcf0 	bl	80026fc <_lseek>
 8003d1c:	1c43      	adds	r3, r0, #1
 8003d1e:	d102      	bne.n	8003d26 <_lseek_r+0x1e>
 8003d20:	682b      	ldr	r3, [r5, #0]
 8003d22:	b103      	cbz	r3, 8003d26 <_lseek_r+0x1e>
 8003d24:	6023      	str	r3, [r4, #0]
 8003d26:	bd38      	pop	{r3, r4, r5, pc}
 8003d28:	200005ac 	.word	0x200005ac

08003d2c <_read_r>:
 8003d2c:	b538      	push	{r3, r4, r5, lr}
 8003d2e:	4d07      	ldr	r5, [pc, #28]	; (8003d4c <_read_r+0x20>)
 8003d30:	4604      	mov	r4, r0
 8003d32:	4608      	mov	r0, r1
 8003d34:	4611      	mov	r1, r2
 8003d36:	2200      	movs	r2, #0
 8003d38:	602a      	str	r2, [r5, #0]
 8003d3a:	461a      	mov	r2, r3
 8003d3c:	f7fe fc7e 	bl	800263c <_read>
 8003d40:	1c43      	adds	r3, r0, #1
 8003d42:	d102      	bne.n	8003d4a <_read_r+0x1e>
 8003d44:	682b      	ldr	r3, [r5, #0]
 8003d46:	b103      	cbz	r3, 8003d4a <_read_r+0x1e>
 8003d48:	6023      	str	r3, [r4, #0]
 8003d4a:	bd38      	pop	{r3, r4, r5, pc}
 8003d4c:	200005ac 	.word	0x200005ac

08003d50 <_write_r>:
 8003d50:	b538      	push	{r3, r4, r5, lr}
 8003d52:	4d07      	ldr	r5, [pc, #28]	; (8003d70 <_write_r+0x20>)
 8003d54:	4604      	mov	r4, r0
 8003d56:	4608      	mov	r0, r1
 8003d58:	4611      	mov	r1, r2
 8003d5a:	2200      	movs	r2, #0
 8003d5c:	602a      	str	r2, [r5, #0]
 8003d5e:	461a      	mov	r2, r3
 8003d60:	f7fe fc89 	bl	8002676 <_write>
 8003d64:	1c43      	adds	r3, r0, #1
 8003d66:	d102      	bne.n	8003d6e <_write_r+0x1e>
 8003d68:	682b      	ldr	r3, [r5, #0]
 8003d6a:	b103      	cbz	r3, 8003d6e <_write_r+0x1e>
 8003d6c:	6023      	str	r3, [r4, #0]
 8003d6e:	bd38      	pop	{r3, r4, r5, pc}
 8003d70:	200005ac 	.word	0x200005ac

08003d74 <__errno>:
 8003d74:	4b01      	ldr	r3, [pc, #4]	; (8003d7c <__errno+0x8>)
 8003d76:	6818      	ldr	r0, [r3, #0]
 8003d78:	4770      	bx	lr
 8003d7a:	bf00      	nop
 8003d7c:	2000005c 	.word	0x2000005c

08003d80 <__libc_init_array>:
 8003d80:	b570      	push	{r4, r5, r6, lr}
 8003d82:	4d0d      	ldr	r5, [pc, #52]	; (8003db8 <__libc_init_array+0x38>)
 8003d84:	4c0d      	ldr	r4, [pc, #52]	; (8003dbc <__libc_init_array+0x3c>)
 8003d86:	1b64      	subs	r4, r4, r5
 8003d88:	10a4      	asrs	r4, r4, #2
 8003d8a:	2600      	movs	r6, #0
 8003d8c:	42a6      	cmp	r6, r4
 8003d8e:	d109      	bne.n	8003da4 <__libc_init_array+0x24>
 8003d90:	4d0b      	ldr	r5, [pc, #44]	; (8003dc0 <__libc_init_array+0x40>)
 8003d92:	4c0c      	ldr	r4, [pc, #48]	; (8003dc4 <__libc_init_array+0x44>)
 8003d94:	f002 fc56 	bl	8006644 <_init>
 8003d98:	1b64      	subs	r4, r4, r5
 8003d9a:	10a4      	asrs	r4, r4, #2
 8003d9c:	2600      	movs	r6, #0
 8003d9e:	42a6      	cmp	r6, r4
 8003da0:	d105      	bne.n	8003dae <__libc_init_array+0x2e>
 8003da2:	bd70      	pop	{r4, r5, r6, pc}
 8003da4:	f855 3b04 	ldr.w	r3, [r5], #4
 8003da8:	4798      	blx	r3
 8003daa:	3601      	adds	r6, #1
 8003dac:	e7ee      	b.n	8003d8c <__libc_init_array+0xc>
 8003dae:	f855 3b04 	ldr.w	r3, [r5], #4
 8003db2:	4798      	blx	r3
 8003db4:	3601      	adds	r6, #1
 8003db6:	e7f2      	b.n	8003d9e <__libc_init_array+0x1e>
 8003db8:	08006a84 	.word	0x08006a84
 8003dbc:	08006a84 	.word	0x08006a84
 8003dc0:	08006a84 	.word	0x08006a84
 8003dc4:	08006a88 	.word	0x08006a88

08003dc8 <__retarget_lock_init_recursive>:
 8003dc8:	4770      	bx	lr

08003dca <__retarget_lock_acquire_recursive>:
 8003dca:	4770      	bx	lr

08003dcc <__retarget_lock_release_recursive>:
 8003dcc:	4770      	bx	lr

08003dce <quorem>:
 8003dce:	e92d 4ff7 	stmdb	sp!, {r0, r1, r2, r4, r5, r6, r7, r8, r9, sl, fp, lr}
 8003dd2:	6903      	ldr	r3, [r0, #16]
 8003dd4:	690c      	ldr	r4, [r1, #16]
 8003dd6:	42a3      	cmp	r3, r4
 8003dd8:	4607      	mov	r7, r0
 8003dda:	db7e      	blt.n	8003eda <quorem+0x10c>
 8003ddc:	3c01      	subs	r4, #1
 8003dde:	f101 0814 	add.w	r8, r1, #20
 8003de2:	f100 0514 	add.w	r5, r0, #20
 8003de6:	eb05 0384 	add.w	r3, r5, r4, lsl #2
 8003dea:	9301      	str	r3, [sp, #4]
 8003dec:	f858 3024 	ldr.w	r3, [r8, r4, lsl #2]
 8003df0:	f855 2024 	ldr.w	r2, [r5, r4, lsl #2]
 8003df4:	3301      	adds	r3, #1
 8003df6:	429a      	cmp	r2, r3
 8003df8:	ea4f 0b84 	mov.w	fp, r4, lsl #2
 8003dfc:	eb08 0984 	add.w	r9, r8, r4, lsl #2
 8003e00:	fbb2 f6f3 	udiv	r6, r2, r3
 8003e04:	d331      	bcc.n	8003e6a <quorem+0x9c>
 8003e06:	f04f 0e00 	mov.w	lr, #0
 8003e0a:	4640      	mov	r0, r8
 8003e0c:	46ac      	mov	ip, r5
 8003e0e:	46f2      	mov	sl, lr
 8003e10:	f850 2b04 	ldr.w	r2, [r0], #4
 8003e14:	b293      	uxth	r3, r2
 8003e16:	fb06 e303 	mla	r3, r6, r3, lr
 8003e1a:	ea4f 4e12 	mov.w	lr, r2, lsr #16
 8003e1e:	0c1a      	lsrs	r2, r3, #16
 8003e20:	b29b      	uxth	r3, r3
 8003e22:	ebaa 0303 	sub.w	r3, sl, r3
 8003e26:	f8dc a000 	ldr.w	sl, [ip]
 8003e2a:	fa13 f38a 	uxtah	r3, r3, sl
 8003e2e:	fb06 220e 	mla	r2, r6, lr, r2
 8003e32:	9300      	str	r3, [sp, #0]
 8003e34:	9b00      	ldr	r3, [sp, #0]
 8003e36:	ea4f 4e12 	mov.w	lr, r2, lsr #16
 8003e3a:	b292      	uxth	r2, r2
 8003e3c:	ebc2 421a 	rsb	r2, r2, sl, lsr #16
 8003e40:	eb02 4223 	add.w	r2, r2, r3, asr #16
 8003e44:	f8bd 3000 	ldrh.w	r3, [sp]
 8003e48:	4581      	cmp	r9, r0
 8003e4a:	ea43 4302 	orr.w	r3, r3, r2, lsl #16
 8003e4e:	f84c 3b04 	str.w	r3, [ip], #4
 8003e52:	ea4f 4a22 	mov.w	sl, r2, asr #16
 8003e56:	d2db      	bcs.n	8003e10 <quorem+0x42>
 8003e58:	f855 300b 	ldr.w	r3, [r5, fp]
 8003e5c:	b92b      	cbnz	r3, 8003e6a <quorem+0x9c>
 8003e5e:	9b01      	ldr	r3, [sp, #4]
 8003e60:	3b04      	subs	r3, #4
 8003e62:	429d      	cmp	r5, r3
 8003e64:	461a      	mov	r2, r3
 8003e66:	d32c      	bcc.n	8003ec2 <quorem+0xf4>
 8003e68:	613c      	str	r4, [r7, #16]
 8003e6a:	4638      	mov	r0, r7
 8003e6c:	f001 f9a6 	bl	80051bc <__mcmp>
 8003e70:	2800      	cmp	r0, #0
 8003e72:	db22      	blt.n	8003eba <quorem+0xec>
 8003e74:	3601      	adds	r6, #1
 8003e76:	4629      	mov	r1, r5
 8003e78:	2000      	movs	r0, #0
 8003e7a:	f858 2b04 	ldr.w	r2, [r8], #4
 8003e7e:	f8d1 c000 	ldr.w	ip, [r1]
 8003e82:	b293      	uxth	r3, r2
 8003e84:	1ac3      	subs	r3, r0, r3
 8003e86:	0c12      	lsrs	r2, r2, #16
 8003e88:	fa13 f38c 	uxtah	r3, r3, ip
 8003e8c:	ebc2 421c 	rsb	r2, r2, ip, lsr #16
 8003e90:	eb02 4223 	add.w	r2, r2, r3, asr #16
 8003e94:	b29b      	uxth	r3, r3
 8003e96:	ea43 4302 	orr.w	r3, r3, r2, lsl #16
 8003e9a:	45c1      	cmp	r9, r8
 8003e9c:	f841 3b04 	str.w	r3, [r1], #4
 8003ea0:	ea4f 4022 	mov.w	r0, r2, asr #16
 8003ea4:	d2e9      	bcs.n	8003e7a <quorem+0xac>
 8003ea6:	f855 2024 	ldr.w	r2, [r5, r4, lsl #2]
 8003eaa:	eb05 0384 	add.w	r3, r5, r4, lsl #2
 8003eae:	b922      	cbnz	r2, 8003eba <quorem+0xec>
 8003eb0:	3b04      	subs	r3, #4
 8003eb2:	429d      	cmp	r5, r3
 8003eb4:	461a      	mov	r2, r3
 8003eb6:	d30a      	bcc.n	8003ece <quorem+0x100>
 8003eb8:	613c      	str	r4, [r7, #16]
 8003eba:	4630      	mov	r0, r6
 8003ebc:	b003      	add	sp, #12
 8003ebe:	e8bd 8ff0 	ldmia.w	sp!, {r4, r5, r6, r7, r8, r9, sl, fp, pc}
 8003ec2:	6812      	ldr	r2, [r2, #0]
 8003ec4:	3b04      	subs	r3, #4
 8003ec6:	2a00      	cmp	r2, #0
 8003ec8:	d1ce      	bne.n	8003e68 <quorem+0x9a>
 8003eca:	3c01      	subs	r4, #1
 8003ecc:	e7c9      	b.n	8003e62 <quorem+0x94>
 8003ece:	6812      	ldr	r2, [r2, #0]
 8003ed0:	3b04      	subs	r3, #4
 8003ed2:	2a00      	cmp	r2, #0
 8003ed4:	d1f0      	bne.n	8003eb8 <quorem+0xea>
 8003ed6:	3c01      	subs	r4, #1
 8003ed8:	e7eb      	b.n	8003eb2 <quorem+0xe4>
 8003eda:	2000      	movs	r0, #0
 8003edc:	e7ee      	b.n	8003ebc <quorem+0xee>
	...

08003ee0 <_dtoa_r>:
 8003ee0:	e92d 4ff0 	stmdb	sp!, {r4, r5, r6, r7, r8, r9, sl, fp, lr}
 8003ee4:	ed2d 8b04 	vpush	{d8-d9}
 8003ee8:	69c5      	ldr	r5, [r0, #28]
 8003eea:	b093      	sub	sp, #76	; 0x4c
 8003eec:	ed8d 0b02 	vstr	d0, [sp, #8]
 8003ef0:	ec57 6b10 	vmov	r6, r7, d0
 8003ef4:	f8dd 8080 	ldr.w	r8, [sp, #128]	; 0x80
 8003ef8:	9107      	str	r1, [sp, #28]
 8003efa:	4604      	mov	r4, r0
 8003efc:	920a      	str	r2, [sp, #40]	; 0x28
 8003efe:	930d      	str	r3, [sp, #52]	; 0x34
 8003f00:	b975      	cbnz	r5, 8003f20 <_dtoa_r+0x40>
 8003f02:	2010      	movs	r0, #16
 8003f04:	f000 fe2a 	bl	8004b5c <malloc>
 8003f08:	4602      	mov	r2, r0
 8003f0a:	61e0      	str	r0, [r4, #28]
 8003f0c:	b920      	cbnz	r0, 8003f18 <_dtoa_r+0x38>
 8003f0e:	4bae      	ldr	r3, [pc, #696]	; (80041c8 <_dtoa_r+0x2e8>)
 8003f10:	21ef      	movs	r1, #239	; 0xef
 8003f12:	48ae      	ldr	r0, [pc, #696]	; (80041cc <_dtoa_r+0x2ec>)
 8003f14:	f001 fc90 	bl	8005838 <__assert_func>
 8003f18:	e9c0 5501 	strd	r5, r5, [r0, #4]
 8003f1c:	6005      	str	r5, [r0, #0]
 8003f1e:	60c5      	str	r5, [r0, #12]
 8003f20:	69e3      	ldr	r3, [r4, #28]
 8003f22:	6819      	ldr	r1, [r3, #0]
 8003f24:	b151      	cbz	r1, 8003f3c <_dtoa_r+0x5c>
 8003f26:	685a      	ldr	r2, [r3, #4]
 8003f28:	604a      	str	r2, [r1, #4]
 8003f2a:	2301      	movs	r3, #1
 8003f2c:	4093      	lsls	r3, r2
 8003f2e:	608b      	str	r3, [r1, #8]
 8003f30:	4620      	mov	r0, r4
 8003f32:	f000 ff07 	bl	8004d44 <_Bfree>
 8003f36:	69e3      	ldr	r3, [r4, #28]
 8003f38:	2200      	movs	r2, #0
 8003f3a:	601a      	str	r2, [r3, #0]
 8003f3c:	1e3b      	subs	r3, r7, #0
 8003f3e:	bfbb      	ittet	lt
 8003f40:	f023 4300 	biclt.w	r3, r3, #2147483648	; 0x80000000
 8003f44:	9303      	strlt	r3, [sp, #12]
 8003f46:	2300      	movge	r3, #0
 8003f48:	2201      	movlt	r2, #1
 8003f4a:	bfac      	ite	ge
 8003f4c:	f8c8 3000 	strge.w	r3, [r8]
 8003f50:	f8c8 2000 	strlt.w	r2, [r8]
 8003f54:	4b9e      	ldr	r3, [pc, #632]	; (80041d0 <_dtoa_r+0x2f0>)
 8003f56:	f8dd 800c 	ldr.w	r8, [sp, #12]
 8003f5a:	ea33 0308 	bics.w	r3, r3, r8
 8003f5e:	d11b      	bne.n	8003f98 <_dtoa_r+0xb8>
 8003f60:	9a0d      	ldr	r2, [sp, #52]	; 0x34
 8003f62:	f242 730f 	movw	r3, #9999	; 0x270f
 8003f66:	6013      	str	r3, [r2, #0]
 8003f68:	f3c8 0313 	ubfx	r3, r8, #0, #20
 8003f6c:	4333      	orrs	r3, r6
 8003f6e:	f000 8593 	beq.w	8004a98 <_dtoa_r+0xbb8>
 8003f72:	9b21      	ldr	r3, [sp, #132]	; 0x84
 8003f74:	b963      	cbnz	r3, 8003f90 <_dtoa_r+0xb0>
 8003f76:	4b97      	ldr	r3, [pc, #604]	; (80041d4 <_dtoa_r+0x2f4>)
 8003f78:	e027      	b.n	8003fca <_dtoa_r+0xea>
 8003f7a:	4b97      	ldr	r3, [pc, #604]	; (80041d8 <_dtoa_r+0x2f8>)
 8003f7c:	9300      	str	r3, [sp, #0]
 8003f7e:	3308      	adds	r3, #8
 8003f80:	9a21      	ldr	r2, [sp, #132]	; 0x84
 8003f82:	6013      	str	r3, [r2, #0]
 8003f84:	9800      	ldr	r0, [sp, #0]
 8003f86:	b013      	add	sp, #76	; 0x4c
 8003f88:	ecbd 8b04 	vpop	{d8-d9}
 8003f8c:	e8bd 8ff0 	ldmia.w	sp!, {r4, r5, r6, r7, r8, r9, sl, fp, pc}
 8003f90:	4b90      	ldr	r3, [pc, #576]	; (80041d4 <_dtoa_r+0x2f4>)
 8003f92:	9300      	str	r3, [sp, #0]
 8003f94:	3303      	adds	r3, #3
 8003f96:	e7f3      	b.n	8003f80 <_dtoa_r+0xa0>
 8003f98:	ed9d 7b02 	vldr	d7, [sp, #8]
 8003f9c:	2200      	movs	r2, #0
 8003f9e:	ec51 0b17 	vmov	r0, r1, d7
 8003fa2:	eeb0 8a47 	vmov.f32	s16, s14
 8003fa6:	eef0 8a67 	vmov.f32	s17, s15
 8003faa:	2300      	movs	r3, #0
 8003fac:	f7fc fd8c 	bl	8000ac8 <__aeabi_dcmpeq>
 8003fb0:	4681      	mov	r9, r0
 8003fb2:	b160      	cbz	r0, 8003fce <_dtoa_r+0xee>
 8003fb4:	9a0d      	ldr	r2, [sp, #52]	; 0x34
 8003fb6:	2301      	movs	r3, #1
 8003fb8:	6013      	str	r3, [r2, #0]
 8003fba:	9b21      	ldr	r3, [sp, #132]	; 0x84
 8003fbc:	2b00      	cmp	r3, #0
 8003fbe:	f000 8568 	beq.w	8004a92 <_dtoa_r+0xbb2>
 8003fc2:	4b86      	ldr	r3, [pc, #536]	; (80041dc <_dtoa_r+0x2fc>)
 8003fc4:	9a21      	ldr	r2, [sp, #132]	; 0x84
 8003fc6:	6013      	str	r3, [r2, #0]
 8003fc8:	3b01      	subs	r3, #1
 8003fca:	9300      	str	r3, [sp, #0]
 8003fcc:	e7da      	b.n	8003f84 <_dtoa_r+0xa4>
 8003fce:	aa10      	add	r2, sp, #64	; 0x40
 8003fd0:	a911      	add	r1, sp, #68	; 0x44
 8003fd2:	4620      	mov	r0, r4
 8003fd4:	eeb0 0a48 	vmov.f32	s0, s16
 8003fd8:	eef0 0a68 	vmov.f32	s1, s17
 8003fdc:	f001 f994 	bl	8005308 <__d2b>
 8003fe0:	f3c8 550a 	ubfx	r5, r8, #20, #11
 8003fe4:	4682      	mov	sl, r0
 8003fe6:	2d00      	cmp	r5, #0
 8003fe8:	d07f      	beq.n	80040ea <_dtoa_r+0x20a>
 8003fea:	ee18 3a90 	vmov	r3, s17
 8003fee:	f3c3 0313 	ubfx	r3, r3, #0, #20
 8003ff2:	f043 537f 	orr.w	r3, r3, #1069547520	; 0x3fc00000
 8003ff6:	ec51 0b18 	vmov	r0, r1, d8
 8003ffa:	f443 1340 	orr.w	r3, r3, #3145728	; 0x300000
 8003ffe:	f2a5 35ff 	subw	r5, r5, #1023	; 0x3ff
 8004002:	f8cd 9038 	str.w	r9, [sp, #56]	; 0x38
 8004006:	4619      	mov	r1, r3
 8004008:	2200      	movs	r2, #0
 800400a:	4b75      	ldr	r3, [pc, #468]	; (80041e0 <_dtoa_r+0x300>)
 800400c:	f7fc f93c 	bl	8000288 <__aeabi_dsub>
 8004010:	a367      	add	r3, pc, #412	; (adr r3, 80041b0 <_dtoa_r+0x2d0>)
 8004012:	e9d3 2300 	ldrd	r2, r3, [r3]
 8004016:	f7fc faef 	bl	80005f8 <__aeabi_dmul>
 800401a:	a367      	add	r3, pc, #412	; (adr r3, 80041b8 <_dtoa_r+0x2d8>)
 800401c:	e9d3 2300 	ldrd	r2, r3, [r3]
 8004020:	f7fc f934 	bl	800028c <__adddf3>
 8004024:	4606      	mov	r6, r0
 8004026:	4628      	mov	r0, r5
 8004028:	460f      	mov	r7, r1
 800402a:	f7fc fa7b 	bl	8000524 <__aeabi_i2d>
 800402e:	a364      	add	r3, pc, #400	; (adr r3, 80041c0 <_dtoa_r+0x2e0>)
 8004030:	e9d3 2300 	ldrd	r2, r3, [r3]
 8004034:	f7fc fae0 	bl	80005f8 <__aeabi_dmul>
 8004038:	4602      	mov	r2, r0
 800403a:	460b      	mov	r3, r1
 800403c:	4630      	mov	r0, r6
 800403e:	4639      	mov	r1, r7
 8004040:	f7fc f924 	bl	800028c <__adddf3>
 8004044:	4606      	mov	r6, r0
 8004046:	460f      	mov	r7, r1
 8004048:	f7fc fd86 	bl	8000b58 <__aeabi_d2iz>
 800404c:	2200      	movs	r2, #0
 800404e:	4683      	mov	fp, r0
 8004050:	2300      	movs	r3, #0
 8004052:	4630      	mov	r0, r6
 8004054:	4639      	mov	r1, r7
 8004056:	f7fc fd41 	bl	8000adc <__aeabi_dcmplt>
 800405a:	b148      	cbz	r0, 8004070 <_dtoa_r+0x190>
 800405c:	4658      	mov	r0, fp
 800405e:	f7fc fa61 	bl	8000524 <__aeabi_i2d>
 8004062:	4632      	mov	r2, r6
 8004064:	463b      	mov	r3, r7
 8004066:	f7fc fd2f 	bl	8000ac8 <__aeabi_dcmpeq>
 800406a:	b908      	cbnz	r0, 8004070 <_dtoa_r+0x190>
 800406c:	f10b 3bff 	add.w	fp, fp, #4294967295
 8004070:	f1bb 0f16 	cmp.w	fp, #22
 8004074:	d857      	bhi.n	8004126 <_dtoa_r+0x246>
 8004076:	4b5b      	ldr	r3, [pc, #364]	; (80041e4 <_dtoa_r+0x304>)
 8004078:	eb03 03cb 	add.w	r3, r3, fp, lsl #3
 800407c:	e9d3 2300 	ldrd	r2, r3, [r3]
 8004080:	ec51 0b18 	vmov	r0, r1, d8
 8004084:	f7fc fd2a 	bl	8000adc <__aeabi_dcmplt>
 8004088:	2800      	cmp	r0, #0
 800408a:	d04e      	beq.n	800412a <_dtoa_r+0x24a>
 800408c:	f10b 3bff 	add.w	fp, fp, #4294967295
 8004090:	2300      	movs	r3, #0
 8004092:	930c      	str	r3, [sp, #48]	; 0x30
 8004094:	9b10      	ldr	r3, [sp, #64]	; 0x40
 8004096:	1b5b      	subs	r3, r3, r5
 8004098:	1e5a      	subs	r2, r3, #1
 800409a:	bf45      	ittet	mi
 800409c:	f1c3 0301 	rsbmi	r3, r3, #1
 80040a0:	9305      	strmi	r3, [sp, #20]
 80040a2:	2300      	movpl	r3, #0
 80040a4:	2300      	movmi	r3, #0
 80040a6:	9206      	str	r2, [sp, #24]
 80040a8:	bf54      	ite	pl
 80040aa:	9305      	strpl	r3, [sp, #20]
 80040ac:	9306      	strmi	r3, [sp, #24]
 80040ae:	f1bb 0f00 	cmp.w	fp, #0
 80040b2:	db3c      	blt.n	800412e <_dtoa_r+0x24e>
 80040b4:	9b06      	ldr	r3, [sp, #24]
 80040b6:	f8cd b02c 	str.w	fp, [sp, #44]	; 0x2c
 80040ba:	445b      	add	r3, fp
 80040bc:	9306      	str	r3, [sp, #24]
 80040be:	2300      	movs	r3, #0
 80040c0:	9308      	str	r3, [sp, #32]
 80040c2:	9b07      	ldr	r3, [sp, #28]
 80040c4:	2b09      	cmp	r3, #9
 80040c6:	d868      	bhi.n	800419a <_dtoa_r+0x2ba>
 80040c8:	2b05      	cmp	r3, #5
 80040ca:	bfc4      	itt	gt
 80040cc:	3b04      	subgt	r3, #4
 80040ce:	9307      	strgt	r3, [sp, #28]
 80040d0:	9b07      	ldr	r3, [sp, #28]
 80040d2:	f1a3 0302 	sub.w	r3, r3, #2
 80040d6:	bfcc      	ite	gt
 80040d8:	2500      	movgt	r5, #0
 80040da:	2501      	movle	r5, #1
 80040dc:	2b03      	cmp	r3, #3
 80040de:	f200 8085 	bhi.w	80041ec <_dtoa_r+0x30c>
 80040e2:	e8df f003 	tbb	[pc, r3]
 80040e6:	3b2e      	.short	0x3b2e
 80040e8:	5839      	.short	0x5839
 80040ea:	e9dd 5310 	ldrd	r5, r3, [sp, #64]	; 0x40
 80040ee:	441d      	add	r5, r3
 80040f0:	f205 4332 	addw	r3, r5, #1074	; 0x432
 80040f4:	2b20      	cmp	r3, #32
 80040f6:	bfc1      	itttt	gt
 80040f8:	f1c3 0340 	rsbgt	r3, r3, #64	; 0x40
 80040fc:	fa08 f803 	lslgt.w	r8, r8, r3
 8004100:	f205 4312 	addwgt	r3, r5, #1042	; 0x412
 8004104:	fa26 f303 	lsrgt.w	r3, r6, r3
 8004108:	bfd6      	itet	le
 800410a:	f1c3 0320 	rsble	r3, r3, #32
 800410e:	ea48 0003 	orrgt.w	r0, r8, r3
 8004112:	fa06 f003 	lslle.w	r0, r6, r3
 8004116:	f7fc f9f5 	bl	8000504 <__aeabi_ui2d>
 800411a:	2201      	movs	r2, #1
 800411c:	f1a1 73f8 	sub.w	r3, r1, #32505856	; 0x1f00000
 8004120:	3d01      	subs	r5, #1
 8004122:	920e      	str	r2, [sp, #56]	; 0x38
 8004124:	e76f      	b.n	8004006 <_dtoa_r+0x126>
 8004126:	2301      	movs	r3, #1
 8004128:	e7b3      	b.n	8004092 <_dtoa_r+0x1b2>
 800412a:	900c      	str	r0, [sp, #48]	; 0x30
 800412c:	e7b2      	b.n	8004094 <_dtoa_r+0x1b4>
 800412e:	9b05      	ldr	r3, [sp, #20]
 8004130:	eba3 030b 	sub.w	r3, r3, fp
 8004134:	9305      	str	r3, [sp, #20]
 8004136:	f1cb 0300 	rsb	r3, fp, #0
 800413a:	9308      	str	r3, [sp, #32]
 800413c:	2300      	movs	r3, #0
 800413e:	930b      	str	r3, [sp, #44]	; 0x2c
 8004140:	e7bf      	b.n	80040c2 <_dtoa_r+0x1e2>
 8004142:	2300      	movs	r3, #0
 8004144:	9309      	str	r3, [sp, #36]	; 0x24
 8004146:	9b0a      	ldr	r3, [sp, #40]	; 0x28
 8004148:	2b00      	cmp	r3, #0
 800414a:	dc52      	bgt.n	80041f2 <_dtoa_r+0x312>
 800414c:	2301      	movs	r3, #1
 800414e:	9301      	str	r3, [sp, #4]
 8004150:	9304      	str	r3, [sp, #16]
 8004152:	461a      	mov	r2, r3
 8004154:	920a      	str	r2, [sp, #40]	; 0x28
 8004156:	e00b      	b.n	8004170 <_dtoa_r+0x290>
 8004158:	2301      	movs	r3, #1
 800415a:	e7f3      	b.n	8004144 <_dtoa_r+0x264>
 800415c:	2300      	movs	r3, #0
 800415e:	9309      	str	r3, [sp, #36]	; 0x24
 8004160:	9b0a      	ldr	r3, [sp, #40]	; 0x28
 8004162:	445b      	add	r3, fp
 8004164:	9301      	str	r3, [sp, #4]
 8004166:	3301      	adds	r3, #1
 8004168:	2b01      	cmp	r3, #1
 800416a:	9304      	str	r3, [sp, #16]
 800416c:	bfb8      	it	lt
 800416e:	2301      	movlt	r3, #1
 8004170:	69e0      	ldr	r0, [r4, #28]
 8004172:	2100      	movs	r1, #0
 8004174:	2204      	movs	r2, #4
 8004176:	f102 0614 	add.w	r6, r2, #20
 800417a:	429e      	cmp	r6, r3
 800417c:	d93d      	bls.n	80041fa <_dtoa_r+0x31a>
 800417e:	6041      	str	r1, [r0, #4]
 8004180:	4620      	mov	r0, r4
 8004182:	f000 fd9f 	bl	8004cc4 <_Balloc>
 8004186:	9000      	str	r0, [sp, #0]
 8004188:	2800      	cmp	r0, #0
 800418a:	d139      	bne.n	8004200 <_dtoa_r+0x320>
 800418c:	4b16      	ldr	r3, [pc, #88]	; (80041e8 <_dtoa_r+0x308>)
 800418e:	4602      	mov	r2, r0
 8004190:	f240 11af 	movw	r1, #431	; 0x1af
 8004194:	e6bd      	b.n	8003f12 <_dtoa_r+0x32>
 8004196:	2301      	movs	r3, #1
 8004198:	e7e1      	b.n	800415e <_dtoa_r+0x27e>
 800419a:	2501      	movs	r5, #1
 800419c:	2300      	movs	r3, #0
 800419e:	9307      	str	r3, [sp, #28]
 80041a0:	9509      	str	r5, [sp, #36]	; 0x24
 80041a2:	f04f 33ff 	mov.w	r3, #4294967295
 80041a6:	9301      	str	r3, [sp, #4]
 80041a8:	9304      	str	r3, [sp, #16]
 80041aa:	2200      	movs	r2, #0
 80041ac:	2312      	movs	r3, #18
 80041ae:	e7d1      	b.n	8004154 <_dtoa_r+0x274>
 80041b0:	636f4361 	.word	0x636f4361
 80041b4:	3fd287a7 	.word	0x3fd287a7
 80041b8:	8b60c8b3 	.word	0x8b60c8b3
 80041bc:	3fc68a28 	.word	0x3fc68a28
 80041c0:	509f79fb 	.word	0x509f79fb
 80041c4:	3fd34413 	.word	0x3fd34413
 80041c8:	08006738 	.word	0x08006738
 80041cc:	0800674f 	.word	0x0800674f
 80041d0:	7ff00000 	.word	0x7ff00000
 80041d4:	08006734 	.word	0x08006734
 80041d8:	0800672b 	.word	0x0800672b
 80041dc:	08006708 	.word	0x08006708
 80041e0:	3ff80000 	.word	0x3ff80000
 80041e4:	08006840 	.word	0x08006840
 80041e8:	080067a7 	.word	0x080067a7
 80041ec:	2301      	movs	r3, #1
 80041ee:	9309      	str	r3, [sp, #36]	; 0x24
 80041f0:	e7d7      	b.n	80041a2 <_dtoa_r+0x2c2>
 80041f2:	9b0a      	ldr	r3, [sp, #40]	; 0x28
 80041f4:	9301      	str	r3, [sp, #4]
 80041f6:	9304      	str	r3, [sp, #16]
 80041f8:	e7ba      	b.n	8004170 <_dtoa_r+0x290>
 80041fa:	3101      	adds	r1, #1
 80041fc:	0052      	lsls	r2, r2, #1
 80041fe:	e7ba      	b.n	8004176 <_dtoa_r+0x296>
 8004200:	69e3      	ldr	r3, [r4, #28]
 8004202:	9a00      	ldr	r2, [sp, #0]
 8004204:	601a      	str	r2, [r3, #0]
 8004206:	9b04      	ldr	r3, [sp, #16]
 8004208:	2b0e      	cmp	r3, #14
 800420a:	f200 80a8 	bhi.w	800435e <_dtoa_r+0x47e>
 800420e:	2d00      	cmp	r5, #0
 8004210:	f000 80a5 	beq.w	800435e <_dtoa_r+0x47e>
 8004214:	f1bb 0f00 	cmp.w	fp, #0
 8004218:	dd38      	ble.n	800428c <_dtoa_r+0x3ac>
 800421a:	4bc0      	ldr	r3, [pc, #768]	; (800451c <_dtoa_r+0x63c>)
 800421c:	f00b 020f 	and.w	r2, fp, #15
 8004220:	eb03 03c2 	add.w	r3, r3, r2, lsl #3
 8004224:	f41b 7f80 	tst.w	fp, #256	; 0x100
 8004228:	e9d3 6700 	ldrd	r6, r7, [r3]
 800422c:	ea4f 182b 	mov.w	r8, fp, asr #4
 8004230:	d019      	beq.n	8004266 <_dtoa_r+0x386>
 8004232:	4bbb      	ldr	r3, [pc, #748]	; (8004520 <_dtoa_r+0x640>)
 8004234:	ec51 0b18 	vmov	r0, r1, d8
 8004238:	e9d3 2308 	ldrd	r2, r3, [r3, #32]
 800423c:	f7fc fb06 	bl	800084c <__aeabi_ddiv>
 8004240:	e9cd 0102 	strd	r0, r1, [sp, #8]
 8004244:	f008 080f 	and.w	r8, r8, #15
 8004248:	2503      	movs	r5, #3
 800424a:	f8df 92d4 	ldr.w	r9, [pc, #724]	; 8004520 <_dtoa_r+0x640>
 800424e:	f1b8 0f00 	cmp.w	r8, #0
 8004252:	d10a      	bne.n	800426a <_dtoa_r+0x38a>
 8004254:	e9dd 0102 	ldrd	r0, r1, [sp, #8]
 8004258:	4632      	mov	r2, r6
 800425a:	463b      	mov	r3, r7
 800425c:	f7fc faf6 	bl	800084c <__aeabi_ddiv>
 8004260:	e9cd 0102 	strd	r0, r1, [sp, #8]
 8004264:	e02b      	b.n	80042be <_dtoa_r+0x3de>
 8004266:	2502      	movs	r5, #2
 8004268:	e7ef      	b.n	800424a <_dtoa_r+0x36a>
 800426a:	f018 0f01 	tst.w	r8, #1
 800426e:	d008      	beq.n	8004282 <_dtoa_r+0x3a2>
 8004270:	4630      	mov	r0, r6
 8004272:	4639      	mov	r1, r7
 8004274:	e9d9 2300 	ldrd	r2, r3, [r9]
 8004278:	f7fc f9be 	bl	80005f8 <__aeabi_dmul>
 800427c:	3501      	adds	r5, #1
 800427e:	4606      	mov	r6, r0
 8004280:	460f      	mov	r7, r1
 8004282:	ea4f 0868 	mov.w	r8, r8, asr #1
 8004286:	f109 0908 	add.w	r9, r9, #8
 800428a:	e7e0      	b.n	800424e <_dtoa_r+0x36e>
 800428c:	f000 809f 	beq.w	80043ce <_dtoa_r+0x4ee>
 8004290:	f1cb 0600 	rsb	r6, fp, #0
 8004294:	4ba1      	ldr	r3, [pc, #644]	; (800451c <_dtoa_r+0x63c>)
 8004296:	4fa2      	ldr	r7, [pc, #648]	; (8004520 <_dtoa_r+0x640>)
 8004298:	f006 020f 	and.w	r2, r6, #15
 800429c:	eb03 03c2 	add.w	r3, r3, r2, lsl #3
 80042a0:	e9d3 2300 	ldrd	r2, r3, [r3]
 80042a4:	ec51 0b18 	vmov	r0, r1, d8
 80042a8:	f7fc f9a6 	bl	80005f8 <__aeabi_dmul>
 80042ac:	e9cd 0102 	strd	r0, r1, [sp, #8]
 80042b0:	1136      	asrs	r6, r6, #4
 80042b2:	2300      	movs	r3, #0
 80042b4:	2502      	movs	r5, #2
 80042b6:	2e00      	cmp	r6, #0
 80042b8:	d17e      	bne.n	80043b8 <_dtoa_r+0x4d8>
 80042ba:	2b00      	cmp	r3, #0
 80042bc:	d1d0      	bne.n	8004260 <_dtoa_r+0x380>
 80042be:	9b0c      	ldr	r3, [sp, #48]	; 0x30
 80042c0:	e9dd 8902 	ldrd	r8, r9, [sp, #8]
 80042c4:	2b00      	cmp	r3, #0
 80042c6:	f000 8084 	beq.w	80043d2 <_dtoa_r+0x4f2>
 80042ca:	4b96      	ldr	r3, [pc, #600]	; (8004524 <_dtoa_r+0x644>)
 80042cc:	2200      	movs	r2, #0
 80042ce:	4640      	mov	r0, r8
 80042d0:	4649      	mov	r1, r9
 80042d2:	f7fc fc03 	bl	8000adc <__aeabi_dcmplt>
 80042d6:	2800      	cmp	r0, #0
 80042d8:	d07b      	beq.n	80043d2 <_dtoa_r+0x4f2>
 80042da:	9b04      	ldr	r3, [sp, #16]
 80042dc:	2b00      	cmp	r3, #0
 80042de:	d078      	beq.n	80043d2 <_dtoa_r+0x4f2>
 80042e0:	9b01      	ldr	r3, [sp, #4]
 80042e2:	2b00      	cmp	r3, #0
 80042e4:	dd39      	ble.n	800435a <_dtoa_r+0x47a>
 80042e6:	4b90      	ldr	r3, [pc, #576]	; (8004528 <_dtoa_r+0x648>)
 80042e8:	2200      	movs	r2, #0
 80042ea:	4640      	mov	r0, r8
 80042ec:	4649      	mov	r1, r9
 80042ee:	f7fc f983 	bl	80005f8 <__aeabi_dmul>
 80042f2:	e9cd 0102 	strd	r0, r1, [sp, #8]
 80042f6:	9e01      	ldr	r6, [sp, #4]
 80042f8:	f10b 37ff 	add.w	r7, fp, #4294967295
 80042fc:	3501      	adds	r5, #1
 80042fe:	e9dd 8902 	ldrd	r8, r9, [sp, #8]
 8004302:	4628      	mov	r0, r5
 8004304:	f7fc f90e 	bl	8000524 <__aeabi_i2d>
 8004308:	4642      	mov	r2, r8
 800430a:	464b      	mov	r3, r9
 800430c:	f7fc f974 	bl	80005f8 <__aeabi_dmul>
 8004310:	4b86      	ldr	r3, [pc, #536]	; (800452c <_dtoa_r+0x64c>)
 8004312:	2200      	movs	r2, #0
 8004314:	f7fb ffba 	bl	800028c <__adddf3>
 8004318:	f1a1 7350 	sub.w	r3, r1, #54525952	; 0x3400000
 800431c:	e9cd 0102 	strd	r0, r1, [sp, #8]
 8004320:	9303      	str	r3, [sp, #12]
 8004322:	2e00      	cmp	r6, #0
 8004324:	d158      	bne.n	80043d8 <_dtoa_r+0x4f8>
 8004326:	4b82      	ldr	r3, [pc, #520]	; (8004530 <_dtoa_r+0x650>)
 8004328:	2200      	movs	r2, #0
 800432a:	4640      	mov	r0, r8
 800432c:	4649      	mov	r1, r9
 800432e:	f7fb ffab 	bl	8000288 <__aeabi_dsub>
 8004332:	e9dd 2302 	ldrd	r2, r3, [sp, #8]
 8004336:	4680      	mov	r8, r0
 8004338:	4689      	mov	r9, r1
 800433a:	f7fc fbed 	bl	8000b18 <__aeabi_dcmpgt>
 800433e:	2800      	cmp	r0, #0
 8004340:	f040 8296 	bne.w	8004870 <_dtoa_r+0x990>
 8004344:	e9dd 2102 	ldrd	r2, r1, [sp, #8]
 8004348:	4640      	mov	r0, r8
 800434a:	f101 4300 	add.w	r3, r1, #2147483648	; 0x80000000
 800434e:	4649      	mov	r1, r9
 8004350:	f7fc fbc4 	bl	8000adc <__aeabi_dcmplt>
 8004354:	2800      	cmp	r0, #0
 8004356:	f040 8289 	bne.w	800486c <_dtoa_r+0x98c>
 800435a:	ed8d 8b02 	vstr	d8, [sp, #8]
 800435e:	9b11      	ldr	r3, [sp, #68]	; 0x44
 8004360:	2b00      	cmp	r3, #0
 8004362:	f2c0 814e 	blt.w	8004602 <_dtoa_r+0x722>
 8004366:	f1bb 0f0e 	cmp.w	fp, #14
 800436a:	f300 814a 	bgt.w	8004602 <_dtoa_r+0x722>
 800436e:	4b6b      	ldr	r3, [pc, #428]	; (800451c <_dtoa_r+0x63c>)
 8004370:	eb03 03cb 	add.w	r3, r3, fp, lsl #3
 8004374:	e9d3 8900 	ldrd	r8, r9, [r3]
 8004378:	9b0a      	ldr	r3, [sp, #40]	; 0x28
 800437a:	2b00      	cmp	r3, #0
 800437c:	f280 80dc 	bge.w	8004538 <_dtoa_r+0x658>
 8004380:	9b04      	ldr	r3, [sp, #16]
 8004382:	2b00      	cmp	r3, #0
 8004384:	f300 80d8 	bgt.w	8004538 <_dtoa_r+0x658>
 8004388:	f040 826f 	bne.w	800486a <_dtoa_r+0x98a>
 800438c:	4b68      	ldr	r3, [pc, #416]	; (8004530 <_dtoa_r+0x650>)
 800438e:	2200      	movs	r2, #0
 8004390:	4640      	mov	r0, r8
 8004392:	4649      	mov	r1, r9
 8004394:	f7fc f930 	bl	80005f8 <__aeabi_dmul>
 8004398:	e9dd 2302 	ldrd	r2, r3, [sp, #8]
 800439c:	f7fc fbb2 	bl	8000b04 <__aeabi_dcmpge>
 80043a0:	9e04      	ldr	r6, [sp, #16]
 80043a2:	4637      	mov	r7, r6
 80043a4:	2800      	cmp	r0, #0
 80043a6:	f040 8245 	bne.w	8004834 <_dtoa_r+0x954>
 80043aa:	9d00      	ldr	r5, [sp, #0]
 80043ac:	2331      	movs	r3, #49	; 0x31
 80043ae:	f805 3b01 	strb.w	r3, [r5], #1
 80043b2:	f10b 0b01 	add.w	fp, fp, #1
 80043b6:	e241      	b.n	800483c <_dtoa_r+0x95c>
 80043b8:	07f2      	lsls	r2, r6, #31
 80043ba:	d505      	bpl.n	80043c8 <_dtoa_r+0x4e8>
 80043bc:	e9d7 2300 	ldrd	r2, r3, [r7]
 80043c0:	f7fc f91a 	bl	80005f8 <__aeabi_dmul>
 80043c4:	3501      	adds	r5, #1
 80043c6:	2301      	movs	r3, #1
 80043c8:	1076      	asrs	r6, r6, #1
 80043ca:	3708      	adds	r7, #8
 80043cc:	e773      	b.n	80042b6 <_dtoa_r+0x3d6>
 80043ce:	2502      	movs	r5, #2
 80043d0:	e775      	b.n	80042be <_dtoa_r+0x3de>
 80043d2:	9e04      	ldr	r6, [sp, #16]
 80043d4:	465f      	mov	r7, fp
 80043d6:	e792      	b.n	80042fe <_dtoa_r+0x41e>
 80043d8:	9900      	ldr	r1, [sp, #0]
 80043da:	4b50      	ldr	r3, [pc, #320]	; (800451c <_dtoa_r+0x63c>)
 80043dc:	ed9d 7b02 	vldr	d7, [sp, #8]
 80043e0:	4431      	add	r1, r6
 80043e2:	9102      	str	r1, [sp, #8]
 80043e4:	9909      	ldr	r1, [sp, #36]	; 0x24
 80043e6:	eeb0 9a47 	vmov.f32	s18, s14
 80043ea:	eef0 9a67 	vmov.f32	s19, s15
 80043ee:	eb03 03c6 	add.w	r3, r3, r6, lsl #3
 80043f2:	e953 2302 	ldrd	r2, r3, [r3, #-8]
 80043f6:	2900      	cmp	r1, #0
 80043f8:	d044      	beq.n	8004484 <_dtoa_r+0x5a4>
 80043fa:	494e      	ldr	r1, [pc, #312]	; (8004534 <_dtoa_r+0x654>)
 80043fc:	2000      	movs	r0, #0
 80043fe:	f7fc fa25 	bl	800084c <__aeabi_ddiv>
 8004402:	ec53 2b19 	vmov	r2, r3, d9
 8004406:	f7fb ff3f 	bl	8000288 <__aeabi_dsub>
 800440a:	9d00      	ldr	r5, [sp, #0]
 800440c:	ec41 0b19 	vmov	d9, r0, r1
 8004410:	4649      	mov	r1, r9
 8004412:	4640      	mov	r0, r8
 8004414:	f7fc fba0 	bl	8000b58 <__aeabi_d2iz>
 8004418:	4606      	mov	r6, r0
 800441a:	f7fc f883 	bl	8000524 <__aeabi_i2d>
 800441e:	4602      	mov	r2, r0
 8004420:	460b      	mov	r3, r1
 8004422:	4640      	mov	r0, r8
 8004424:	4649      	mov	r1, r9
 8004426:	f7fb ff2f 	bl	8000288 <__aeabi_dsub>
 800442a:	3630      	adds	r6, #48	; 0x30
 800442c:	f805 6b01 	strb.w	r6, [r5], #1
 8004430:	ec53 2b19 	vmov	r2, r3, d9
 8004434:	4680      	mov	r8, r0
 8004436:	4689      	mov	r9, r1
 8004438:	f7fc fb50 	bl	8000adc <__aeabi_dcmplt>
 800443c:	2800      	cmp	r0, #0
 800443e:	d164      	bne.n	800450a <_dtoa_r+0x62a>
 8004440:	4642      	mov	r2, r8
 8004442:	464b      	mov	r3, r9
 8004444:	4937      	ldr	r1, [pc, #220]	; (8004524 <_dtoa_r+0x644>)
 8004446:	2000      	movs	r0, #0
 8004448:	f7fb ff1e 	bl	8000288 <__aeabi_dsub>
 800444c:	ec53 2b19 	vmov	r2, r3, d9
 8004450:	f7fc fb44 	bl	8000adc <__aeabi_dcmplt>
 8004454:	2800      	cmp	r0, #0
 8004456:	f040 80b6 	bne.w	80045c6 <_dtoa_r+0x6e6>
 800445a:	9b02      	ldr	r3, [sp, #8]
 800445c:	429d      	cmp	r5, r3
 800445e:	f43f af7c 	beq.w	800435a <_dtoa_r+0x47a>
 8004462:	4b31      	ldr	r3, [pc, #196]	; (8004528 <_dtoa_r+0x648>)
 8004464:	ec51 0b19 	vmov	r0, r1, d9
 8004468:	2200      	movs	r2, #0
 800446a:	f7fc f8c5 	bl	80005f8 <__aeabi_dmul>
 800446e:	4b2e      	ldr	r3, [pc, #184]	; (8004528 <_dtoa_r+0x648>)
 8004470:	ec41 0b19 	vmov	d9, r0, r1
 8004474:	2200      	movs	r2, #0
 8004476:	4640      	mov	r0, r8
 8004478:	4649      	mov	r1, r9
 800447a:	f7fc f8bd 	bl	80005f8 <__aeabi_dmul>
 800447e:	4680      	mov	r8, r0
 8004480:	4689      	mov	r9, r1
 8004482:	e7c5      	b.n	8004410 <_dtoa_r+0x530>
 8004484:	ec51 0b17 	vmov	r0, r1, d7
 8004488:	f7fc f8b6 	bl	80005f8 <__aeabi_dmul>
 800448c:	9b02      	ldr	r3, [sp, #8]
 800448e:	9d00      	ldr	r5, [sp, #0]
 8004490:	930f      	str	r3, [sp, #60]	; 0x3c
 8004492:	ec41 0b19 	vmov	d9, r0, r1
 8004496:	4649      	mov	r1, r9
 8004498:	4640      	mov	r0, r8
 800449a:	f7fc fb5d 	bl	8000b58 <__aeabi_d2iz>
 800449e:	4606      	mov	r6, r0
 80044a0:	f7fc f840 	bl	8000524 <__aeabi_i2d>
 80044a4:	3630      	adds	r6, #48	; 0x30
 80044a6:	4602      	mov	r2, r0
 80044a8:	460b      	mov	r3, r1
 80044aa:	4640      	mov	r0, r8
 80044ac:	4649      	mov	r1, r9
 80044ae:	f7fb feeb 	bl	8000288 <__aeabi_dsub>
 80044b2:	f805 6b01 	strb.w	r6, [r5], #1
 80044b6:	9b02      	ldr	r3, [sp, #8]
 80044b8:	429d      	cmp	r5, r3
 80044ba:	4680      	mov	r8, r0
 80044bc:	4689      	mov	r9, r1
 80044be:	f04f 0200 	mov.w	r2, #0
 80044c2:	d124      	bne.n	800450e <_dtoa_r+0x62e>
 80044c4:	4b1b      	ldr	r3, [pc, #108]	; (8004534 <_dtoa_r+0x654>)
 80044c6:	ec51 0b19 	vmov	r0, r1, d9
 80044ca:	f7fb fedf 	bl	800028c <__adddf3>
 80044ce:	4602      	mov	r2, r0
 80044d0:	460b      	mov	r3, r1
 80044d2:	4640      	mov	r0, r8
 80044d4:	4649      	mov	r1, r9
 80044d6:	f7fc fb1f 	bl	8000b18 <__aeabi_dcmpgt>
 80044da:	2800      	cmp	r0, #0
 80044dc:	d173      	bne.n	80045c6 <_dtoa_r+0x6e6>
 80044de:	ec53 2b19 	vmov	r2, r3, d9
 80044e2:	4914      	ldr	r1, [pc, #80]	; (8004534 <_dtoa_r+0x654>)
 80044e4:	2000      	movs	r0, #0
 80044e6:	f7fb fecf 	bl	8000288 <__aeabi_dsub>
 80044ea:	4602      	mov	r2, r0
 80044ec:	460b      	mov	r3, r1
 80044ee:	4640      	mov	r0, r8
 80044f0:	4649      	mov	r1, r9
 80044f2:	f7fc faf3 	bl	8000adc <__aeabi_dcmplt>
 80044f6:	2800      	cmp	r0, #0
 80044f8:	f43f af2f 	beq.w	800435a <_dtoa_r+0x47a>
 80044fc:	9d0f      	ldr	r5, [sp, #60]	; 0x3c
 80044fe:	1e6b      	subs	r3, r5, #1
 8004500:	930f      	str	r3, [sp, #60]	; 0x3c
 8004502:	f815 3c01 	ldrb.w	r3, [r5, #-1]
 8004506:	2b30      	cmp	r3, #48	; 0x30
 8004508:	d0f8      	beq.n	80044fc <_dtoa_r+0x61c>
 800450a:	46bb      	mov	fp, r7
 800450c:	e04a      	b.n	80045a4 <_dtoa_r+0x6c4>
 800450e:	4b06      	ldr	r3, [pc, #24]	; (8004528 <_dtoa_r+0x648>)
 8004510:	f7fc f872 	bl	80005f8 <__aeabi_dmul>
 8004514:	4680      	mov	r8, r0
 8004516:	4689      	mov	r9, r1
 8004518:	e7bd      	b.n	8004496 <_dtoa_r+0x5b6>
 800451a:	bf00      	nop
 800451c:	08006840 	.word	0x08006840
 8004520:	08006818 	.word	0x08006818
 8004524:	3ff00000 	.word	0x3ff00000
 8004528:	40240000 	.word	0x40240000
 800452c:	401c0000 	.word	0x401c0000
 8004530:	40140000 	.word	0x40140000
 8004534:	3fe00000 	.word	0x3fe00000
 8004538:	e9dd 6702 	ldrd	r6, r7, [sp, #8]
 800453c:	9d00      	ldr	r5, [sp, #0]
 800453e:	4642      	mov	r2, r8
 8004540:	464b      	mov	r3, r9
 8004542:	4630      	mov	r0, r6
 8004544:	4639      	mov	r1, r7
 8004546:	f7fc f981 	bl	800084c <__aeabi_ddiv>
 800454a:	f7fc fb05 	bl	8000b58 <__aeabi_d2iz>
 800454e:	9001      	str	r0, [sp, #4]
 8004550:	f7fb ffe8 	bl	8000524 <__aeabi_i2d>
 8004554:	4642      	mov	r2, r8
 8004556:	464b      	mov	r3, r9
 8004558:	f7fc f84e 	bl	80005f8 <__aeabi_dmul>
 800455c:	4602      	mov	r2, r0
 800455e:	460b      	mov	r3, r1
 8004560:	4630      	mov	r0, r6
 8004562:	4639      	mov	r1, r7
 8004564:	f7fb fe90 	bl	8000288 <__aeabi_dsub>
 8004568:	9e01      	ldr	r6, [sp, #4]
 800456a:	9f04      	ldr	r7, [sp, #16]
 800456c:	3630      	adds	r6, #48	; 0x30
 800456e:	f805 6b01 	strb.w	r6, [r5], #1
 8004572:	9e00      	ldr	r6, [sp, #0]
 8004574:	1bae      	subs	r6, r5, r6
 8004576:	42b7      	cmp	r7, r6
 8004578:	4602      	mov	r2, r0
 800457a:	460b      	mov	r3, r1
 800457c:	d134      	bne.n	80045e8 <_dtoa_r+0x708>
 800457e:	f7fb fe85 	bl	800028c <__adddf3>
 8004582:	4642      	mov	r2, r8
 8004584:	464b      	mov	r3, r9
 8004586:	4606      	mov	r6, r0
 8004588:	460f      	mov	r7, r1
 800458a:	f7fc fac5 	bl	8000b18 <__aeabi_dcmpgt>
 800458e:	b9c8      	cbnz	r0, 80045c4 <_dtoa_r+0x6e4>
 8004590:	4642      	mov	r2, r8
 8004592:	464b      	mov	r3, r9
 8004594:	4630      	mov	r0, r6
 8004596:	4639      	mov	r1, r7
 8004598:	f7fc fa96 	bl	8000ac8 <__aeabi_dcmpeq>
 800459c:	b110      	cbz	r0, 80045a4 <_dtoa_r+0x6c4>
 800459e:	9b01      	ldr	r3, [sp, #4]
 80045a0:	07db      	lsls	r3, r3, #31
 80045a2:	d40f      	bmi.n	80045c4 <_dtoa_r+0x6e4>
 80045a4:	4651      	mov	r1, sl
 80045a6:	4620      	mov	r0, r4
 80045a8:	f000 fbcc 	bl	8004d44 <_Bfree>
 80045ac:	2300      	movs	r3, #0
 80045ae:	9a0d      	ldr	r2, [sp, #52]	; 0x34
 80045b0:	702b      	strb	r3, [r5, #0]
 80045b2:	f10b 0301 	add.w	r3, fp, #1
 80045b6:	6013      	str	r3, [r2, #0]
 80045b8:	9b21      	ldr	r3, [sp, #132]	; 0x84
 80045ba:	2b00      	cmp	r3, #0
 80045bc:	f43f ace2 	beq.w	8003f84 <_dtoa_r+0xa4>
 80045c0:	601d      	str	r5, [r3, #0]
 80045c2:	e4df      	b.n	8003f84 <_dtoa_r+0xa4>
 80045c4:	465f      	mov	r7, fp
 80045c6:	462b      	mov	r3, r5
 80045c8:	461d      	mov	r5, r3
 80045ca:	f813 2d01 	ldrb.w	r2, [r3, #-1]!
 80045ce:	2a39      	cmp	r2, #57	; 0x39
 80045d0:	d106      	bne.n	80045e0 <_dtoa_r+0x700>
 80045d2:	9a00      	ldr	r2, [sp, #0]
 80045d4:	429a      	cmp	r2, r3
 80045d6:	d1f7      	bne.n	80045c8 <_dtoa_r+0x6e8>
 80045d8:	9900      	ldr	r1, [sp, #0]
 80045da:	2230      	movs	r2, #48	; 0x30
 80045dc:	3701      	adds	r7, #1
 80045de:	700a      	strb	r2, [r1, #0]
 80045e0:	781a      	ldrb	r2, [r3, #0]
 80045e2:	3201      	adds	r2, #1
 80045e4:	701a      	strb	r2, [r3, #0]
 80045e6:	e790      	b.n	800450a <_dtoa_r+0x62a>
 80045e8:	4ba3      	ldr	r3, [pc, #652]	; (8004878 <_dtoa_r+0x998>)
 80045ea:	2200      	movs	r2, #0
 80045ec:	f7fc f804 	bl	80005f8 <__aeabi_dmul>
 80045f0:	2200      	movs	r2, #0
 80045f2:	2300      	movs	r3, #0
 80045f4:	4606      	mov	r6, r0
 80045f6:	460f      	mov	r7, r1
 80045f8:	f7fc fa66 	bl	8000ac8 <__aeabi_dcmpeq>
 80045fc:	2800      	cmp	r0, #0
 80045fe:	d09e      	beq.n	800453e <_dtoa_r+0x65e>
 8004600:	e7d0      	b.n	80045a4 <_dtoa_r+0x6c4>
 8004602:	9a09      	ldr	r2, [sp, #36]	; 0x24
 8004604:	2a00      	cmp	r2, #0
 8004606:	f000 80ca 	beq.w	800479e <_dtoa_r+0x8be>
 800460a:	9a07      	ldr	r2, [sp, #28]
 800460c:	2a01      	cmp	r2, #1
 800460e:	f300 80ad 	bgt.w	800476c <_dtoa_r+0x88c>
 8004612:	9a0e      	ldr	r2, [sp, #56]	; 0x38
 8004614:	2a00      	cmp	r2, #0
 8004616:	f000 80a5 	beq.w	8004764 <_dtoa_r+0x884>
 800461a:	f203 4333 	addw	r3, r3, #1075	; 0x433
 800461e:	9e08      	ldr	r6, [sp, #32]
 8004620:	9d05      	ldr	r5, [sp, #20]
 8004622:	9a05      	ldr	r2, [sp, #20]
 8004624:	441a      	add	r2, r3
 8004626:	9205      	str	r2, [sp, #20]
 8004628:	9a06      	ldr	r2, [sp, #24]
 800462a:	2101      	movs	r1, #1
 800462c:	441a      	add	r2, r3
 800462e:	4620      	mov	r0, r4
 8004630:	9206      	str	r2, [sp, #24]
 8004632:	f000 fc3d 	bl	8004eb0 <__i2b>
 8004636:	4607      	mov	r7, r0
 8004638:	b165      	cbz	r5, 8004654 <_dtoa_r+0x774>
 800463a:	9b06      	ldr	r3, [sp, #24]
 800463c:	2b00      	cmp	r3, #0
 800463e:	dd09      	ble.n	8004654 <_dtoa_r+0x774>
 8004640:	42ab      	cmp	r3, r5
 8004642:	9a05      	ldr	r2, [sp, #20]
 8004644:	bfa8      	it	ge
 8004646:	462b      	movge	r3, r5
 8004648:	1ad2      	subs	r2, r2, r3
 800464a:	9205      	str	r2, [sp, #20]
 800464c:	9a06      	ldr	r2, [sp, #24]
 800464e:	1aed      	subs	r5, r5, r3
 8004650:	1ad3      	subs	r3, r2, r3
 8004652:	9306      	str	r3, [sp, #24]
 8004654:	9b08      	ldr	r3, [sp, #32]
 8004656:	b1f3      	cbz	r3, 8004696 <_dtoa_r+0x7b6>
 8004658:	9b09      	ldr	r3, [sp, #36]	; 0x24
 800465a:	2b00      	cmp	r3, #0
 800465c:	f000 80a3 	beq.w	80047a6 <_dtoa_r+0x8c6>
 8004660:	2e00      	cmp	r6, #0
 8004662:	dd10      	ble.n	8004686 <_dtoa_r+0x7a6>
 8004664:	4639      	mov	r1, r7
 8004666:	4632      	mov	r2, r6
 8004668:	4620      	mov	r0, r4
 800466a:	f000 fce1 	bl	8005030 <__pow5mult>
 800466e:	4652      	mov	r2, sl
 8004670:	4601      	mov	r1, r0
 8004672:	4607      	mov	r7, r0
 8004674:	4620      	mov	r0, r4
 8004676:	f000 fc31 	bl	8004edc <__multiply>
 800467a:	4651      	mov	r1, sl
 800467c:	4680      	mov	r8, r0
 800467e:	4620      	mov	r0, r4
 8004680:	f000 fb60 	bl	8004d44 <_Bfree>
 8004684:	46c2      	mov	sl, r8
 8004686:	9b08      	ldr	r3, [sp, #32]
 8004688:	1b9a      	subs	r2, r3, r6
 800468a:	d004      	beq.n	8004696 <_dtoa_r+0x7b6>
 800468c:	4651      	mov	r1, sl
 800468e:	4620      	mov	r0, r4
 8004690:	f000 fcce 	bl	8005030 <__pow5mult>
 8004694:	4682      	mov	sl, r0
 8004696:	2101      	movs	r1, #1
 8004698:	4620      	mov	r0, r4
 800469a:	f000 fc09 	bl	8004eb0 <__i2b>
 800469e:	9b0b      	ldr	r3, [sp, #44]	; 0x2c
 80046a0:	2b00      	cmp	r3, #0
 80046a2:	4606      	mov	r6, r0
 80046a4:	f340 8081 	ble.w	80047aa <_dtoa_r+0x8ca>
 80046a8:	461a      	mov	r2, r3
 80046aa:	4601      	mov	r1, r0
 80046ac:	4620      	mov	r0, r4
 80046ae:	f000 fcbf 	bl	8005030 <__pow5mult>
 80046b2:	9b07      	ldr	r3, [sp, #28]
 80046b4:	2b01      	cmp	r3, #1
 80046b6:	4606      	mov	r6, r0
 80046b8:	dd7a      	ble.n	80047b0 <_dtoa_r+0x8d0>
 80046ba:	f04f 0800 	mov.w	r8, #0
 80046be:	6933      	ldr	r3, [r6, #16]
 80046c0:	eb06 0383 	add.w	r3, r6, r3, lsl #2
 80046c4:	6918      	ldr	r0, [r3, #16]
 80046c6:	f000 fba5 	bl	8004e14 <__hi0bits>
 80046ca:	f1c0 0020 	rsb	r0, r0, #32
 80046ce:	9b06      	ldr	r3, [sp, #24]
 80046d0:	4418      	add	r0, r3
 80046d2:	f010 001f 	ands.w	r0, r0, #31
 80046d6:	f000 8094 	beq.w	8004802 <_dtoa_r+0x922>
 80046da:	f1c0 0320 	rsb	r3, r0, #32
 80046de:	2b04      	cmp	r3, #4
 80046e0:	f340 8085 	ble.w	80047ee <_dtoa_r+0x90e>
 80046e4:	9b05      	ldr	r3, [sp, #20]
 80046e6:	f1c0 001c 	rsb	r0, r0, #28
 80046ea:	4403      	add	r3, r0
 80046ec:	9305      	str	r3, [sp, #20]
 80046ee:	9b06      	ldr	r3, [sp, #24]
 80046f0:	4403      	add	r3, r0
 80046f2:	4405      	add	r5, r0
 80046f4:	9306      	str	r3, [sp, #24]
 80046f6:	9b05      	ldr	r3, [sp, #20]
 80046f8:	2b00      	cmp	r3, #0
 80046fa:	dd05      	ble.n	8004708 <_dtoa_r+0x828>
 80046fc:	4651      	mov	r1, sl
 80046fe:	461a      	mov	r2, r3
 8004700:	4620      	mov	r0, r4
 8004702:	f000 fcef 	bl	80050e4 <__lshift>
 8004706:	4682      	mov	sl, r0
 8004708:	9b06      	ldr	r3, [sp, #24]
 800470a:	2b00      	cmp	r3, #0
 800470c:	dd05      	ble.n	800471a <_dtoa_r+0x83a>
 800470e:	4631      	mov	r1, r6
 8004710:	461a      	mov	r2, r3
 8004712:	4620      	mov	r0, r4
 8004714:	f000 fce6 	bl	80050e4 <__lshift>
 8004718:	4606      	mov	r6, r0
 800471a:	9b0c      	ldr	r3, [sp, #48]	; 0x30
 800471c:	2b00      	cmp	r3, #0
 800471e:	d072      	beq.n	8004806 <_dtoa_r+0x926>
 8004720:	4631      	mov	r1, r6
 8004722:	4650      	mov	r0, sl
 8004724:	f000 fd4a 	bl	80051bc <__mcmp>
 8004728:	2800      	cmp	r0, #0
 800472a:	da6c      	bge.n	8004806 <_dtoa_r+0x926>
 800472c:	2300      	movs	r3, #0
 800472e:	4651      	mov	r1, sl
 8004730:	220a      	movs	r2, #10
 8004732:	4620      	mov	r0, r4
 8004734:	f000 fb28 	bl	8004d88 <__multadd>
 8004738:	9b09      	ldr	r3, [sp, #36]	; 0x24
 800473a:	f10b 3bff 	add.w	fp, fp, #4294967295
 800473e:	4682      	mov	sl, r0
 8004740:	2b00      	cmp	r3, #0
 8004742:	f000 81b0 	beq.w	8004aa6 <_dtoa_r+0xbc6>
 8004746:	2300      	movs	r3, #0
 8004748:	4639      	mov	r1, r7
 800474a:	220a      	movs	r2, #10
 800474c:	4620      	mov	r0, r4
 800474e:	f000 fb1b 	bl	8004d88 <__multadd>
 8004752:	9b01      	ldr	r3, [sp, #4]
 8004754:	2b00      	cmp	r3, #0
 8004756:	4607      	mov	r7, r0
 8004758:	f300 8096 	bgt.w	8004888 <_dtoa_r+0x9a8>
 800475c:	9b07      	ldr	r3, [sp, #28]
 800475e:	2b02      	cmp	r3, #2
 8004760:	dc59      	bgt.n	8004816 <_dtoa_r+0x936>
 8004762:	e091      	b.n	8004888 <_dtoa_r+0x9a8>
 8004764:	9b10      	ldr	r3, [sp, #64]	; 0x40
 8004766:	f1c3 0336 	rsb	r3, r3, #54	; 0x36
 800476a:	e758      	b.n	800461e <_dtoa_r+0x73e>
 800476c:	9b04      	ldr	r3, [sp, #16]
 800476e:	1e5e      	subs	r6, r3, #1
 8004770:	9b08      	ldr	r3, [sp, #32]
 8004772:	42b3      	cmp	r3, r6
 8004774:	bfbf      	itttt	lt
 8004776:	9b08      	ldrlt	r3, [sp, #32]
 8004778:	9a0b      	ldrlt	r2, [sp, #44]	; 0x2c
 800477a:	9608      	strlt	r6, [sp, #32]
 800477c:	1af3      	sublt	r3, r6, r3
 800477e:	bfb4      	ite	lt
 8004780:	18d2      	addlt	r2, r2, r3
 8004782:	1b9e      	subge	r6, r3, r6
 8004784:	9b04      	ldr	r3, [sp, #16]
 8004786:	bfbc      	itt	lt
 8004788:	920b      	strlt	r2, [sp, #44]	; 0x2c
 800478a:	2600      	movlt	r6, #0
 800478c:	2b00      	cmp	r3, #0
 800478e:	bfb7      	itett	lt
 8004790:	e9dd 2304 	ldrdlt	r2, r3, [sp, #16]
 8004794:	e9dd 3504 	ldrdge	r3, r5, [sp, #16]
 8004798:	1a9d      	sublt	r5, r3, r2
 800479a:	2300      	movlt	r3, #0
 800479c:	e741      	b.n	8004622 <_dtoa_r+0x742>
 800479e:	9e08      	ldr	r6, [sp, #32]
 80047a0:	9d05      	ldr	r5, [sp, #20]
 80047a2:	9f09      	ldr	r7, [sp, #36]	; 0x24
 80047a4:	e748      	b.n	8004638 <_dtoa_r+0x758>
 80047a6:	9a08      	ldr	r2, [sp, #32]
 80047a8:	e770      	b.n	800468c <_dtoa_r+0x7ac>
 80047aa:	9b07      	ldr	r3, [sp, #28]
 80047ac:	2b01      	cmp	r3, #1
 80047ae:	dc19      	bgt.n	80047e4 <_dtoa_r+0x904>
 80047b0:	9b02      	ldr	r3, [sp, #8]
 80047b2:	b9bb      	cbnz	r3, 80047e4 <_dtoa_r+0x904>
 80047b4:	9b03      	ldr	r3, [sp, #12]
 80047b6:	f3c3 0313 	ubfx	r3, r3, #0, #20
 80047ba:	b99b      	cbnz	r3, 80047e4 <_dtoa_r+0x904>
 80047bc:	9b03      	ldr	r3, [sp, #12]
 80047be:	f023 4300 	bic.w	r3, r3, #2147483648	; 0x80000000
 80047c2:	0d1b      	lsrs	r3, r3, #20
 80047c4:	051b      	lsls	r3, r3, #20
 80047c6:	b183      	cbz	r3, 80047ea <_dtoa_r+0x90a>
 80047c8:	9b05      	ldr	r3, [sp, #20]
 80047ca:	3301      	adds	r3, #1
 80047cc:	9305      	str	r3, [sp, #20]
 80047ce:	9b06      	ldr	r3, [sp, #24]
 80047d0:	3301      	adds	r3, #1
 80047d2:	9306      	str	r3, [sp, #24]
 80047d4:	f04f 0801 	mov.w	r8, #1
 80047d8:	9b0b      	ldr	r3, [sp, #44]	; 0x2c
 80047da:	2b00      	cmp	r3, #0
 80047dc:	f47f af6f 	bne.w	80046be <_dtoa_r+0x7de>
 80047e0:	2001      	movs	r0, #1
 80047e2:	e774      	b.n	80046ce <_dtoa_r+0x7ee>
 80047e4:	f04f 0800 	mov.w	r8, #0
 80047e8:	e7f6      	b.n	80047d8 <_dtoa_r+0x8f8>
 80047ea:	4698      	mov	r8, r3
 80047ec:	e7f4      	b.n	80047d8 <_dtoa_r+0x8f8>
 80047ee:	d082      	beq.n	80046f6 <_dtoa_r+0x816>
 80047f0:	9a05      	ldr	r2, [sp, #20]
 80047f2:	331c      	adds	r3, #28
 80047f4:	441a      	add	r2, r3
 80047f6:	9205      	str	r2, [sp, #20]
 80047f8:	9a06      	ldr	r2, [sp, #24]
 80047fa:	441a      	add	r2, r3
 80047fc:	441d      	add	r5, r3
 80047fe:	9206      	str	r2, [sp, #24]
 8004800:	e779      	b.n	80046f6 <_dtoa_r+0x816>
 8004802:	4603      	mov	r3, r0
 8004804:	e7f4      	b.n	80047f0 <_dtoa_r+0x910>
 8004806:	9b04      	ldr	r3, [sp, #16]
 8004808:	2b00      	cmp	r3, #0
 800480a:	dc37      	bgt.n	800487c <_dtoa_r+0x99c>
 800480c:	9b07      	ldr	r3, [sp, #28]
 800480e:	2b02      	cmp	r3, #2
 8004810:	dd34      	ble.n	800487c <_dtoa_r+0x99c>
 8004812:	9b04      	ldr	r3, [sp, #16]
 8004814:	9301      	str	r3, [sp, #4]
 8004816:	9b01      	ldr	r3, [sp, #4]
 8004818:	b963      	cbnz	r3, 8004834 <_dtoa_r+0x954>
 800481a:	4631      	mov	r1, r6
 800481c:	2205      	movs	r2, #5
 800481e:	4620      	mov	r0, r4
 8004820:	f000 fab2 	bl	8004d88 <__multadd>
 8004824:	4601      	mov	r1, r0
 8004826:	4606      	mov	r6, r0
 8004828:	4650      	mov	r0, sl
 800482a:	f000 fcc7 	bl	80051bc <__mcmp>
 800482e:	2800      	cmp	r0, #0
 8004830:	f73f adbb 	bgt.w	80043aa <_dtoa_r+0x4ca>
 8004834:	9b0a      	ldr	r3, [sp, #40]	; 0x28
 8004836:	9d00      	ldr	r5, [sp, #0]
 8004838:	ea6f 0b03 	mvn.w	fp, r3
 800483c:	f04f 0800 	mov.w	r8, #0
 8004840:	4631      	mov	r1, r6
 8004842:	4620      	mov	r0, r4
 8004844:	f000 fa7e 	bl	8004d44 <_Bfree>
 8004848:	2f00      	cmp	r7, #0
 800484a:	f43f aeab 	beq.w	80045a4 <_dtoa_r+0x6c4>
 800484e:	f1b8 0f00 	cmp.w	r8, #0
 8004852:	d005      	beq.n	8004860 <_dtoa_r+0x980>
 8004854:	45b8      	cmp	r8, r7
 8004856:	d003      	beq.n	8004860 <_dtoa_r+0x980>
 8004858:	4641      	mov	r1, r8
 800485a:	4620      	mov	r0, r4
 800485c:	f000 fa72 	bl	8004d44 <_Bfree>
 8004860:	4639      	mov	r1, r7
 8004862:	4620      	mov	r0, r4
 8004864:	f000 fa6e 	bl	8004d44 <_Bfree>
 8004868:	e69c      	b.n	80045a4 <_dtoa_r+0x6c4>
 800486a:	2600      	movs	r6, #0
 800486c:	4637      	mov	r7, r6
 800486e:	e7e1      	b.n	8004834 <_dtoa_r+0x954>
 8004870:	46bb      	mov	fp, r7
 8004872:	4637      	mov	r7, r6
 8004874:	e599      	b.n	80043aa <_dtoa_r+0x4ca>
 8004876:	bf00      	nop
 8004878:	40240000 	.word	0x40240000
 800487c:	9b09      	ldr	r3, [sp, #36]	; 0x24
 800487e:	2b00      	cmp	r3, #0
 8004880:	f000 80c8 	beq.w	8004a14 <_dtoa_r+0xb34>
 8004884:	9b04      	ldr	r3, [sp, #16]
 8004886:	9301      	str	r3, [sp, #4]
 8004888:	2d00      	cmp	r5, #0
 800488a:	dd05      	ble.n	8004898 <_dtoa_r+0x9b8>
 800488c:	4639      	mov	r1, r7
 800488e:	462a      	mov	r2, r5
 8004890:	4620      	mov	r0, r4
 8004892:	f000 fc27 	bl	80050e4 <__lshift>
 8004896:	4607      	mov	r7, r0
 8004898:	f1b8 0f00 	cmp.w	r8, #0
 800489c:	d05b      	beq.n	8004956 <_dtoa_r+0xa76>
 800489e:	6879      	ldr	r1, [r7, #4]
 80048a0:	4620      	mov	r0, r4
 80048a2:	f000 fa0f 	bl	8004cc4 <_Balloc>
 80048a6:	4605      	mov	r5, r0
 80048a8:	b928      	cbnz	r0, 80048b6 <_dtoa_r+0x9d6>
 80048aa:	4b83      	ldr	r3, [pc, #524]	; (8004ab8 <_dtoa_r+0xbd8>)
 80048ac:	4602      	mov	r2, r0
 80048ae:	f240 21ef 	movw	r1, #751	; 0x2ef
 80048b2:	f7ff bb2e 	b.w	8003f12 <_dtoa_r+0x32>
 80048b6:	693a      	ldr	r2, [r7, #16]
 80048b8:	3202      	adds	r2, #2
 80048ba:	0092      	lsls	r2, r2, #2
 80048bc:	f107 010c 	add.w	r1, r7, #12
 80048c0:	300c      	adds	r0, #12
 80048c2:	f000 ffab 	bl	800581c <memcpy>
 80048c6:	2201      	movs	r2, #1
 80048c8:	4629      	mov	r1, r5
 80048ca:	4620      	mov	r0, r4
 80048cc:	f000 fc0a 	bl	80050e4 <__lshift>
 80048d0:	9b00      	ldr	r3, [sp, #0]
 80048d2:	3301      	adds	r3, #1
 80048d4:	9304      	str	r3, [sp, #16]
 80048d6:	e9dd 2300 	ldrd	r2, r3, [sp]
 80048da:	4413      	add	r3, r2
 80048dc:	9308      	str	r3, [sp, #32]
 80048de:	9b02      	ldr	r3, [sp, #8]
 80048e0:	f003 0301 	and.w	r3, r3, #1
 80048e4:	46b8      	mov	r8, r7
 80048e6:	9306      	str	r3, [sp, #24]
 80048e8:	4607      	mov	r7, r0
 80048ea:	9b04      	ldr	r3, [sp, #16]
 80048ec:	4631      	mov	r1, r6
 80048ee:	3b01      	subs	r3, #1
 80048f0:	4650      	mov	r0, sl
 80048f2:	9301      	str	r3, [sp, #4]
 80048f4:	f7ff fa6b 	bl	8003dce <quorem>
 80048f8:	4641      	mov	r1, r8
 80048fa:	9002      	str	r0, [sp, #8]
 80048fc:	f100 0930 	add.w	r9, r0, #48	; 0x30
 8004900:	4650      	mov	r0, sl
 8004902:	f000 fc5b 	bl	80051bc <__mcmp>
 8004906:	463a      	mov	r2, r7
 8004908:	9005      	str	r0, [sp, #20]
 800490a:	4631      	mov	r1, r6
 800490c:	4620      	mov	r0, r4
 800490e:	f000 fc71 	bl	80051f4 <__mdiff>
 8004912:	68c2      	ldr	r2, [r0, #12]
 8004914:	4605      	mov	r5, r0
 8004916:	bb02      	cbnz	r2, 800495a <_dtoa_r+0xa7a>
 8004918:	4601      	mov	r1, r0
 800491a:	4650      	mov	r0, sl
 800491c:	f000 fc4e 	bl	80051bc <__mcmp>
 8004920:	4602      	mov	r2, r0
 8004922:	4629      	mov	r1, r5
 8004924:	4620      	mov	r0, r4
 8004926:	9209      	str	r2, [sp, #36]	; 0x24
 8004928:	f000 fa0c 	bl	8004d44 <_Bfree>
 800492c:	9b07      	ldr	r3, [sp, #28]
 800492e:	9a09      	ldr	r2, [sp, #36]	; 0x24
 8004930:	9d04      	ldr	r5, [sp, #16]
 8004932:	ea43 0102 	orr.w	r1, r3, r2
 8004936:	9b06      	ldr	r3, [sp, #24]
 8004938:	4319      	orrs	r1, r3
 800493a:	d110      	bne.n	800495e <_dtoa_r+0xa7e>
 800493c:	f1b9 0f39 	cmp.w	r9, #57	; 0x39
 8004940:	d029      	beq.n	8004996 <_dtoa_r+0xab6>
 8004942:	9b05      	ldr	r3, [sp, #20]
 8004944:	2b00      	cmp	r3, #0
 8004946:	dd02      	ble.n	800494e <_dtoa_r+0xa6e>
 8004948:	9b02      	ldr	r3, [sp, #8]
 800494a:	f103 0931 	add.w	r9, r3, #49	; 0x31
 800494e:	9b01      	ldr	r3, [sp, #4]
 8004950:	f883 9000 	strb.w	r9, [r3]
 8004954:	e774      	b.n	8004840 <_dtoa_r+0x960>
 8004956:	4638      	mov	r0, r7
 8004958:	e7ba      	b.n	80048d0 <_dtoa_r+0x9f0>
 800495a:	2201      	movs	r2, #1
 800495c:	e7e1      	b.n	8004922 <_dtoa_r+0xa42>
 800495e:	9b05      	ldr	r3, [sp, #20]
 8004960:	2b00      	cmp	r3, #0
 8004962:	db04      	blt.n	800496e <_dtoa_r+0xa8e>
 8004964:	9907      	ldr	r1, [sp, #28]
 8004966:	430b      	orrs	r3, r1
 8004968:	9906      	ldr	r1, [sp, #24]
 800496a:	430b      	orrs	r3, r1
 800496c:	d120      	bne.n	80049b0 <_dtoa_r+0xad0>
 800496e:	2a00      	cmp	r2, #0
 8004970:	dded      	ble.n	800494e <_dtoa_r+0xa6e>
 8004972:	4651      	mov	r1, sl
 8004974:	2201      	movs	r2, #1
 8004976:	4620      	mov	r0, r4
 8004978:	f000 fbb4 	bl	80050e4 <__lshift>
 800497c:	4631      	mov	r1, r6
 800497e:	4682      	mov	sl, r0
 8004980:	f000 fc1c 	bl	80051bc <__mcmp>
 8004984:	2800      	cmp	r0, #0
 8004986:	dc03      	bgt.n	8004990 <_dtoa_r+0xab0>
 8004988:	d1e1      	bne.n	800494e <_dtoa_r+0xa6e>
 800498a:	f019 0f01 	tst.w	r9, #1
 800498e:	d0de      	beq.n	800494e <_dtoa_r+0xa6e>
 8004990:	f1b9 0f39 	cmp.w	r9, #57	; 0x39
 8004994:	d1d8      	bne.n	8004948 <_dtoa_r+0xa68>
 8004996:	9a01      	ldr	r2, [sp, #4]
 8004998:	2339      	movs	r3, #57	; 0x39
 800499a:	7013      	strb	r3, [r2, #0]
 800499c:	462b      	mov	r3, r5
 800499e:	461d      	mov	r5, r3
 80049a0:	3b01      	subs	r3, #1
 80049a2:	f815 2c01 	ldrb.w	r2, [r5, #-1]
 80049a6:	2a39      	cmp	r2, #57	; 0x39
 80049a8:	d06c      	beq.n	8004a84 <_dtoa_r+0xba4>
 80049aa:	3201      	adds	r2, #1
 80049ac:	701a      	strb	r2, [r3, #0]
 80049ae:	e747      	b.n	8004840 <_dtoa_r+0x960>
 80049b0:	2a00      	cmp	r2, #0
 80049b2:	dd07      	ble.n	80049c4 <_dtoa_r+0xae4>
 80049b4:	f1b9 0f39 	cmp.w	r9, #57	; 0x39
 80049b8:	d0ed      	beq.n	8004996 <_dtoa_r+0xab6>
 80049ba:	9a01      	ldr	r2, [sp, #4]
 80049bc:	f109 0301 	add.w	r3, r9, #1
 80049c0:	7013      	strb	r3, [r2, #0]
 80049c2:	e73d      	b.n	8004840 <_dtoa_r+0x960>
 80049c4:	9b04      	ldr	r3, [sp, #16]
 80049c6:	9a08      	ldr	r2, [sp, #32]
 80049c8:	f803 9c01 	strb.w	r9, [r3, #-1]
 80049cc:	4293      	cmp	r3, r2
 80049ce:	d043      	beq.n	8004a58 <_dtoa_r+0xb78>
 80049d0:	4651      	mov	r1, sl
 80049d2:	2300      	movs	r3, #0
 80049d4:	220a      	movs	r2, #10
 80049d6:	4620      	mov	r0, r4
 80049d8:	f000 f9d6 	bl	8004d88 <__multadd>
 80049dc:	45b8      	cmp	r8, r7
 80049de:	4682      	mov	sl, r0
 80049e0:	f04f 0300 	mov.w	r3, #0
 80049e4:	f04f 020a 	mov.w	r2, #10
 80049e8:	4641      	mov	r1, r8
 80049ea:	4620      	mov	r0, r4
 80049ec:	d107      	bne.n	80049fe <_dtoa_r+0xb1e>
 80049ee:	f000 f9cb 	bl	8004d88 <__multadd>
 80049f2:	4680      	mov	r8, r0
 80049f4:	4607      	mov	r7, r0
 80049f6:	9b04      	ldr	r3, [sp, #16]
 80049f8:	3301      	adds	r3, #1
 80049fa:	9304      	str	r3, [sp, #16]
 80049fc:	e775      	b.n	80048ea <_dtoa_r+0xa0a>
 80049fe:	f000 f9c3 	bl	8004d88 <__multadd>
 8004a02:	4639      	mov	r1, r7
 8004a04:	4680      	mov	r8, r0
 8004a06:	2300      	movs	r3, #0
 8004a08:	220a      	movs	r2, #10
 8004a0a:	4620      	mov	r0, r4
 8004a0c:	f000 f9bc 	bl	8004d88 <__multadd>
 8004a10:	4607      	mov	r7, r0
 8004a12:	e7f0      	b.n	80049f6 <_dtoa_r+0xb16>
 8004a14:	9b04      	ldr	r3, [sp, #16]
 8004a16:	9301      	str	r3, [sp, #4]
 8004a18:	9d00      	ldr	r5, [sp, #0]
 8004a1a:	4631      	mov	r1, r6
 8004a1c:	4650      	mov	r0, sl
 8004a1e:	f7ff f9d6 	bl	8003dce <quorem>
 8004a22:	f100 0930 	add.w	r9, r0, #48	; 0x30
 8004a26:	9b00      	ldr	r3, [sp, #0]
 8004a28:	f805 9b01 	strb.w	r9, [r5], #1
 8004a2c:	1aea      	subs	r2, r5, r3
 8004a2e:	9b01      	ldr	r3, [sp, #4]
 8004a30:	4293      	cmp	r3, r2
 8004a32:	dd07      	ble.n	8004a44 <_dtoa_r+0xb64>
 8004a34:	4651      	mov	r1, sl
 8004a36:	2300      	movs	r3, #0
 8004a38:	220a      	movs	r2, #10
 8004a3a:	4620      	mov	r0, r4
 8004a3c:	f000 f9a4 	bl	8004d88 <__multadd>
 8004a40:	4682      	mov	sl, r0
 8004a42:	e7ea      	b.n	8004a1a <_dtoa_r+0xb3a>
 8004a44:	9b01      	ldr	r3, [sp, #4]
 8004a46:	2b00      	cmp	r3, #0
 8004a48:	bfc8      	it	gt
 8004a4a:	461d      	movgt	r5, r3
 8004a4c:	9b00      	ldr	r3, [sp, #0]
 8004a4e:	bfd8      	it	le
 8004a50:	2501      	movle	r5, #1
 8004a52:	441d      	add	r5, r3
 8004a54:	f04f 0800 	mov.w	r8, #0
 8004a58:	4651      	mov	r1, sl
 8004a5a:	2201      	movs	r2, #1
 8004a5c:	4620      	mov	r0, r4
 8004a5e:	f000 fb41 	bl	80050e4 <__lshift>
 8004a62:	4631      	mov	r1, r6
 8004a64:	4682      	mov	sl, r0
 8004a66:	f000 fba9 	bl	80051bc <__mcmp>
 8004a6a:	2800      	cmp	r0, #0
 8004a6c:	dc96      	bgt.n	800499c <_dtoa_r+0xabc>
 8004a6e:	d102      	bne.n	8004a76 <_dtoa_r+0xb96>
 8004a70:	f019 0f01 	tst.w	r9, #1
 8004a74:	d192      	bne.n	800499c <_dtoa_r+0xabc>
 8004a76:	462b      	mov	r3, r5
 8004a78:	461d      	mov	r5, r3
 8004a7a:	f813 2d01 	ldrb.w	r2, [r3, #-1]!
 8004a7e:	2a30      	cmp	r2, #48	; 0x30
 8004a80:	d0fa      	beq.n	8004a78 <_dtoa_r+0xb98>
 8004a82:	e6dd      	b.n	8004840 <_dtoa_r+0x960>
 8004a84:	9a00      	ldr	r2, [sp, #0]
 8004a86:	429a      	cmp	r2, r3
 8004a88:	d189      	bne.n	800499e <_dtoa_r+0xabe>
 8004a8a:	f10b 0b01 	add.w	fp, fp, #1
 8004a8e:	2331      	movs	r3, #49	; 0x31
 8004a90:	e796      	b.n	80049c0 <_dtoa_r+0xae0>
 8004a92:	4b0a      	ldr	r3, [pc, #40]	; (8004abc <_dtoa_r+0xbdc>)
 8004a94:	f7ff ba99 	b.w	8003fca <_dtoa_r+0xea>
 8004a98:	9b21      	ldr	r3, [sp, #132]	; 0x84
 8004a9a:	2b00      	cmp	r3, #0
 8004a9c:	f47f aa6d 	bne.w	8003f7a <_dtoa_r+0x9a>
 8004aa0:	4b07      	ldr	r3, [pc, #28]	; (8004ac0 <_dtoa_r+0xbe0>)
 8004aa2:	f7ff ba92 	b.w	8003fca <_dtoa_r+0xea>
 8004aa6:	9b01      	ldr	r3, [sp, #4]
 8004aa8:	2b00      	cmp	r3, #0
 8004aaa:	dcb5      	bgt.n	8004a18 <_dtoa_r+0xb38>
 8004aac:	9b07      	ldr	r3, [sp, #28]
 8004aae:	2b02      	cmp	r3, #2
 8004ab0:	f73f aeb1 	bgt.w	8004816 <_dtoa_r+0x936>
 8004ab4:	e7b0      	b.n	8004a18 <_dtoa_r+0xb38>
 8004ab6:	bf00      	nop
 8004ab8:	080067a7 	.word	0x080067a7
 8004abc:	08006707 	.word	0x08006707
 8004ac0:	0800672b 	.word	0x0800672b

08004ac4 <_free_r>:
 8004ac4:	b537      	push	{r0, r1, r2, r4, r5, lr}
 8004ac6:	2900      	cmp	r1, #0
 8004ac8:	d044      	beq.n	8004b54 <_free_r+0x90>
 8004aca:	f851 3c04 	ldr.w	r3, [r1, #-4]
 8004ace:	9001      	str	r0, [sp, #4]
 8004ad0:	2b00      	cmp	r3, #0
 8004ad2:	f1a1 0404 	sub.w	r4, r1, #4
 8004ad6:	bfb8      	it	lt
 8004ad8:	18e4      	addlt	r4, r4, r3
 8004ada:	f000 f8e7 	bl	8004cac <__malloc_lock>
 8004ade:	4a1e      	ldr	r2, [pc, #120]	; (8004b58 <_free_r+0x94>)
 8004ae0:	9801      	ldr	r0, [sp, #4]
 8004ae2:	6813      	ldr	r3, [r2, #0]
 8004ae4:	b933      	cbnz	r3, 8004af4 <_free_r+0x30>
 8004ae6:	6063      	str	r3, [r4, #4]
 8004ae8:	6014      	str	r4, [r2, #0]
 8004aea:	b003      	add	sp, #12
 8004aec:	e8bd 4030 	ldmia.w	sp!, {r4, r5, lr}
 8004af0:	f000 b8e2 	b.w	8004cb8 <__malloc_unlock>
 8004af4:	42a3      	cmp	r3, r4
 8004af6:	d908      	bls.n	8004b0a <_free_r+0x46>
 8004af8:	6825      	ldr	r5, [r4, #0]
 8004afa:	1961      	adds	r1, r4, r5
 8004afc:	428b      	cmp	r3, r1
 8004afe:	bf01      	itttt	eq
 8004b00:	6819      	ldreq	r1, [r3, #0]
 8004b02:	685b      	ldreq	r3, [r3, #4]
 8004b04:	1949      	addeq	r1, r1, r5
 8004b06:	6021      	streq	r1, [r4, #0]
 8004b08:	e7ed      	b.n	8004ae6 <_free_r+0x22>
 8004b0a:	461a      	mov	r2, r3
 8004b0c:	685b      	ldr	r3, [r3, #4]
 8004b0e:	b10b      	cbz	r3, 8004b14 <_free_r+0x50>
 8004b10:	42a3      	cmp	r3, r4
 8004b12:	d9fa      	bls.n	8004b0a <_free_r+0x46>
 8004b14:	6811      	ldr	r1, [r2, #0]
 8004b16:	1855      	adds	r5, r2, r1
 8004b18:	42a5      	cmp	r5, r4
 8004b1a:	d10b      	bne.n	8004b34 <_free_r+0x70>
 8004b1c:	6824      	ldr	r4, [r4, #0]
 8004b1e:	4421      	add	r1, r4
 8004b20:	1854      	adds	r4, r2, r1
 8004b22:	42a3      	cmp	r3, r4
 8004b24:	6011      	str	r1, [r2, #0]
 8004b26:	d1e0      	bne.n	8004aea <_free_r+0x26>
 8004b28:	681c      	ldr	r4, [r3, #0]
 8004b2a:	685b      	ldr	r3, [r3, #4]
 8004b2c:	6053      	str	r3, [r2, #4]
 8004b2e:	440c      	add	r4, r1
 8004b30:	6014      	str	r4, [r2, #0]
 8004b32:	e7da      	b.n	8004aea <_free_r+0x26>
 8004b34:	d902      	bls.n	8004b3c <_free_r+0x78>
 8004b36:	230c      	movs	r3, #12
 8004b38:	6003      	str	r3, [r0, #0]
 8004b3a:	e7d6      	b.n	8004aea <_free_r+0x26>
 8004b3c:	6825      	ldr	r5, [r4, #0]
 8004b3e:	1961      	adds	r1, r4, r5
 8004b40:	428b      	cmp	r3, r1
 8004b42:	bf04      	itt	eq
 8004b44:	6819      	ldreq	r1, [r3, #0]
 8004b46:	685b      	ldreq	r3, [r3, #4]
 8004b48:	6063      	str	r3, [r4, #4]
 8004b4a:	bf04      	itt	eq
 8004b4c:	1949      	addeq	r1, r1, r5
 8004b4e:	6021      	streq	r1, [r4, #0]
 8004b50:	6054      	str	r4, [r2, #4]
 8004b52:	e7ca      	b.n	8004aea <_free_r+0x26>
 8004b54:	b003      	add	sp, #12
 8004b56:	bd30      	pop	{r4, r5, pc}
 8004b58:	200005b4 	.word	0x200005b4

08004b5c <malloc>:
 8004b5c:	4b02      	ldr	r3, [pc, #8]	; (8004b68 <malloc+0xc>)
 8004b5e:	4601      	mov	r1, r0
 8004b60:	6818      	ldr	r0, [r3, #0]
 8004b62:	f000 b823 	b.w	8004bac <_malloc_r>
 8004b66:	bf00      	nop
 8004b68:	2000005c 	.word	0x2000005c

08004b6c <sbrk_aligned>:
 8004b6c:	b570      	push	{r4, r5, r6, lr}
 8004b6e:	4e0e      	ldr	r6, [pc, #56]	; (8004ba8 <sbrk_aligned+0x3c>)
 8004b70:	460c      	mov	r4, r1
 8004b72:	6831      	ldr	r1, [r6, #0]
 8004b74:	4605      	mov	r5, r0
 8004b76:	b911      	cbnz	r1, 8004b7e <sbrk_aligned+0x12>
 8004b78:	f000 fe40 	bl	80057fc <_sbrk_r>
 8004b7c:	6030      	str	r0, [r6, #0]
 8004b7e:	4621      	mov	r1, r4
 8004b80:	4628      	mov	r0, r5
 8004b82:	f000 fe3b 	bl	80057fc <_sbrk_r>
 8004b86:	1c43      	adds	r3, r0, #1
 8004b88:	d00a      	beq.n	8004ba0 <sbrk_aligned+0x34>
 8004b8a:	1cc4      	adds	r4, r0, #3
 8004b8c:	f024 0403 	bic.w	r4, r4, #3
 8004b90:	42a0      	cmp	r0, r4
 8004b92:	d007      	beq.n	8004ba4 <sbrk_aligned+0x38>
 8004b94:	1a21      	subs	r1, r4, r0
 8004b96:	4628      	mov	r0, r5
 8004b98:	f000 fe30 	bl	80057fc <_sbrk_r>
 8004b9c:	3001      	adds	r0, #1
 8004b9e:	d101      	bne.n	8004ba4 <sbrk_aligned+0x38>
 8004ba0:	f04f 34ff 	mov.w	r4, #4294967295
 8004ba4:	4620      	mov	r0, r4
 8004ba6:	bd70      	pop	{r4, r5, r6, pc}
 8004ba8:	200005b8 	.word	0x200005b8

08004bac <_malloc_r>:
 8004bac:	e92d 43f8 	stmdb	sp!, {r3, r4, r5, r6, r7, r8, r9, lr}
 8004bb0:	1ccd      	adds	r5, r1, #3
 8004bb2:	f025 0503 	bic.w	r5, r5, #3
 8004bb6:	3508      	adds	r5, #8
 8004bb8:	2d0c      	cmp	r5, #12
 8004bba:	bf38      	it	cc
 8004bbc:	250c      	movcc	r5, #12
 8004bbe:	2d00      	cmp	r5, #0
 8004bc0:	4607      	mov	r7, r0
 8004bc2:	db01      	blt.n	8004bc8 <_malloc_r+0x1c>
 8004bc4:	42a9      	cmp	r1, r5
 8004bc6:	d905      	bls.n	8004bd4 <_malloc_r+0x28>
 8004bc8:	230c      	movs	r3, #12
 8004bca:	603b      	str	r3, [r7, #0]
 8004bcc:	2600      	movs	r6, #0
 8004bce:	4630      	mov	r0, r6
 8004bd0:	e8bd 83f8 	ldmia.w	sp!, {r3, r4, r5, r6, r7, r8, r9, pc}
 8004bd4:	f8df 80d0 	ldr.w	r8, [pc, #208]	; 8004ca8 <_malloc_r+0xfc>
 8004bd8:	f000 f868 	bl	8004cac <__malloc_lock>
 8004bdc:	f8d8 3000 	ldr.w	r3, [r8]
 8004be0:	461c      	mov	r4, r3
 8004be2:	bb5c      	cbnz	r4, 8004c3c <_malloc_r+0x90>
 8004be4:	4629      	mov	r1, r5
 8004be6:	4638      	mov	r0, r7
 8004be8:	f7ff ffc0 	bl	8004b6c <sbrk_aligned>
 8004bec:	1c43      	adds	r3, r0, #1
 8004bee:	4604      	mov	r4, r0
 8004bf0:	d155      	bne.n	8004c9e <_malloc_r+0xf2>
 8004bf2:	f8d8 4000 	ldr.w	r4, [r8]
 8004bf6:	4626      	mov	r6, r4
 8004bf8:	2e00      	cmp	r6, #0
 8004bfa:	d145      	bne.n	8004c88 <_malloc_r+0xdc>
 8004bfc:	2c00      	cmp	r4, #0
 8004bfe:	d048      	beq.n	8004c92 <_malloc_r+0xe6>
 8004c00:	6823      	ldr	r3, [r4, #0]
 8004c02:	4631      	mov	r1, r6
 8004c04:	4638      	mov	r0, r7
 8004c06:	eb04 0903 	add.w	r9, r4, r3
 8004c0a:	f000 fdf7 	bl	80057fc <_sbrk_r>
 8004c0e:	4581      	cmp	r9, r0
 8004c10:	d13f      	bne.n	8004c92 <_malloc_r+0xe6>
 8004c12:	6821      	ldr	r1, [r4, #0]
 8004c14:	1a6d      	subs	r5, r5, r1
 8004c16:	4629      	mov	r1, r5
 8004c18:	4638      	mov	r0, r7
 8004c1a:	f7ff ffa7 	bl	8004b6c <sbrk_aligned>
 8004c1e:	3001      	adds	r0, #1
 8004c20:	d037      	beq.n	8004c92 <_malloc_r+0xe6>
 8004c22:	6823      	ldr	r3, [r4, #0]
 8004c24:	442b      	add	r3, r5
 8004c26:	6023      	str	r3, [r4, #0]
 8004c28:	f8d8 3000 	ldr.w	r3, [r8]
 8004c2c:	2b00      	cmp	r3, #0
 8004c2e:	d038      	beq.n	8004ca2 <_malloc_r+0xf6>
 8004c30:	685a      	ldr	r2, [r3, #4]
 8004c32:	42a2      	cmp	r2, r4
 8004c34:	d12b      	bne.n	8004c8e <_malloc_r+0xe2>
 8004c36:	2200      	movs	r2, #0
 8004c38:	605a      	str	r2, [r3, #4]
 8004c3a:	e00f      	b.n	8004c5c <_malloc_r+0xb0>
 8004c3c:	6822      	ldr	r2, [r4, #0]
 8004c3e:	1b52      	subs	r2, r2, r5
 8004c40:	d41f      	bmi.n	8004c82 <_malloc_r+0xd6>
 8004c42:	2a0b      	cmp	r2, #11
 8004c44:	d917      	bls.n	8004c76 <_malloc_r+0xca>
 8004c46:	1961      	adds	r1, r4, r5
 8004c48:	42a3      	cmp	r3, r4
 8004c4a:	6025      	str	r5, [r4, #0]
 8004c4c:	bf18      	it	ne
 8004c4e:	6059      	strne	r1, [r3, #4]
 8004c50:	6863      	ldr	r3, [r4, #4]
 8004c52:	bf08      	it	eq
 8004c54:	f8c8 1000 	streq.w	r1, [r8]
 8004c58:	5162      	str	r2, [r4, r5]
 8004c5a:	604b      	str	r3, [r1, #4]
 8004c5c:	4638      	mov	r0, r7
 8004c5e:	f104 060b 	add.w	r6, r4, #11
 8004c62:	f000 f829 	bl	8004cb8 <__malloc_unlock>
 8004c66:	f026 0607 	bic.w	r6, r6, #7
 8004c6a:	1d23      	adds	r3, r4, #4
 8004c6c:	1af2      	subs	r2, r6, r3
 8004c6e:	d0ae      	beq.n	8004bce <_malloc_r+0x22>
 8004c70:	1b9b      	subs	r3, r3, r6
 8004c72:	50a3      	str	r3, [r4, r2]
 8004c74:	e7ab      	b.n	8004bce <_malloc_r+0x22>
 8004c76:	42a3      	cmp	r3, r4
 8004c78:	6862      	ldr	r2, [r4, #4]
 8004c7a:	d1dd      	bne.n	8004c38 <_malloc_r+0x8c>
 8004c7c:	f8c8 2000 	str.w	r2, [r8]
 8004c80:	e7ec      	b.n	8004c5c <_malloc_r+0xb0>
 8004c82:	4623      	mov	r3, r4
 8004c84:	6864      	ldr	r4, [r4, #4]
 8004c86:	e7ac      	b.n	8004be2 <_malloc_r+0x36>
 8004c88:	4634      	mov	r4, r6
 8004c8a:	6876      	ldr	r6, [r6, #4]
 8004c8c:	e7b4      	b.n	8004bf8 <_malloc_r+0x4c>
 8004c8e:	4613      	mov	r3, r2
 8004c90:	e7cc      	b.n	8004c2c <_malloc_r+0x80>
 8004c92:	230c      	movs	r3, #12
 8004c94:	603b      	str	r3, [r7, #0]
 8004c96:	4638      	mov	r0, r7
 8004c98:	f000 f80e 	bl	8004cb8 <__malloc_unlock>
 8004c9c:	e797      	b.n	8004bce <_malloc_r+0x22>
 8004c9e:	6025      	str	r5, [r4, #0]
 8004ca0:	e7dc      	b.n	8004c5c <_malloc_r+0xb0>
 8004ca2:	605b      	str	r3, [r3, #4]
 8004ca4:	deff      	udf	#255	; 0xff
 8004ca6:	bf00      	nop
 8004ca8:	200005b4 	.word	0x200005b4

08004cac <__malloc_lock>:
 8004cac:	4801      	ldr	r0, [pc, #4]	; (8004cb4 <__malloc_lock+0x8>)
 8004cae:	f7ff b88c 	b.w	8003dca <__retarget_lock_acquire_recursive>
 8004cb2:	bf00      	nop
 8004cb4:	200005b0 	.word	0x200005b0

08004cb8 <__malloc_unlock>:
 8004cb8:	4801      	ldr	r0, [pc, #4]	; (8004cc0 <__malloc_unlock+0x8>)
 8004cba:	f7ff b887 	b.w	8003dcc <__retarget_lock_release_recursive>
 8004cbe:	bf00      	nop
 8004cc0:	200005b0 	.word	0x200005b0

08004cc4 <_Balloc>:
 8004cc4:	b570      	push	{r4, r5, r6, lr}
 8004cc6:	69c6      	ldr	r6, [r0, #28]
 8004cc8:	4604      	mov	r4, r0
 8004cca:	460d      	mov	r5, r1
 8004ccc:	b976      	cbnz	r6, 8004cec <_Balloc+0x28>
 8004cce:	2010      	movs	r0, #16
 8004cd0:	f7ff ff44 	bl	8004b5c <malloc>
 8004cd4:	4602      	mov	r2, r0
 8004cd6:	61e0      	str	r0, [r4, #28]
 8004cd8:	b920      	cbnz	r0, 8004ce4 <_Balloc+0x20>
 8004cda:	4b18      	ldr	r3, [pc, #96]	; (8004d3c <_Balloc+0x78>)
 8004cdc:	4818      	ldr	r0, [pc, #96]	; (8004d40 <_Balloc+0x7c>)
 8004cde:	216b      	movs	r1, #107	; 0x6b
 8004ce0:	f000 fdaa 	bl	8005838 <__assert_func>
 8004ce4:	e9c0 6601 	strd	r6, r6, [r0, #4]
 8004ce8:	6006      	str	r6, [r0, #0]
 8004cea:	60c6      	str	r6, [r0, #12]
 8004cec:	69e6      	ldr	r6, [r4, #28]
 8004cee:	68f3      	ldr	r3, [r6, #12]
 8004cf0:	b183      	cbz	r3, 8004d14 <_Balloc+0x50>
 8004cf2:	69e3      	ldr	r3, [r4, #28]
 8004cf4:	68db      	ldr	r3, [r3, #12]
 8004cf6:	f853 0025 	ldr.w	r0, [r3, r5, lsl #2]
 8004cfa:	b9b8      	cbnz	r0, 8004d2c <_Balloc+0x68>
 8004cfc:	2101      	movs	r1, #1
 8004cfe:	fa01 f605 	lsl.w	r6, r1, r5
 8004d02:	1d72      	adds	r2, r6, #5
 8004d04:	0092      	lsls	r2, r2, #2
 8004d06:	4620      	mov	r0, r4
 8004d08:	f000 fdb4 	bl	8005874 <_calloc_r>
 8004d0c:	b160      	cbz	r0, 8004d28 <_Balloc+0x64>
 8004d0e:	e9c0 5601 	strd	r5, r6, [r0, #4]
 8004d12:	e00e      	b.n	8004d32 <_Balloc+0x6e>
 8004d14:	2221      	movs	r2, #33	; 0x21
 8004d16:	2104      	movs	r1, #4
 8004d18:	4620      	mov	r0, r4
 8004d1a:	f000 fdab 	bl	8005874 <_calloc_r>
 8004d1e:	69e3      	ldr	r3, [r4, #28]
 8004d20:	60f0      	str	r0, [r6, #12]
 8004d22:	68db      	ldr	r3, [r3, #12]
 8004d24:	2b00      	cmp	r3, #0
 8004d26:	d1e4      	bne.n	8004cf2 <_Balloc+0x2e>
 8004d28:	2000      	movs	r0, #0
 8004d2a:	bd70      	pop	{r4, r5, r6, pc}
 8004d2c:	6802      	ldr	r2, [r0, #0]
 8004d2e:	f843 2025 	str.w	r2, [r3, r5, lsl #2]
 8004d32:	2300      	movs	r3, #0
 8004d34:	e9c0 3303 	strd	r3, r3, [r0, #12]
 8004d38:	e7f7      	b.n	8004d2a <_Balloc+0x66>
 8004d3a:	bf00      	nop
 8004d3c:	08006738 	.word	0x08006738
 8004d40:	080067b8 	.word	0x080067b8

08004d44 <_Bfree>:
 8004d44:	b570      	push	{r4, r5, r6, lr}
 8004d46:	69c6      	ldr	r6, [r0, #28]
 8004d48:	4605      	mov	r5, r0
 8004d4a:	460c      	mov	r4, r1
 8004d4c:	b976      	cbnz	r6, 8004d6c <_Bfree+0x28>
 8004d4e:	2010      	movs	r0, #16
 8004d50:	f7ff ff04 	bl	8004b5c <malloc>
 8004d54:	4602      	mov	r2, r0
 8004d56:	61e8      	str	r0, [r5, #28]
 8004d58:	b920      	cbnz	r0, 8004d64 <_Bfree+0x20>
 8004d5a:	4b09      	ldr	r3, [pc, #36]	; (8004d80 <_Bfree+0x3c>)
 8004d5c:	4809      	ldr	r0, [pc, #36]	; (8004d84 <_Bfree+0x40>)
 8004d5e:	218f      	movs	r1, #143	; 0x8f
 8004d60:	f000 fd6a 	bl	8005838 <__assert_func>
 8004d64:	e9c0 6601 	strd	r6, r6, [r0, #4]
 8004d68:	6006      	str	r6, [r0, #0]
 8004d6a:	60c6      	str	r6, [r0, #12]
 8004d6c:	b13c      	cbz	r4, 8004d7e <_Bfree+0x3a>
 8004d6e:	69eb      	ldr	r3, [r5, #28]
 8004d70:	6862      	ldr	r2, [r4, #4]
 8004d72:	68db      	ldr	r3, [r3, #12]
 8004d74:	f853 1022 	ldr.w	r1, [r3, r2, lsl #2]
 8004d78:	6021      	str	r1, [r4, #0]
 8004d7a:	f843 4022 	str.w	r4, [r3, r2, lsl #2]
 8004d7e:	bd70      	pop	{r4, r5, r6, pc}
 8004d80:	08006738 	.word	0x08006738
 8004d84:	080067b8 	.word	0x080067b8

08004d88 <__multadd>:
 8004d88:	e92d 41f0 	stmdb	sp!, {r4, r5, r6, r7, r8, lr}
 8004d8c:	690d      	ldr	r5, [r1, #16]
 8004d8e:	4607      	mov	r7, r0
 8004d90:	460c      	mov	r4, r1
 8004d92:	461e      	mov	r6, r3
 8004d94:	f101 0c14 	add.w	ip, r1, #20
 8004d98:	2000      	movs	r0, #0
 8004d9a:	f8dc 3000 	ldr.w	r3, [ip]
 8004d9e:	b299      	uxth	r1, r3
 8004da0:	fb02 6101 	mla	r1, r2, r1, r6
 8004da4:	0c1e      	lsrs	r6, r3, #16
 8004da6:	0c0b      	lsrs	r3, r1, #16
 8004da8:	fb02 3306 	mla	r3, r2, r6, r3
 8004dac:	b289      	uxth	r1, r1
 8004dae:	3001      	adds	r0, #1
 8004db0:	eb01 4103 	add.w	r1, r1, r3, lsl #16
 8004db4:	4285      	cmp	r5, r0
 8004db6:	f84c 1b04 	str.w	r1, [ip], #4
 8004dba:	ea4f 4613 	mov.w	r6, r3, lsr #16
 8004dbe:	dcec      	bgt.n	8004d9a <__multadd+0x12>
 8004dc0:	b30e      	cbz	r6, 8004e06 <__multadd+0x7e>
 8004dc2:	68a3      	ldr	r3, [r4, #8]
 8004dc4:	42ab      	cmp	r3, r5
 8004dc6:	dc19      	bgt.n	8004dfc <__multadd+0x74>
 8004dc8:	6861      	ldr	r1, [r4, #4]
 8004dca:	4638      	mov	r0, r7
 8004dcc:	3101      	adds	r1, #1
 8004dce:	f7ff ff79 	bl	8004cc4 <_Balloc>
 8004dd2:	4680      	mov	r8, r0
 8004dd4:	b928      	cbnz	r0, 8004de2 <__multadd+0x5a>
 8004dd6:	4602      	mov	r2, r0
 8004dd8:	4b0c      	ldr	r3, [pc, #48]	; (8004e0c <__multadd+0x84>)
 8004dda:	480d      	ldr	r0, [pc, #52]	; (8004e10 <__multadd+0x88>)
 8004ddc:	21ba      	movs	r1, #186	; 0xba
 8004dde:	f000 fd2b 	bl	8005838 <__assert_func>
 8004de2:	6922      	ldr	r2, [r4, #16]
 8004de4:	3202      	adds	r2, #2
 8004de6:	f104 010c 	add.w	r1, r4, #12
 8004dea:	0092      	lsls	r2, r2, #2
 8004dec:	300c      	adds	r0, #12
 8004dee:	f000 fd15 	bl	800581c <memcpy>
 8004df2:	4621      	mov	r1, r4
 8004df4:	4638      	mov	r0, r7
 8004df6:	f7ff ffa5 	bl	8004d44 <_Bfree>
 8004dfa:	4644      	mov	r4, r8
 8004dfc:	eb04 0385 	add.w	r3, r4, r5, lsl #2
 8004e00:	3501      	adds	r5, #1
 8004e02:	615e      	str	r6, [r3, #20]
 8004e04:	6125      	str	r5, [r4, #16]
 8004e06:	4620      	mov	r0, r4
 8004e08:	e8bd 81f0 	ldmia.w	sp!, {r4, r5, r6, r7, r8, pc}
 8004e0c:	080067a7 	.word	0x080067a7
 8004e10:	080067b8 	.word	0x080067b8

08004e14 <__hi0bits>:
 8004e14:	0c03      	lsrs	r3, r0, #16
 8004e16:	041b      	lsls	r3, r3, #16
 8004e18:	b9d3      	cbnz	r3, 8004e50 <__hi0bits+0x3c>
 8004e1a:	0400      	lsls	r0, r0, #16
 8004e1c:	2310      	movs	r3, #16
 8004e1e:	f010 4f7f 	tst.w	r0, #4278190080	; 0xff000000
 8004e22:	bf04      	itt	eq
 8004e24:	0200      	lsleq	r0, r0, #8
 8004e26:	3308      	addeq	r3, #8
 8004e28:	f010 4f70 	tst.w	r0, #4026531840	; 0xf0000000
 8004e2c:	bf04      	itt	eq
 8004e2e:	0100      	lsleq	r0, r0, #4
 8004e30:	3304      	addeq	r3, #4
 8004e32:	f010 4f40 	tst.w	r0, #3221225472	; 0xc0000000
 8004e36:	bf04      	itt	eq
 8004e38:	0080      	lsleq	r0, r0, #2
 8004e3a:	3302      	addeq	r3, #2
 8004e3c:	2800      	cmp	r0, #0
 8004e3e:	db05      	blt.n	8004e4c <__hi0bits+0x38>
 8004e40:	f010 4f80 	tst.w	r0, #1073741824	; 0x40000000
 8004e44:	f103 0301 	add.w	r3, r3, #1
 8004e48:	bf08      	it	eq
 8004e4a:	2320      	moveq	r3, #32
 8004e4c:	4618      	mov	r0, r3
 8004e4e:	4770      	bx	lr
 8004e50:	2300      	movs	r3, #0
 8004e52:	e7e4      	b.n	8004e1e <__hi0bits+0xa>

08004e54 <__lo0bits>:
 8004e54:	6803      	ldr	r3, [r0, #0]
 8004e56:	f013 0207 	ands.w	r2, r3, #7
 8004e5a:	d00c      	beq.n	8004e76 <__lo0bits+0x22>
 8004e5c:	07d9      	lsls	r1, r3, #31
 8004e5e:	d422      	bmi.n	8004ea6 <__lo0bits+0x52>
 8004e60:	079a      	lsls	r2, r3, #30
 8004e62:	bf49      	itett	mi
 8004e64:	085b      	lsrmi	r3, r3, #1
 8004e66:	089b      	lsrpl	r3, r3, #2
 8004e68:	6003      	strmi	r3, [r0, #0]
 8004e6a:	2201      	movmi	r2, #1
 8004e6c:	bf5c      	itt	pl
 8004e6e:	6003      	strpl	r3, [r0, #0]
 8004e70:	2202      	movpl	r2, #2
 8004e72:	4610      	mov	r0, r2
 8004e74:	4770      	bx	lr
 8004e76:	b299      	uxth	r1, r3
 8004e78:	b909      	cbnz	r1, 8004e7e <__lo0bits+0x2a>
 8004e7a:	0c1b      	lsrs	r3, r3, #16
 8004e7c:	2210      	movs	r2, #16
 8004e7e:	b2d9      	uxtb	r1, r3
 8004e80:	b909      	cbnz	r1, 8004e86 <__lo0bits+0x32>
 8004e82:	3208      	adds	r2, #8
 8004e84:	0a1b      	lsrs	r3, r3, #8
 8004e86:	0719      	lsls	r1, r3, #28
 8004e88:	bf04      	itt	eq
 8004e8a:	091b      	lsreq	r3, r3, #4
 8004e8c:	3204      	addeq	r2, #4
 8004e8e:	0799      	lsls	r1, r3, #30
 8004e90:	bf04      	itt	eq
 8004e92:	089b      	lsreq	r3, r3, #2
 8004e94:	3202      	addeq	r2, #2
 8004e96:	07d9      	lsls	r1, r3, #31
 8004e98:	d403      	bmi.n	8004ea2 <__lo0bits+0x4e>
 8004e9a:	085b      	lsrs	r3, r3, #1
 8004e9c:	f102 0201 	add.w	r2, r2, #1
 8004ea0:	d003      	beq.n	8004eaa <__lo0bits+0x56>
 8004ea2:	6003      	str	r3, [r0, #0]
 8004ea4:	e7e5      	b.n	8004e72 <__lo0bits+0x1e>
 8004ea6:	2200      	movs	r2, #0
 8004ea8:	e7e3      	b.n	8004e72 <__lo0bits+0x1e>
 8004eaa:	2220      	movs	r2, #32
 8004eac:	e7e1      	b.n	8004e72 <__lo0bits+0x1e>
	...

08004eb0 <__i2b>:
 8004eb0:	b510      	push	{r4, lr}
 8004eb2:	460c      	mov	r4, r1
 8004eb4:	2101      	movs	r1, #1
 8004eb6:	f7ff ff05 	bl	8004cc4 <_Balloc>
 8004eba:	4602      	mov	r2, r0
 8004ebc:	b928      	cbnz	r0, 8004eca <__i2b+0x1a>
 8004ebe:	4b05      	ldr	r3, [pc, #20]	; (8004ed4 <__i2b+0x24>)
 8004ec0:	4805      	ldr	r0, [pc, #20]	; (8004ed8 <__i2b+0x28>)
 8004ec2:	f240 1145 	movw	r1, #325	; 0x145
 8004ec6:	f000 fcb7 	bl	8005838 <__assert_func>
 8004eca:	2301      	movs	r3, #1
 8004ecc:	6144      	str	r4, [r0, #20]
 8004ece:	6103      	str	r3, [r0, #16]
 8004ed0:	bd10      	pop	{r4, pc}
 8004ed2:	bf00      	nop
 8004ed4:	080067a7 	.word	0x080067a7
 8004ed8:	080067b8 	.word	0x080067b8

08004edc <__multiply>:
 8004edc:	e92d 4ff0 	stmdb	sp!, {r4, r5, r6, r7, r8, r9, sl, fp, lr}
 8004ee0:	4691      	mov	r9, r2
 8004ee2:	690a      	ldr	r2, [r1, #16]
 8004ee4:	f8d9 3010 	ldr.w	r3, [r9, #16]
 8004ee8:	429a      	cmp	r2, r3
 8004eea:	bfb8      	it	lt
 8004eec:	460b      	movlt	r3, r1
 8004eee:	460c      	mov	r4, r1
 8004ef0:	bfbc      	itt	lt
 8004ef2:	464c      	movlt	r4, r9
 8004ef4:	4699      	movlt	r9, r3
 8004ef6:	6927      	ldr	r7, [r4, #16]
 8004ef8:	f8d9 a010 	ldr.w	sl, [r9, #16]
 8004efc:	68a3      	ldr	r3, [r4, #8]
 8004efe:	6861      	ldr	r1, [r4, #4]
 8004f00:	eb07 060a 	add.w	r6, r7, sl
 8004f04:	42b3      	cmp	r3, r6
 8004f06:	b085      	sub	sp, #20
 8004f08:	bfb8      	it	lt
 8004f0a:	3101      	addlt	r1, #1
 8004f0c:	f7ff feda 	bl	8004cc4 <_Balloc>
 8004f10:	b930      	cbnz	r0, 8004f20 <__multiply+0x44>
 8004f12:	4602      	mov	r2, r0
 8004f14:	4b44      	ldr	r3, [pc, #272]	; (8005028 <__multiply+0x14c>)
 8004f16:	4845      	ldr	r0, [pc, #276]	; (800502c <__multiply+0x150>)
 8004f18:	f44f 71b1 	mov.w	r1, #354	; 0x162
 8004f1c:	f000 fc8c 	bl	8005838 <__assert_func>
 8004f20:	f100 0514 	add.w	r5, r0, #20
 8004f24:	eb05 0886 	add.w	r8, r5, r6, lsl #2
 8004f28:	462b      	mov	r3, r5
 8004f2a:	2200      	movs	r2, #0
 8004f2c:	4543      	cmp	r3, r8
 8004f2e:	d321      	bcc.n	8004f74 <__multiply+0x98>
 8004f30:	f104 0314 	add.w	r3, r4, #20
 8004f34:	eb03 0787 	add.w	r7, r3, r7, lsl #2
 8004f38:	f109 0314 	add.w	r3, r9, #20
 8004f3c:	eb03 028a 	add.w	r2, r3, sl, lsl #2
 8004f40:	9202      	str	r2, [sp, #8]
 8004f42:	1b3a      	subs	r2, r7, r4
 8004f44:	3a15      	subs	r2, #21
 8004f46:	f022 0203 	bic.w	r2, r2, #3
 8004f4a:	3204      	adds	r2, #4
 8004f4c:	f104 0115 	add.w	r1, r4, #21
 8004f50:	428f      	cmp	r7, r1
 8004f52:	bf38      	it	cc
 8004f54:	2204      	movcc	r2, #4
 8004f56:	9201      	str	r2, [sp, #4]
 8004f58:	9a02      	ldr	r2, [sp, #8]
 8004f5a:	9303      	str	r3, [sp, #12]
 8004f5c:	429a      	cmp	r2, r3
 8004f5e:	d80c      	bhi.n	8004f7a <__multiply+0x9e>
 8004f60:	2e00      	cmp	r6, #0
 8004f62:	dd03      	ble.n	8004f6c <__multiply+0x90>
 8004f64:	f858 3d04 	ldr.w	r3, [r8, #-4]!
 8004f68:	2b00      	cmp	r3, #0
 8004f6a:	d05b      	beq.n	8005024 <__multiply+0x148>
 8004f6c:	6106      	str	r6, [r0, #16]
 8004f6e:	b005      	add	sp, #20
 8004f70:	e8bd 8ff0 	ldmia.w	sp!, {r4, r5, r6, r7, r8, r9, sl, fp, pc}
 8004f74:	f843 2b04 	str.w	r2, [r3], #4
 8004f78:	e7d8      	b.n	8004f2c <__multiply+0x50>
 8004f7a:	f8b3 a000 	ldrh.w	sl, [r3]
 8004f7e:	f1ba 0f00 	cmp.w	sl, #0
 8004f82:	d024      	beq.n	8004fce <__multiply+0xf2>
 8004f84:	f104 0e14 	add.w	lr, r4, #20
 8004f88:	46a9      	mov	r9, r5
 8004f8a:	f04f 0c00 	mov.w	ip, #0
 8004f8e:	f85e 2b04 	ldr.w	r2, [lr], #4
 8004f92:	f8d9 1000 	ldr.w	r1, [r9]
 8004f96:	fa1f fb82 	uxth.w	fp, r2
 8004f9a:	b289      	uxth	r1, r1
 8004f9c:	fb0a 110b 	mla	r1, sl, fp, r1
 8004fa0:	ea4f 4b12 	mov.w	fp, r2, lsr #16
 8004fa4:	f8d9 2000 	ldr.w	r2, [r9]
 8004fa8:	4461      	add	r1, ip
 8004faa:	ea4f 4c12 	mov.w	ip, r2, lsr #16
 8004fae:	fb0a c20b 	mla	r2, sl, fp, ip
 8004fb2:	eb02 4211 	add.w	r2, r2, r1, lsr #16
 8004fb6:	b289      	uxth	r1, r1
 8004fb8:	ea41 4102 	orr.w	r1, r1, r2, lsl #16
 8004fbc:	4577      	cmp	r7, lr
 8004fbe:	f849 1b04 	str.w	r1, [r9], #4
 8004fc2:	ea4f 4c12 	mov.w	ip, r2, lsr #16
 8004fc6:	d8e2      	bhi.n	8004f8e <__multiply+0xb2>
 8004fc8:	9a01      	ldr	r2, [sp, #4]
 8004fca:	f845 c002 	str.w	ip, [r5, r2]
 8004fce:	9a03      	ldr	r2, [sp, #12]
 8004fd0:	f8b2 9002 	ldrh.w	r9, [r2, #2]
 8004fd4:	3304      	adds	r3, #4
 8004fd6:	f1b9 0f00 	cmp.w	r9, #0
 8004fda:	d021      	beq.n	8005020 <__multiply+0x144>
 8004fdc:	6829      	ldr	r1, [r5, #0]
 8004fde:	f104 0c14 	add.w	ip, r4, #20
 8004fe2:	46ae      	mov	lr, r5
 8004fe4:	f04f 0a00 	mov.w	sl, #0
 8004fe8:	f8bc b000 	ldrh.w	fp, [ip]
 8004fec:	f8be 2002 	ldrh.w	r2, [lr, #2]
 8004ff0:	fb09 220b 	mla	r2, r9, fp, r2
 8004ff4:	4452      	add	r2, sl
 8004ff6:	b289      	uxth	r1, r1
 8004ff8:	ea41 4102 	orr.w	r1, r1, r2, lsl #16
 8004ffc:	f84e 1b04 	str.w	r1, [lr], #4
 8005000:	f85c 1b04 	ldr.w	r1, [ip], #4
 8005004:	ea4f 4a11 	mov.w	sl, r1, lsr #16
 8005008:	f8be 1000 	ldrh.w	r1, [lr]
 800500c:	fb09 110a 	mla	r1, r9, sl, r1
 8005010:	eb01 4112 	add.w	r1, r1, r2, lsr #16
 8005014:	4567      	cmp	r7, ip
 8005016:	ea4f 4a11 	mov.w	sl, r1, lsr #16
 800501a:	d8e5      	bhi.n	8004fe8 <__multiply+0x10c>
 800501c:	9a01      	ldr	r2, [sp, #4]
 800501e:	50a9      	str	r1, [r5, r2]
 8005020:	3504      	adds	r5, #4
 8005022:	e799      	b.n	8004f58 <__multiply+0x7c>
 8005024:	3e01      	subs	r6, #1
 8005026:	e79b      	b.n	8004f60 <__multiply+0x84>
 8005028:	080067a7 	.word	0x080067a7
 800502c:	080067b8 	.word	0x080067b8

08005030 <__pow5mult>:
 8005030:	e92d 43f8 	stmdb	sp!, {r3, r4, r5, r6, r7, r8, r9, lr}
 8005034:	4615      	mov	r5, r2
 8005036:	f012 0203 	ands.w	r2, r2, #3
 800503a:	4606      	mov	r6, r0
 800503c:	460f      	mov	r7, r1
 800503e:	d007      	beq.n	8005050 <__pow5mult+0x20>
 8005040:	4c25      	ldr	r4, [pc, #148]	; (80050d8 <__pow5mult+0xa8>)
 8005042:	3a01      	subs	r2, #1
 8005044:	2300      	movs	r3, #0
 8005046:	f854 2022 	ldr.w	r2, [r4, r2, lsl #2]
 800504a:	f7ff fe9d 	bl	8004d88 <__multadd>
 800504e:	4607      	mov	r7, r0
 8005050:	10ad      	asrs	r5, r5, #2
 8005052:	d03d      	beq.n	80050d0 <__pow5mult+0xa0>
 8005054:	69f4      	ldr	r4, [r6, #28]
 8005056:	b97c      	cbnz	r4, 8005078 <__pow5mult+0x48>
 8005058:	2010      	movs	r0, #16
 800505a:	f7ff fd7f 	bl	8004b5c <malloc>
 800505e:	4602      	mov	r2, r0
 8005060:	61f0      	str	r0, [r6, #28]
 8005062:	b928      	cbnz	r0, 8005070 <__pow5mult+0x40>
 8005064:	4b1d      	ldr	r3, [pc, #116]	; (80050dc <__pow5mult+0xac>)
 8005066:	481e      	ldr	r0, [pc, #120]	; (80050e0 <__pow5mult+0xb0>)
 8005068:	f240 11b3 	movw	r1, #435	; 0x1b3
 800506c:	f000 fbe4 	bl	8005838 <__assert_func>
 8005070:	e9c0 4401 	strd	r4, r4, [r0, #4]
 8005074:	6004      	str	r4, [r0, #0]
 8005076:	60c4      	str	r4, [r0, #12]
 8005078:	f8d6 801c 	ldr.w	r8, [r6, #28]
 800507c:	f8d8 4008 	ldr.w	r4, [r8, #8]
 8005080:	b94c      	cbnz	r4, 8005096 <__pow5mult+0x66>
 8005082:	f240 2171 	movw	r1, #625	; 0x271
 8005086:	4630      	mov	r0, r6
 8005088:	f7ff ff12 	bl	8004eb0 <__i2b>
 800508c:	2300      	movs	r3, #0
 800508e:	f8c8 0008 	str.w	r0, [r8, #8]
 8005092:	4604      	mov	r4, r0
 8005094:	6003      	str	r3, [r0, #0]
 8005096:	f04f 0900 	mov.w	r9, #0
 800509a:	07eb      	lsls	r3, r5, #31
 800509c:	d50a      	bpl.n	80050b4 <__pow5mult+0x84>
 800509e:	4639      	mov	r1, r7
 80050a0:	4622      	mov	r2, r4
 80050a2:	4630      	mov	r0, r6
 80050a4:	f7ff ff1a 	bl	8004edc <__multiply>
 80050a8:	4639      	mov	r1, r7
 80050aa:	4680      	mov	r8, r0
 80050ac:	4630      	mov	r0, r6
 80050ae:	f7ff fe49 	bl	8004d44 <_Bfree>
 80050b2:	4647      	mov	r7, r8
 80050b4:	106d      	asrs	r5, r5, #1
 80050b6:	d00b      	beq.n	80050d0 <__pow5mult+0xa0>
 80050b8:	6820      	ldr	r0, [r4, #0]
 80050ba:	b938      	cbnz	r0, 80050cc <__pow5mult+0x9c>
 80050bc:	4622      	mov	r2, r4
 80050be:	4621      	mov	r1, r4
 80050c0:	4630      	mov	r0, r6
 80050c2:	f7ff ff0b 	bl	8004edc <__multiply>
 80050c6:	6020      	str	r0, [r4, #0]
 80050c8:	f8c0 9000 	str.w	r9, [r0]
 80050cc:	4604      	mov	r4, r0
 80050ce:	e7e4      	b.n	800509a <__pow5mult+0x6a>
 80050d0:	4638      	mov	r0, r7
 80050d2:	e8bd 83f8 	ldmia.w	sp!, {r3, r4, r5, r6, r7, r8, r9, pc}
 80050d6:	bf00      	nop
 80050d8:	08006908 	.word	0x08006908
 80050dc:	08006738 	.word	0x08006738
 80050e0:	080067b8 	.word	0x080067b8

080050e4 <__lshift>:
 80050e4:	e92d 47f0 	stmdb	sp!, {r4, r5, r6, r7, r8, r9, sl, lr}
 80050e8:	460c      	mov	r4, r1
 80050ea:	6849      	ldr	r1, [r1, #4]
 80050ec:	6923      	ldr	r3, [r4, #16]
 80050ee:	eb03 1862 	add.w	r8, r3, r2, asr #5
 80050f2:	68a3      	ldr	r3, [r4, #8]
 80050f4:	4607      	mov	r7, r0
 80050f6:	4691      	mov	r9, r2
 80050f8:	ea4f 1a62 	mov.w	sl, r2, asr #5
 80050fc:	f108 0601 	add.w	r6, r8, #1
 8005100:	42b3      	cmp	r3, r6
 8005102:	db0b      	blt.n	800511c <__lshift+0x38>
 8005104:	4638      	mov	r0, r7
 8005106:	f7ff fddd 	bl	8004cc4 <_Balloc>
 800510a:	4605      	mov	r5, r0
 800510c:	b948      	cbnz	r0, 8005122 <__lshift+0x3e>
 800510e:	4602      	mov	r2, r0
 8005110:	4b28      	ldr	r3, [pc, #160]	; (80051b4 <__lshift+0xd0>)
 8005112:	4829      	ldr	r0, [pc, #164]	; (80051b8 <__lshift+0xd4>)
 8005114:	f44f 71ef 	mov.w	r1, #478	; 0x1de
 8005118:	f000 fb8e 	bl	8005838 <__assert_func>
 800511c:	3101      	adds	r1, #1
 800511e:	005b      	lsls	r3, r3, #1
 8005120:	e7ee      	b.n	8005100 <__lshift+0x1c>
 8005122:	2300      	movs	r3, #0
 8005124:	f100 0114 	add.w	r1, r0, #20
 8005128:	f100 0210 	add.w	r2, r0, #16
 800512c:	4618      	mov	r0, r3
 800512e:	4553      	cmp	r3, sl
 8005130:	db33      	blt.n	800519a <__lshift+0xb6>
 8005132:	6920      	ldr	r0, [r4, #16]
 8005134:	ea2a 7aea 	bic.w	sl, sl, sl, asr #31
 8005138:	f104 0314 	add.w	r3, r4, #20
 800513c:	f019 091f 	ands.w	r9, r9, #31
 8005140:	eb01 018a 	add.w	r1, r1, sl, lsl #2
 8005144:	eb03 0c80 	add.w	ip, r3, r0, lsl #2
 8005148:	d02b      	beq.n	80051a2 <__lshift+0xbe>
 800514a:	f1c9 0e20 	rsb	lr, r9, #32
 800514e:	468a      	mov	sl, r1
 8005150:	2200      	movs	r2, #0
 8005152:	6818      	ldr	r0, [r3, #0]
 8005154:	fa00 f009 	lsl.w	r0, r0, r9
 8005158:	4310      	orrs	r0, r2
 800515a:	f84a 0b04 	str.w	r0, [sl], #4
 800515e:	f853 2b04 	ldr.w	r2, [r3], #4
 8005162:	459c      	cmp	ip, r3
 8005164:	fa22 f20e 	lsr.w	r2, r2, lr
 8005168:	d8f3      	bhi.n	8005152 <__lshift+0x6e>
 800516a:	ebac 0304 	sub.w	r3, ip, r4
 800516e:	3b15      	subs	r3, #21
 8005170:	f023 0303 	bic.w	r3, r3, #3
 8005174:	3304      	adds	r3, #4
 8005176:	f104 0015 	add.w	r0, r4, #21
 800517a:	4584      	cmp	ip, r0
 800517c:	bf38      	it	cc
 800517e:	2304      	movcc	r3, #4
 8005180:	50ca      	str	r2, [r1, r3]
 8005182:	b10a      	cbz	r2, 8005188 <__lshift+0xa4>
 8005184:	f108 0602 	add.w	r6, r8, #2
 8005188:	3e01      	subs	r6, #1
 800518a:	4638      	mov	r0, r7
 800518c:	612e      	str	r6, [r5, #16]
 800518e:	4621      	mov	r1, r4
 8005190:	f7ff fdd8 	bl	8004d44 <_Bfree>
 8005194:	4628      	mov	r0, r5
 8005196:	e8bd 87f0 	ldmia.w	sp!, {r4, r5, r6, r7, r8, r9, sl, pc}
 800519a:	f842 0f04 	str.w	r0, [r2, #4]!
 800519e:	3301      	adds	r3, #1
 80051a0:	e7c5      	b.n	800512e <__lshift+0x4a>
 80051a2:	3904      	subs	r1, #4
 80051a4:	f853 2b04 	ldr.w	r2, [r3], #4
 80051a8:	f841 2f04 	str.w	r2, [r1, #4]!
 80051ac:	459c      	cmp	ip, r3
 80051ae:	d8f9      	bhi.n	80051a4 <__lshift+0xc0>
 80051b0:	e7ea      	b.n	8005188 <__lshift+0xa4>
 80051b2:	bf00      	nop
 80051b4:	080067a7 	.word	0x080067a7
 80051b8:	080067b8 	.word	0x080067b8

080051bc <__mcmp>:
 80051bc:	b530      	push	{r4, r5, lr}
 80051be:	6902      	ldr	r2, [r0, #16]
 80051c0:	690c      	ldr	r4, [r1, #16]
 80051c2:	1b12      	subs	r2, r2, r4
 80051c4:	d10e      	bne.n	80051e4 <__mcmp+0x28>
 80051c6:	f100 0314 	add.w	r3, r0, #20
 80051ca:	3114      	adds	r1, #20
 80051cc:	eb03 0084 	add.w	r0, r3, r4, lsl #2
 80051d0:	eb01 0184 	add.w	r1, r1, r4, lsl #2
 80051d4:	f850 5d04 	ldr.w	r5, [r0, #-4]!
 80051d8:	f851 4d04 	ldr.w	r4, [r1, #-4]!
 80051dc:	42a5      	cmp	r5, r4
 80051de:	d003      	beq.n	80051e8 <__mcmp+0x2c>
 80051e0:	d305      	bcc.n	80051ee <__mcmp+0x32>
 80051e2:	2201      	movs	r2, #1
 80051e4:	4610      	mov	r0, r2
 80051e6:	bd30      	pop	{r4, r5, pc}
 80051e8:	4283      	cmp	r3, r0
 80051ea:	d3f3      	bcc.n	80051d4 <__mcmp+0x18>
 80051ec:	e7fa      	b.n	80051e4 <__mcmp+0x28>
 80051ee:	f04f 32ff 	mov.w	r2, #4294967295
 80051f2:	e7f7      	b.n	80051e4 <__mcmp+0x28>

080051f4 <__mdiff>:
 80051f4:	e92d 4ff8 	stmdb	sp!, {r3, r4, r5, r6, r7, r8, r9, sl, fp, lr}
 80051f8:	460c      	mov	r4, r1
 80051fa:	4606      	mov	r6, r0
 80051fc:	4611      	mov	r1, r2
 80051fe:	4620      	mov	r0, r4
 8005200:	4690      	mov	r8, r2
 8005202:	f7ff ffdb 	bl	80051bc <__mcmp>
 8005206:	1e05      	subs	r5, r0, #0
 8005208:	d110      	bne.n	800522c <__mdiff+0x38>
 800520a:	4629      	mov	r1, r5
 800520c:	4630      	mov	r0, r6
 800520e:	f7ff fd59 	bl	8004cc4 <_Balloc>
 8005212:	b930      	cbnz	r0, 8005222 <__mdiff+0x2e>
 8005214:	4b3a      	ldr	r3, [pc, #232]	; (8005300 <__mdiff+0x10c>)
 8005216:	4602      	mov	r2, r0
 8005218:	f240 2137 	movw	r1, #567	; 0x237
 800521c:	4839      	ldr	r0, [pc, #228]	; (8005304 <__mdiff+0x110>)
 800521e:	f000 fb0b 	bl	8005838 <__assert_func>
 8005222:	2301      	movs	r3, #1
 8005224:	e9c0 3504 	strd	r3, r5, [r0, #16]
 8005228:	e8bd 8ff8 	ldmia.w	sp!, {r3, r4, r5, r6, r7, r8, r9, sl, fp, pc}
 800522c:	bfa4      	itt	ge
 800522e:	4643      	movge	r3, r8
 8005230:	46a0      	movge	r8, r4
 8005232:	4630      	mov	r0, r6
 8005234:	f8d8 1004 	ldr.w	r1, [r8, #4]
 8005238:	bfa6      	itte	ge
 800523a:	461c      	movge	r4, r3
 800523c:	2500      	movge	r5, #0
 800523e:	2501      	movlt	r5, #1
 8005240:	f7ff fd40 	bl	8004cc4 <_Balloc>
 8005244:	b920      	cbnz	r0, 8005250 <__mdiff+0x5c>
 8005246:	4b2e      	ldr	r3, [pc, #184]	; (8005300 <__mdiff+0x10c>)
 8005248:	4602      	mov	r2, r0
 800524a:	f240 2145 	movw	r1, #581	; 0x245
 800524e:	e7e5      	b.n	800521c <__mdiff+0x28>
 8005250:	f8d8 7010 	ldr.w	r7, [r8, #16]
 8005254:	6926      	ldr	r6, [r4, #16]
 8005256:	60c5      	str	r5, [r0, #12]
 8005258:	f104 0914 	add.w	r9, r4, #20
 800525c:	f108 0514 	add.w	r5, r8, #20
 8005260:	f100 0e14 	add.w	lr, r0, #20
 8005264:	eb05 0c87 	add.w	ip, r5, r7, lsl #2
 8005268:	eb09 0686 	add.w	r6, r9, r6, lsl #2
 800526c:	f108 0210 	add.w	r2, r8, #16
 8005270:	46f2      	mov	sl, lr
 8005272:	2100      	movs	r1, #0
 8005274:	f859 3b04 	ldr.w	r3, [r9], #4
 8005278:	f852 bf04 	ldr.w	fp, [r2, #4]!
 800527c:	fa11 f88b 	uxtah	r8, r1, fp
 8005280:	b299      	uxth	r1, r3
 8005282:	0c1b      	lsrs	r3, r3, #16
 8005284:	eba8 0801 	sub.w	r8, r8, r1
 8005288:	ebc3 431b 	rsb	r3, r3, fp, lsr #16
 800528c:	eb03 4328 	add.w	r3, r3, r8, asr #16
 8005290:	fa1f f888 	uxth.w	r8, r8
 8005294:	1419      	asrs	r1, r3, #16
 8005296:	454e      	cmp	r6, r9
 8005298:	ea48 4303 	orr.w	r3, r8, r3, lsl #16
 800529c:	f84a 3b04 	str.w	r3, [sl], #4
 80052a0:	d8e8      	bhi.n	8005274 <__mdiff+0x80>
 80052a2:	1b33      	subs	r3, r6, r4
 80052a4:	3b15      	subs	r3, #21
 80052a6:	f023 0303 	bic.w	r3, r3, #3
 80052aa:	3304      	adds	r3, #4
 80052ac:	3415      	adds	r4, #21
 80052ae:	42a6      	cmp	r6, r4
 80052b0:	bf38      	it	cc
 80052b2:	2304      	movcc	r3, #4
 80052b4:	441d      	add	r5, r3
 80052b6:	4473      	add	r3, lr
 80052b8:	469e      	mov	lr, r3
 80052ba:	462e      	mov	r6, r5
 80052bc:	4566      	cmp	r6, ip
 80052be:	d30e      	bcc.n	80052de <__mdiff+0xea>
 80052c0:	f10c 0203 	add.w	r2, ip, #3
 80052c4:	1b52      	subs	r2, r2, r5
 80052c6:	f022 0203 	bic.w	r2, r2, #3
 80052ca:	3d03      	subs	r5, #3
 80052cc:	45ac      	cmp	ip, r5
 80052ce:	bf38      	it	cc
 80052d0:	2200      	movcc	r2, #0
 80052d2:	4413      	add	r3, r2
 80052d4:	f853 2d04 	ldr.w	r2, [r3, #-4]!
 80052d8:	b17a      	cbz	r2, 80052fa <__mdiff+0x106>
 80052da:	6107      	str	r7, [r0, #16]
 80052dc:	e7a4      	b.n	8005228 <__mdiff+0x34>
 80052de:	f856 8b04 	ldr.w	r8, [r6], #4
 80052e2:	fa11 f288 	uxtah	r2, r1, r8
 80052e6:	1414      	asrs	r4, r2, #16
 80052e8:	eb04 4418 	add.w	r4, r4, r8, lsr #16
 80052ec:	b292      	uxth	r2, r2
 80052ee:	ea42 4204 	orr.w	r2, r2, r4, lsl #16
 80052f2:	f84e 2b04 	str.w	r2, [lr], #4
 80052f6:	1421      	asrs	r1, r4, #16
 80052f8:	e7e0      	b.n	80052bc <__mdiff+0xc8>
 80052fa:	3f01      	subs	r7, #1
 80052fc:	e7ea      	b.n	80052d4 <__mdiff+0xe0>
 80052fe:	bf00      	nop
 8005300:	080067a7 	.word	0x080067a7
 8005304:	080067b8 	.word	0x080067b8

08005308 <__d2b>:
 8005308:	e92d 43f7 	stmdb	sp!, {r0, r1, r2, r4, r5, r6, r7, r8, r9, lr}
 800530c:	460f      	mov	r7, r1
 800530e:	2101      	movs	r1, #1
 8005310:	ec59 8b10 	vmov	r8, r9, d0
 8005314:	4616      	mov	r6, r2
 8005316:	f7ff fcd5 	bl	8004cc4 <_Balloc>
 800531a:	4604      	mov	r4, r0
 800531c:	b930      	cbnz	r0, 800532c <__d2b+0x24>
 800531e:	4602      	mov	r2, r0
 8005320:	4b24      	ldr	r3, [pc, #144]	; (80053b4 <__d2b+0xac>)
 8005322:	4825      	ldr	r0, [pc, #148]	; (80053b8 <__d2b+0xb0>)
 8005324:	f240 310f 	movw	r1, #783	; 0x30f
 8005328:	f000 fa86 	bl	8005838 <__assert_func>
 800532c:	f3c9 550a 	ubfx	r5, r9, #20, #11
 8005330:	f3c9 0313 	ubfx	r3, r9, #0, #20
 8005334:	bb2d      	cbnz	r5, 8005382 <__d2b+0x7a>
 8005336:	9301      	str	r3, [sp, #4]
 8005338:	f1b8 0300 	subs.w	r3, r8, #0
 800533c:	d026      	beq.n	800538c <__d2b+0x84>
 800533e:	4668      	mov	r0, sp
 8005340:	9300      	str	r3, [sp, #0]
 8005342:	f7ff fd87 	bl	8004e54 <__lo0bits>
 8005346:	e9dd 1200 	ldrd	r1, r2, [sp]
 800534a:	b1e8      	cbz	r0, 8005388 <__d2b+0x80>
 800534c:	f1c0 0320 	rsb	r3, r0, #32
 8005350:	fa02 f303 	lsl.w	r3, r2, r3
 8005354:	430b      	orrs	r3, r1
 8005356:	40c2      	lsrs	r2, r0
 8005358:	6163      	str	r3, [r4, #20]
 800535a:	9201      	str	r2, [sp, #4]
 800535c:	9b01      	ldr	r3, [sp, #4]
 800535e:	61a3      	str	r3, [r4, #24]
 8005360:	2b00      	cmp	r3, #0
 8005362:	bf14      	ite	ne
 8005364:	2202      	movne	r2, #2
 8005366:	2201      	moveq	r2, #1
 8005368:	6122      	str	r2, [r4, #16]
 800536a:	b1bd      	cbz	r5, 800539c <__d2b+0x94>
 800536c:	f2a5 4533 	subw	r5, r5, #1075	; 0x433
 8005370:	4405      	add	r5, r0
 8005372:	603d      	str	r5, [r7, #0]
 8005374:	f1c0 0035 	rsb	r0, r0, #53	; 0x35
 8005378:	6030      	str	r0, [r6, #0]
 800537a:	4620      	mov	r0, r4
 800537c:	b003      	add	sp, #12
 800537e:	e8bd 83f0 	ldmia.w	sp!, {r4, r5, r6, r7, r8, r9, pc}
 8005382:	f443 1380 	orr.w	r3, r3, #1048576	; 0x100000
 8005386:	e7d6      	b.n	8005336 <__d2b+0x2e>
 8005388:	6161      	str	r1, [r4, #20]
 800538a:	e7e7      	b.n	800535c <__d2b+0x54>
 800538c:	a801      	add	r0, sp, #4
 800538e:	f7ff fd61 	bl	8004e54 <__lo0bits>
 8005392:	9b01      	ldr	r3, [sp, #4]
 8005394:	6163      	str	r3, [r4, #20]
 8005396:	3020      	adds	r0, #32
 8005398:	2201      	movs	r2, #1
 800539a:	e7e5      	b.n	8005368 <__d2b+0x60>
 800539c:	eb04 0382 	add.w	r3, r4, r2, lsl #2
 80053a0:	f2a0 4032 	subw	r0, r0, #1074	; 0x432
 80053a4:	6038      	str	r0, [r7, #0]
 80053a6:	6918      	ldr	r0, [r3, #16]
 80053a8:	f7ff fd34 	bl	8004e14 <__hi0bits>
 80053ac:	ebc0 1042 	rsb	r0, r0, r2, lsl #5
 80053b0:	e7e2      	b.n	8005378 <__d2b+0x70>
 80053b2:	bf00      	nop
 80053b4:	080067a7 	.word	0x080067a7
 80053b8:	080067b8 	.word	0x080067b8

080053bc <__ssputs_r>:
 80053bc:	e92d 47f0 	stmdb	sp!, {r4, r5, r6, r7, r8, r9, sl, lr}
 80053c0:	688e      	ldr	r6, [r1, #8]
 80053c2:	461f      	mov	r7, r3
 80053c4:	42be      	cmp	r6, r7
 80053c6:	680b      	ldr	r3, [r1, #0]
 80053c8:	4682      	mov	sl, r0
 80053ca:	460c      	mov	r4, r1
 80053cc:	4690      	mov	r8, r2
 80053ce:	d82c      	bhi.n	800542a <__ssputs_r+0x6e>
 80053d0:	898a      	ldrh	r2, [r1, #12]
 80053d2:	f412 6f90 	tst.w	r2, #1152	; 0x480
 80053d6:	d026      	beq.n	8005426 <__ssputs_r+0x6a>
 80053d8:	6965      	ldr	r5, [r4, #20]
 80053da:	6909      	ldr	r1, [r1, #16]
 80053dc:	eb05 0545 	add.w	r5, r5, r5, lsl #1
 80053e0:	eba3 0901 	sub.w	r9, r3, r1
 80053e4:	eb05 75d5 	add.w	r5, r5, r5, lsr #31
 80053e8:	1c7b      	adds	r3, r7, #1
 80053ea:	444b      	add	r3, r9
 80053ec:	106d      	asrs	r5, r5, #1
 80053ee:	429d      	cmp	r5, r3
 80053f0:	bf38      	it	cc
 80053f2:	461d      	movcc	r5, r3
 80053f4:	0553      	lsls	r3, r2, #21
 80053f6:	d527      	bpl.n	8005448 <__ssputs_r+0x8c>
 80053f8:	4629      	mov	r1, r5
 80053fa:	f7ff fbd7 	bl	8004bac <_malloc_r>
 80053fe:	4606      	mov	r6, r0
 8005400:	b360      	cbz	r0, 800545c <__ssputs_r+0xa0>
 8005402:	6921      	ldr	r1, [r4, #16]
 8005404:	464a      	mov	r2, r9
 8005406:	f000 fa09 	bl	800581c <memcpy>
 800540a:	89a3      	ldrh	r3, [r4, #12]
 800540c:	f423 6390 	bic.w	r3, r3, #1152	; 0x480
 8005410:	f043 0380 	orr.w	r3, r3, #128	; 0x80
 8005414:	81a3      	strh	r3, [r4, #12]
 8005416:	6126      	str	r6, [r4, #16]
 8005418:	6165      	str	r5, [r4, #20]
 800541a:	444e      	add	r6, r9
 800541c:	eba5 0509 	sub.w	r5, r5, r9
 8005420:	6026      	str	r6, [r4, #0]
 8005422:	60a5      	str	r5, [r4, #8]
 8005424:	463e      	mov	r6, r7
 8005426:	42be      	cmp	r6, r7
 8005428:	d900      	bls.n	800542c <__ssputs_r+0x70>
 800542a:	463e      	mov	r6, r7
 800542c:	6820      	ldr	r0, [r4, #0]
 800542e:	4632      	mov	r2, r6
 8005430:	4641      	mov	r1, r8
 8005432:	f000 f9c9 	bl	80057c8 <memmove>
 8005436:	68a3      	ldr	r3, [r4, #8]
 8005438:	1b9b      	subs	r3, r3, r6
 800543a:	60a3      	str	r3, [r4, #8]
 800543c:	6823      	ldr	r3, [r4, #0]
 800543e:	4433      	add	r3, r6
 8005440:	6023      	str	r3, [r4, #0]
 8005442:	2000      	movs	r0, #0
 8005444:	e8bd 87f0 	ldmia.w	sp!, {r4, r5, r6, r7, r8, r9, sl, pc}
 8005448:	462a      	mov	r2, r5
 800544a:	f000 fa3b 	bl	80058c4 <_realloc_r>
 800544e:	4606      	mov	r6, r0
 8005450:	2800      	cmp	r0, #0
 8005452:	d1e0      	bne.n	8005416 <__ssputs_r+0x5a>
 8005454:	6921      	ldr	r1, [r4, #16]
 8005456:	4650      	mov	r0, sl
 8005458:	f7ff fb34 	bl	8004ac4 <_free_r>
 800545c:	230c      	movs	r3, #12
 800545e:	f8ca 3000 	str.w	r3, [sl]
 8005462:	89a3      	ldrh	r3, [r4, #12]
 8005464:	f043 0340 	orr.w	r3, r3, #64	; 0x40
 8005468:	81a3      	strh	r3, [r4, #12]
 800546a:	f04f 30ff 	mov.w	r0, #4294967295
 800546e:	e7e9      	b.n	8005444 <__ssputs_r+0x88>

08005470 <_svfiprintf_r>:
 8005470:	e92d 4ff0 	stmdb	sp!, {r4, r5, r6, r7, r8, r9, sl, fp, lr}
 8005474:	4698      	mov	r8, r3
 8005476:	898b      	ldrh	r3, [r1, #12]
 8005478:	061b      	lsls	r3, r3, #24
 800547a:	b09d      	sub	sp, #116	; 0x74
 800547c:	4607      	mov	r7, r0
 800547e:	460d      	mov	r5, r1
 8005480:	4614      	mov	r4, r2
 8005482:	d50e      	bpl.n	80054a2 <_svfiprintf_r+0x32>
 8005484:	690b      	ldr	r3, [r1, #16]
 8005486:	b963      	cbnz	r3, 80054a2 <_svfiprintf_r+0x32>
 8005488:	2140      	movs	r1, #64	; 0x40
 800548a:	f7ff fb8f 	bl	8004bac <_malloc_r>
 800548e:	6028      	str	r0, [r5, #0]
 8005490:	6128      	str	r0, [r5, #16]
 8005492:	b920      	cbnz	r0, 800549e <_svfiprintf_r+0x2e>
 8005494:	230c      	movs	r3, #12
 8005496:	603b      	str	r3, [r7, #0]
 8005498:	f04f 30ff 	mov.w	r0, #4294967295
 800549c:	e0d0      	b.n	8005640 <_svfiprintf_r+0x1d0>
 800549e:	2340      	movs	r3, #64	; 0x40
 80054a0:	616b      	str	r3, [r5, #20]
 80054a2:	2300      	movs	r3, #0
 80054a4:	9309      	str	r3, [sp, #36]	; 0x24
 80054a6:	2320      	movs	r3, #32
 80054a8:	f88d 3029 	strb.w	r3, [sp, #41]	; 0x29
 80054ac:	f8cd 800c 	str.w	r8, [sp, #12]
 80054b0:	2330      	movs	r3, #48	; 0x30
 80054b2:	f8df 81a4 	ldr.w	r8, [pc, #420]	; 8005658 <_svfiprintf_r+0x1e8>
 80054b6:	f88d 302a 	strb.w	r3, [sp, #42]	; 0x2a
 80054ba:	f04f 0901 	mov.w	r9, #1
 80054be:	4623      	mov	r3, r4
 80054c0:	469a      	mov	sl, r3
 80054c2:	f813 2b01 	ldrb.w	r2, [r3], #1
 80054c6:	b10a      	cbz	r2, 80054cc <_svfiprintf_r+0x5c>
 80054c8:	2a25      	cmp	r2, #37	; 0x25
 80054ca:	d1f9      	bne.n	80054c0 <_svfiprintf_r+0x50>
 80054cc:	ebba 0b04 	subs.w	fp, sl, r4
 80054d0:	d00b      	beq.n	80054ea <_svfiprintf_r+0x7a>
 80054d2:	465b      	mov	r3, fp
 80054d4:	4622      	mov	r2, r4
 80054d6:	4629      	mov	r1, r5
 80054d8:	4638      	mov	r0, r7
 80054da:	f7ff ff6f 	bl	80053bc <__ssputs_r>
 80054de:	3001      	adds	r0, #1
 80054e0:	f000 80a9 	beq.w	8005636 <_svfiprintf_r+0x1c6>
 80054e4:	9a09      	ldr	r2, [sp, #36]	; 0x24
 80054e6:	445a      	add	r2, fp
 80054e8:	9209      	str	r2, [sp, #36]	; 0x24
 80054ea:	f89a 3000 	ldrb.w	r3, [sl]
 80054ee:	2b00      	cmp	r3, #0
 80054f0:	f000 80a1 	beq.w	8005636 <_svfiprintf_r+0x1c6>
 80054f4:	2300      	movs	r3, #0
 80054f6:	f04f 32ff 	mov.w	r2, #4294967295
 80054fa:	e9cd 2305 	strd	r2, r3, [sp, #20]
 80054fe:	f10a 0a01 	add.w	sl, sl, #1
 8005502:	9304      	str	r3, [sp, #16]
 8005504:	9307      	str	r3, [sp, #28]
 8005506:	f88d 3053 	strb.w	r3, [sp, #83]	; 0x53
 800550a:	931a      	str	r3, [sp, #104]	; 0x68
 800550c:	4654      	mov	r4, sl
 800550e:	2205      	movs	r2, #5
 8005510:	f814 1b01 	ldrb.w	r1, [r4], #1
 8005514:	4850      	ldr	r0, [pc, #320]	; (8005658 <_svfiprintf_r+0x1e8>)
 8005516:	f7fa fe5b 	bl	80001d0 <memchr>
 800551a:	9a04      	ldr	r2, [sp, #16]
 800551c:	b9d8      	cbnz	r0, 8005556 <_svfiprintf_r+0xe6>
 800551e:	06d0      	lsls	r0, r2, #27
 8005520:	bf44      	itt	mi
 8005522:	2320      	movmi	r3, #32
 8005524:	f88d 3053 	strbmi.w	r3, [sp, #83]	; 0x53
 8005528:	0711      	lsls	r1, r2, #28
 800552a:	bf44      	itt	mi
 800552c:	232b      	movmi	r3, #43	; 0x2b
 800552e:	f88d 3053 	strbmi.w	r3, [sp, #83]	; 0x53
 8005532:	f89a 3000 	ldrb.w	r3, [sl]
 8005536:	2b2a      	cmp	r3, #42	; 0x2a
 8005538:	d015      	beq.n	8005566 <_svfiprintf_r+0xf6>
 800553a:	9a07      	ldr	r2, [sp, #28]
 800553c:	4654      	mov	r4, sl
 800553e:	2000      	movs	r0, #0
 8005540:	f04f 0c0a 	mov.w	ip, #10
 8005544:	4621      	mov	r1, r4
 8005546:	f811 3b01 	ldrb.w	r3, [r1], #1
 800554a:	3b30      	subs	r3, #48	; 0x30
 800554c:	2b09      	cmp	r3, #9
 800554e:	d94d      	bls.n	80055ec <_svfiprintf_r+0x17c>
 8005550:	b1b0      	cbz	r0, 8005580 <_svfiprintf_r+0x110>
 8005552:	9207      	str	r2, [sp, #28]
 8005554:	e014      	b.n	8005580 <_svfiprintf_r+0x110>
 8005556:	eba0 0308 	sub.w	r3, r0, r8
 800555a:	fa09 f303 	lsl.w	r3, r9, r3
 800555e:	4313      	orrs	r3, r2
 8005560:	9304      	str	r3, [sp, #16]
 8005562:	46a2      	mov	sl, r4
 8005564:	e7d2      	b.n	800550c <_svfiprintf_r+0x9c>
 8005566:	9b03      	ldr	r3, [sp, #12]
 8005568:	1d19      	adds	r1, r3, #4
 800556a:	681b      	ldr	r3, [r3, #0]
 800556c:	9103      	str	r1, [sp, #12]
 800556e:	2b00      	cmp	r3, #0
 8005570:	bfbb      	ittet	lt
 8005572:	425b      	neglt	r3, r3
 8005574:	f042 0202 	orrlt.w	r2, r2, #2
 8005578:	9307      	strge	r3, [sp, #28]
 800557a:	9307      	strlt	r3, [sp, #28]
 800557c:	bfb8      	it	lt
 800557e:	9204      	strlt	r2, [sp, #16]
 8005580:	7823      	ldrb	r3, [r4, #0]
 8005582:	2b2e      	cmp	r3, #46	; 0x2e
 8005584:	d10c      	bne.n	80055a0 <_svfiprintf_r+0x130>
 8005586:	7863      	ldrb	r3, [r4, #1]
 8005588:	2b2a      	cmp	r3, #42	; 0x2a
 800558a:	d134      	bne.n	80055f6 <_svfiprintf_r+0x186>
 800558c:	9b03      	ldr	r3, [sp, #12]
 800558e:	1d1a      	adds	r2, r3, #4
 8005590:	681b      	ldr	r3, [r3, #0]
 8005592:	9203      	str	r2, [sp, #12]
 8005594:	2b00      	cmp	r3, #0
 8005596:	bfb8      	it	lt
 8005598:	f04f 33ff 	movlt.w	r3, #4294967295
 800559c:	3402      	adds	r4, #2
 800559e:	9305      	str	r3, [sp, #20]
 80055a0:	f8df a0c4 	ldr.w	sl, [pc, #196]	; 8005668 <_svfiprintf_r+0x1f8>
 80055a4:	7821      	ldrb	r1, [r4, #0]
 80055a6:	2203      	movs	r2, #3
 80055a8:	4650      	mov	r0, sl
 80055aa:	f7fa fe11 	bl	80001d0 <memchr>
 80055ae:	b138      	cbz	r0, 80055c0 <_svfiprintf_r+0x150>
 80055b0:	9b04      	ldr	r3, [sp, #16]
 80055b2:	eba0 000a 	sub.w	r0, r0, sl
 80055b6:	2240      	movs	r2, #64	; 0x40
 80055b8:	4082      	lsls	r2, r0
 80055ba:	4313      	orrs	r3, r2
 80055bc:	3401      	adds	r4, #1
 80055be:	9304      	str	r3, [sp, #16]
 80055c0:	f814 1b01 	ldrb.w	r1, [r4], #1
 80055c4:	4825      	ldr	r0, [pc, #148]	; (800565c <_svfiprintf_r+0x1ec>)
 80055c6:	f88d 1028 	strb.w	r1, [sp, #40]	; 0x28
 80055ca:	2206      	movs	r2, #6
 80055cc:	f7fa fe00 	bl	80001d0 <memchr>
 80055d0:	2800      	cmp	r0, #0
 80055d2:	d038      	beq.n	8005646 <_svfiprintf_r+0x1d6>
 80055d4:	4b22      	ldr	r3, [pc, #136]	; (8005660 <_svfiprintf_r+0x1f0>)
 80055d6:	bb1b      	cbnz	r3, 8005620 <_svfiprintf_r+0x1b0>
 80055d8:	9b03      	ldr	r3, [sp, #12]
 80055da:	3307      	adds	r3, #7
 80055dc:	f023 0307 	bic.w	r3, r3, #7
 80055e0:	3308      	adds	r3, #8
 80055e2:	9303      	str	r3, [sp, #12]
 80055e4:	9b09      	ldr	r3, [sp, #36]	; 0x24
 80055e6:	4433      	add	r3, r6
 80055e8:	9309      	str	r3, [sp, #36]	; 0x24
 80055ea:	e768      	b.n	80054be <_svfiprintf_r+0x4e>
 80055ec:	fb0c 3202 	mla	r2, ip, r2, r3
 80055f0:	460c      	mov	r4, r1
 80055f2:	2001      	movs	r0, #1
 80055f4:	e7a6      	b.n	8005544 <_svfiprintf_r+0xd4>
 80055f6:	2300      	movs	r3, #0
 80055f8:	3401      	adds	r4, #1
 80055fa:	9305      	str	r3, [sp, #20]
 80055fc:	4619      	mov	r1, r3
 80055fe:	f04f 0c0a 	mov.w	ip, #10
 8005602:	4620      	mov	r0, r4
 8005604:	f810 2b01 	ldrb.w	r2, [r0], #1
 8005608:	3a30      	subs	r2, #48	; 0x30
 800560a:	2a09      	cmp	r2, #9
 800560c:	d903      	bls.n	8005616 <_svfiprintf_r+0x1a6>
 800560e:	2b00      	cmp	r3, #0
 8005610:	d0c6      	beq.n	80055a0 <_svfiprintf_r+0x130>
 8005612:	9105      	str	r1, [sp, #20]
 8005614:	e7c4      	b.n	80055a0 <_svfiprintf_r+0x130>
 8005616:	fb0c 2101 	mla	r1, ip, r1, r2
 800561a:	4604      	mov	r4, r0
 800561c:	2301      	movs	r3, #1
 800561e:	e7f0      	b.n	8005602 <_svfiprintf_r+0x192>
 8005620:	ab03      	add	r3, sp, #12
 8005622:	9300      	str	r3, [sp, #0]
 8005624:	462a      	mov	r2, r5
 8005626:	4b0f      	ldr	r3, [pc, #60]	; (8005664 <_svfiprintf_r+0x1f4>)
 8005628:	a904      	add	r1, sp, #16
 800562a:	4638      	mov	r0, r7
 800562c:	f7fd fe64 	bl	80032f8 <_printf_float>
 8005630:	1c42      	adds	r2, r0, #1
 8005632:	4606      	mov	r6, r0
 8005634:	d1d6      	bne.n	80055e4 <_svfiprintf_r+0x174>
 8005636:	89ab      	ldrh	r3, [r5, #12]
 8005638:	065b      	lsls	r3, r3, #25
 800563a:	f53f af2d 	bmi.w	8005498 <_svfiprintf_r+0x28>
 800563e:	9809      	ldr	r0, [sp, #36]	; 0x24
 8005640:	b01d      	add	sp, #116	; 0x74
 8005642:	e8bd 8ff0 	ldmia.w	sp!, {r4, r5, r6, r7, r8, r9, sl, fp, pc}
 8005646:	ab03      	add	r3, sp, #12
 8005648:	9300      	str	r3, [sp, #0]
 800564a:	462a      	mov	r2, r5
 800564c:	4b05      	ldr	r3, [pc, #20]	; (8005664 <_svfiprintf_r+0x1f4>)
 800564e:	a904      	add	r1, sp, #16
 8005650:	4638      	mov	r0, r7
 8005652:	f7fe f8f5 	bl	8003840 <_printf_i>
 8005656:	e7eb      	b.n	8005630 <_svfiprintf_r+0x1c0>
 8005658:	08006914 	.word	0x08006914
 800565c:	0800691e 	.word	0x0800691e
 8005660:	080032f9 	.word	0x080032f9
 8005664:	080053bd 	.word	0x080053bd
 8005668:	0800691a 	.word	0x0800691a

0800566c <__sflush_r>:
 800566c:	898a      	ldrh	r2, [r1, #12]
 800566e:	e92d 41f0 	stmdb	sp!, {r4, r5, r6, r7, r8, lr}
 8005672:	4605      	mov	r5, r0
 8005674:	0710      	lsls	r0, r2, #28
 8005676:	460c      	mov	r4, r1
 8005678:	d458      	bmi.n	800572c <__sflush_r+0xc0>
 800567a:	684b      	ldr	r3, [r1, #4]
 800567c:	2b00      	cmp	r3, #0
 800567e:	dc05      	bgt.n	800568c <__sflush_r+0x20>
 8005680:	6c0b      	ldr	r3, [r1, #64]	; 0x40
 8005682:	2b00      	cmp	r3, #0
 8005684:	dc02      	bgt.n	800568c <__sflush_r+0x20>
 8005686:	2000      	movs	r0, #0
 8005688:	e8bd 81f0 	ldmia.w	sp!, {r4, r5, r6, r7, r8, pc}
 800568c:	6ae6      	ldr	r6, [r4, #44]	; 0x2c
 800568e:	2e00      	cmp	r6, #0
 8005690:	d0f9      	beq.n	8005686 <__sflush_r+0x1a>
 8005692:	2300      	movs	r3, #0
 8005694:	f412 5280 	ands.w	r2, r2, #4096	; 0x1000
 8005698:	682f      	ldr	r7, [r5, #0]
 800569a:	6a21      	ldr	r1, [r4, #32]
 800569c:	602b      	str	r3, [r5, #0]
 800569e:	d032      	beq.n	8005706 <__sflush_r+0x9a>
 80056a0:	6d60      	ldr	r0, [r4, #84]	; 0x54
 80056a2:	89a3      	ldrh	r3, [r4, #12]
 80056a4:	075a      	lsls	r2, r3, #29
 80056a6:	d505      	bpl.n	80056b4 <__sflush_r+0x48>
 80056a8:	6863      	ldr	r3, [r4, #4]
 80056aa:	1ac0      	subs	r0, r0, r3
 80056ac:	6b63      	ldr	r3, [r4, #52]	; 0x34
 80056ae:	b10b      	cbz	r3, 80056b4 <__sflush_r+0x48>
 80056b0:	6c23      	ldr	r3, [r4, #64]	; 0x40
 80056b2:	1ac0      	subs	r0, r0, r3
 80056b4:	2300      	movs	r3, #0
 80056b6:	4602      	mov	r2, r0
 80056b8:	6ae6      	ldr	r6, [r4, #44]	; 0x2c
 80056ba:	6a21      	ldr	r1, [r4, #32]
 80056bc:	4628      	mov	r0, r5
 80056be:	47b0      	blx	r6
 80056c0:	1c43      	adds	r3, r0, #1
 80056c2:	89a3      	ldrh	r3, [r4, #12]
 80056c4:	d106      	bne.n	80056d4 <__sflush_r+0x68>
 80056c6:	6829      	ldr	r1, [r5, #0]
 80056c8:	291d      	cmp	r1, #29
 80056ca:	d82b      	bhi.n	8005724 <__sflush_r+0xb8>
 80056cc:	4a29      	ldr	r2, [pc, #164]	; (8005774 <__sflush_r+0x108>)
 80056ce:	410a      	asrs	r2, r1
 80056d0:	07d6      	lsls	r6, r2, #31
 80056d2:	d427      	bmi.n	8005724 <__sflush_r+0xb8>
 80056d4:	2200      	movs	r2, #0
 80056d6:	6062      	str	r2, [r4, #4]
 80056d8:	04d9      	lsls	r1, r3, #19
 80056da:	6922      	ldr	r2, [r4, #16]
 80056dc:	6022      	str	r2, [r4, #0]
 80056de:	d504      	bpl.n	80056ea <__sflush_r+0x7e>
 80056e0:	1c42      	adds	r2, r0, #1
 80056e2:	d101      	bne.n	80056e8 <__sflush_r+0x7c>
 80056e4:	682b      	ldr	r3, [r5, #0]
 80056e6:	b903      	cbnz	r3, 80056ea <__sflush_r+0x7e>
 80056e8:	6560      	str	r0, [r4, #84]	; 0x54
 80056ea:	6b61      	ldr	r1, [r4, #52]	; 0x34
 80056ec:	602f      	str	r7, [r5, #0]
 80056ee:	2900      	cmp	r1, #0
 80056f0:	d0c9      	beq.n	8005686 <__sflush_r+0x1a>
 80056f2:	f104 0344 	add.w	r3, r4, #68	; 0x44
 80056f6:	4299      	cmp	r1, r3
 80056f8:	d002      	beq.n	8005700 <__sflush_r+0x94>
 80056fa:	4628      	mov	r0, r5
 80056fc:	f7ff f9e2 	bl	8004ac4 <_free_r>
 8005700:	2000      	movs	r0, #0
 8005702:	6360      	str	r0, [r4, #52]	; 0x34
 8005704:	e7c0      	b.n	8005688 <__sflush_r+0x1c>
 8005706:	2301      	movs	r3, #1
 8005708:	4628      	mov	r0, r5
 800570a:	47b0      	blx	r6
 800570c:	1c41      	adds	r1, r0, #1
 800570e:	d1c8      	bne.n	80056a2 <__sflush_r+0x36>
 8005710:	682b      	ldr	r3, [r5, #0]
 8005712:	2b00      	cmp	r3, #0
 8005714:	d0c5      	beq.n	80056a2 <__sflush_r+0x36>
 8005716:	2b1d      	cmp	r3, #29
 8005718:	d001      	beq.n	800571e <__sflush_r+0xb2>
 800571a:	2b16      	cmp	r3, #22
 800571c:	d101      	bne.n	8005722 <__sflush_r+0xb6>
 800571e:	602f      	str	r7, [r5, #0]
 8005720:	e7b1      	b.n	8005686 <__sflush_r+0x1a>
 8005722:	89a3      	ldrh	r3, [r4, #12]
 8005724:	f043 0340 	orr.w	r3, r3, #64	; 0x40
 8005728:	81a3      	strh	r3, [r4, #12]
 800572a:	e7ad      	b.n	8005688 <__sflush_r+0x1c>
 800572c:	690f      	ldr	r7, [r1, #16]
 800572e:	2f00      	cmp	r7, #0
 8005730:	d0a9      	beq.n	8005686 <__sflush_r+0x1a>
 8005732:	0793      	lsls	r3, r2, #30
 8005734:	680e      	ldr	r6, [r1, #0]
 8005736:	bf08      	it	eq
 8005738:	694b      	ldreq	r3, [r1, #20]
 800573a:	600f      	str	r7, [r1, #0]
 800573c:	bf18      	it	ne
 800573e:	2300      	movne	r3, #0
 8005740:	eba6 0807 	sub.w	r8, r6, r7
 8005744:	608b      	str	r3, [r1, #8]
 8005746:	f1b8 0f00 	cmp.w	r8, #0
 800574a:	dd9c      	ble.n	8005686 <__sflush_r+0x1a>
 800574c:	6a21      	ldr	r1, [r4, #32]
 800574e:	6aa6      	ldr	r6, [r4, #40]	; 0x28
 8005750:	4643      	mov	r3, r8
 8005752:	463a      	mov	r2, r7
 8005754:	4628      	mov	r0, r5
 8005756:	47b0      	blx	r6
 8005758:	2800      	cmp	r0, #0
 800575a:	dc06      	bgt.n	800576a <__sflush_r+0xfe>
 800575c:	89a3      	ldrh	r3, [r4, #12]
 800575e:	f043 0340 	orr.w	r3, r3, #64	; 0x40
 8005762:	81a3      	strh	r3, [r4, #12]
 8005764:	f04f 30ff 	mov.w	r0, #4294967295
 8005768:	e78e      	b.n	8005688 <__sflush_r+0x1c>
 800576a:	4407      	add	r7, r0
 800576c:	eba8 0800 	sub.w	r8, r8, r0
 8005770:	e7e9      	b.n	8005746 <__sflush_r+0xda>
 8005772:	bf00      	nop
 8005774:	dfbffffe 	.word	0xdfbffffe

08005778 <_fflush_r>:
 8005778:	b538      	push	{r3, r4, r5, lr}
 800577a:	690b      	ldr	r3, [r1, #16]
 800577c:	4605      	mov	r5, r0
 800577e:	460c      	mov	r4, r1
 8005780:	b913      	cbnz	r3, 8005788 <_fflush_r+0x10>
 8005782:	2500      	movs	r5, #0
 8005784:	4628      	mov	r0, r5
 8005786:	bd38      	pop	{r3, r4, r5, pc}
 8005788:	b118      	cbz	r0, 8005792 <_fflush_r+0x1a>
 800578a:	6a03      	ldr	r3, [r0, #32]
 800578c:	b90b      	cbnz	r3, 8005792 <_fflush_r+0x1a>
 800578e:	f7fe fa05 	bl	8003b9c <__sinit>
 8005792:	f9b4 300c 	ldrsh.w	r3, [r4, #12]
 8005796:	2b00      	cmp	r3, #0
 8005798:	d0f3      	beq.n	8005782 <_fflush_r+0xa>
 800579a:	6e62      	ldr	r2, [r4, #100]	; 0x64
 800579c:	07d0      	lsls	r0, r2, #31
 800579e:	d404      	bmi.n	80057aa <_fflush_r+0x32>
 80057a0:	0599      	lsls	r1, r3, #22
 80057a2:	d402      	bmi.n	80057aa <_fflush_r+0x32>
 80057a4:	6da0      	ldr	r0, [r4, #88]	; 0x58
 80057a6:	f7fe fb10 	bl	8003dca <__retarget_lock_acquire_recursive>
 80057aa:	4628      	mov	r0, r5
 80057ac:	4621      	mov	r1, r4
 80057ae:	f7ff ff5d 	bl	800566c <__sflush_r>
 80057b2:	6e63      	ldr	r3, [r4, #100]	; 0x64
 80057b4:	07da      	lsls	r2, r3, #31
 80057b6:	4605      	mov	r5, r0
 80057b8:	d4e4      	bmi.n	8005784 <_fflush_r+0xc>
 80057ba:	89a3      	ldrh	r3, [r4, #12]
 80057bc:	059b      	lsls	r3, r3, #22
 80057be:	d4e1      	bmi.n	8005784 <_fflush_r+0xc>
 80057c0:	6da0      	ldr	r0, [r4, #88]	; 0x58
 80057c2:	f7fe fb03 	bl	8003dcc <__retarget_lock_release_recursive>
 80057c6:	e7dd      	b.n	8005784 <_fflush_r+0xc>

080057c8 <memmove>:
 80057c8:	4288      	cmp	r0, r1
 80057ca:	b510      	push	{r4, lr}
 80057cc:	eb01 0402 	add.w	r4, r1, r2
 80057d0:	d902      	bls.n	80057d8 <memmove+0x10>
 80057d2:	4284      	cmp	r4, r0
 80057d4:	4623      	mov	r3, r4
 80057d6:	d807      	bhi.n	80057e8 <memmove+0x20>
 80057d8:	1e43      	subs	r3, r0, #1
 80057da:	42a1      	cmp	r1, r4
 80057dc:	d008      	beq.n	80057f0 <memmove+0x28>
 80057de:	f811 2b01 	ldrb.w	r2, [r1], #1
 80057e2:	f803 2f01 	strb.w	r2, [r3, #1]!
 80057e6:	e7f8      	b.n	80057da <memmove+0x12>
 80057e8:	4402      	add	r2, r0
 80057ea:	4601      	mov	r1, r0
 80057ec:	428a      	cmp	r2, r1
 80057ee:	d100      	bne.n	80057f2 <memmove+0x2a>
 80057f0:	bd10      	pop	{r4, pc}
 80057f2:	f813 4d01 	ldrb.w	r4, [r3, #-1]!
 80057f6:	f802 4d01 	strb.w	r4, [r2, #-1]!
 80057fa:	e7f7      	b.n	80057ec <memmove+0x24>

080057fc <_sbrk_r>:
 80057fc:	b538      	push	{r3, r4, r5, lr}
 80057fe:	4d06      	ldr	r5, [pc, #24]	; (8005818 <_sbrk_r+0x1c>)
 8005800:	2300      	movs	r3, #0
 8005802:	4604      	mov	r4, r0
 8005804:	4608      	mov	r0, r1
 8005806:	602b      	str	r3, [r5, #0]
 8005808:	f7fc ff86 	bl	8002718 <_sbrk>
 800580c:	1c43      	adds	r3, r0, #1
 800580e:	d102      	bne.n	8005816 <_sbrk_r+0x1a>
 8005810:	682b      	ldr	r3, [r5, #0]
 8005812:	b103      	cbz	r3, 8005816 <_sbrk_r+0x1a>
 8005814:	6023      	str	r3, [r4, #0]
 8005816:	bd38      	pop	{r3, r4, r5, pc}
 8005818:	200005ac 	.word	0x200005ac

0800581c <memcpy>:
 800581c:	440a      	add	r2, r1
 800581e:	4291      	cmp	r1, r2
 8005820:	f100 33ff 	add.w	r3, r0, #4294967295
 8005824:	d100      	bne.n	8005828 <memcpy+0xc>
 8005826:	4770      	bx	lr
 8005828:	b510      	push	{r4, lr}
 800582a:	f811 4b01 	ldrb.w	r4, [r1], #1
 800582e:	f803 4f01 	strb.w	r4, [r3, #1]!
 8005832:	4291      	cmp	r1, r2
 8005834:	d1f9      	bne.n	800582a <memcpy+0xe>
 8005836:	bd10      	pop	{r4, pc}

08005838 <__assert_func>:
 8005838:	b51f      	push	{r0, r1, r2, r3, r4, lr}
 800583a:	4614      	mov	r4, r2
 800583c:	461a      	mov	r2, r3
 800583e:	4b09      	ldr	r3, [pc, #36]	; (8005864 <__assert_func+0x2c>)
 8005840:	681b      	ldr	r3, [r3, #0]
 8005842:	4605      	mov	r5, r0
 8005844:	68d8      	ldr	r0, [r3, #12]
 8005846:	b14c      	cbz	r4, 800585c <__assert_func+0x24>
 8005848:	4b07      	ldr	r3, [pc, #28]	; (8005868 <__assert_func+0x30>)
 800584a:	9100      	str	r1, [sp, #0]
 800584c:	e9cd 3401 	strd	r3, r4, [sp, #4]
 8005850:	4906      	ldr	r1, [pc, #24]	; (800586c <__assert_func+0x34>)
 8005852:	462b      	mov	r3, r5
 8005854:	f000 f872 	bl	800593c <fiprintf>
 8005858:	f000 f882 	bl	8005960 <abort>
 800585c:	4b04      	ldr	r3, [pc, #16]	; (8005870 <__assert_func+0x38>)
 800585e:	461c      	mov	r4, r3
 8005860:	e7f3      	b.n	800584a <__assert_func+0x12>
 8005862:	bf00      	nop
 8005864:	2000005c 	.word	0x2000005c
 8005868:	0800692f 	.word	0x0800692f
 800586c:	0800693c 	.word	0x0800693c
 8005870:	0800696a 	.word	0x0800696a

08005874 <_calloc_r>:
 8005874:	b537      	push	{r0, r1, r2, r4, r5, lr}
 8005876:	fba1 2402 	umull	r2, r4, r1, r2
 800587a:	b94c      	cbnz	r4, 8005890 <_calloc_r+0x1c>
 800587c:	4611      	mov	r1, r2
 800587e:	9201      	str	r2, [sp, #4]
 8005880:	f7ff f994 	bl	8004bac <_malloc_r>
 8005884:	9a01      	ldr	r2, [sp, #4]
 8005886:	4605      	mov	r5, r0
 8005888:	b930      	cbnz	r0, 8005898 <_calloc_r+0x24>
 800588a:	4628      	mov	r0, r5
 800588c:	b003      	add	sp, #12
 800588e:	bd30      	pop	{r4, r5, pc}
 8005890:	220c      	movs	r2, #12
 8005892:	6002      	str	r2, [r0, #0]
 8005894:	2500      	movs	r5, #0
 8005896:	e7f8      	b.n	800588a <_calloc_r+0x16>
 8005898:	4621      	mov	r1, r4
 800589a:	f7fe fa18 	bl	8003cce <memset>
 800589e:	e7f4      	b.n	800588a <_calloc_r+0x16>

080058a0 <__ascii_mbtowc>:
 80058a0:	b082      	sub	sp, #8
 80058a2:	b901      	cbnz	r1, 80058a6 <__ascii_mbtowc+0x6>
 80058a4:	a901      	add	r1, sp, #4
 80058a6:	b142      	cbz	r2, 80058ba <__ascii_mbtowc+0x1a>
 80058a8:	b14b      	cbz	r3, 80058be <__ascii_mbtowc+0x1e>
 80058aa:	7813      	ldrb	r3, [r2, #0]
 80058ac:	600b      	str	r3, [r1, #0]
 80058ae:	7812      	ldrb	r2, [r2, #0]
 80058b0:	1e10      	subs	r0, r2, #0
 80058b2:	bf18      	it	ne
 80058b4:	2001      	movne	r0, #1
 80058b6:	b002      	add	sp, #8
 80058b8:	4770      	bx	lr
 80058ba:	4610      	mov	r0, r2
 80058bc:	e7fb      	b.n	80058b6 <__ascii_mbtowc+0x16>
 80058be:	f06f 0001 	mvn.w	r0, #1
 80058c2:	e7f8      	b.n	80058b6 <__ascii_mbtowc+0x16>

080058c4 <_realloc_r>:
 80058c4:	e92d 41f0 	stmdb	sp!, {r4, r5, r6, r7, r8, lr}
 80058c8:	4680      	mov	r8, r0
 80058ca:	4614      	mov	r4, r2
 80058cc:	460e      	mov	r6, r1
 80058ce:	b921      	cbnz	r1, 80058da <_realloc_r+0x16>
 80058d0:	e8bd 41f0 	ldmia.w	sp!, {r4, r5, r6, r7, r8, lr}
 80058d4:	4611      	mov	r1, r2
 80058d6:	f7ff b969 	b.w	8004bac <_malloc_r>
 80058da:	b92a      	cbnz	r2, 80058e8 <_realloc_r+0x24>
 80058dc:	f7ff f8f2 	bl	8004ac4 <_free_r>
 80058e0:	4625      	mov	r5, r4
 80058e2:	4628      	mov	r0, r5
 80058e4:	e8bd 81f0 	ldmia.w	sp!, {r4, r5, r6, r7, r8, pc}
 80058e8:	f000 f841 	bl	800596e <_malloc_usable_size_r>
 80058ec:	4284      	cmp	r4, r0
 80058ee:	4607      	mov	r7, r0
 80058f0:	d802      	bhi.n	80058f8 <_realloc_r+0x34>
 80058f2:	ebb4 0f50 	cmp.w	r4, r0, lsr #1
 80058f6:	d812      	bhi.n	800591e <_realloc_r+0x5a>
 80058f8:	4621      	mov	r1, r4
 80058fa:	4640      	mov	r0, r8
 80058fc:	f7ff f956 	bl	8004bac <_malloc_r>
 8005900:	4605      	mov	r5, r0
 8005902:	2800      	cmp	r0, #0
 8005904:	d0ed      	beq.n	80058e2 <_realloc_r+0x1e>
 8005906:	42bc      	cmp	r4, r7
 8005908:	4622      	mov	r2, r4
 800590a:	4631      	mov	r1, r6
 800590c:	bf28      	it	cs
 800590e:	463a      	movcs	r2, r7
 8005910:	f7ff ff84 	bl	800581c <memcpy>
 8005914:	4631      	mov	r1, r6
 8005916:	4640      	mov	r0, r8
 8005918:	f7ff f8d4 	bl	8004ac4 <_free_r>
 800591c:	e7e1      	b.n	80058e2 <_realloc_r+0x1e>
 800591e:	4635      	mov	r5, r6
 8005920:	e7df      	b.n	80058e2 <_realloc_r+0x1e>

08005922 <__ascii_wctomb>:
 8005922:	b149      	cbz	r1, 8005938 <__ascii_wctomb+0x16>
 8005924:	2aff      	cmp	r2, #255	; 0xff
 8005926:	bf85      	ittet	hi
 8005928:	238a      	movhi	r3, #138	; 0x8a
 800592a:	6003      	strhi	r3, [r0, #0]
 800592c:	700a      	strbls	r2, [r1, #0]
 800592e:	f04f 30ff 	movhi.w	r0, #4294967295
 8005932:	bf98      	it	ls
 8005934:	2001      	movls	r0, #1
 8005936:	4770      	bx	lr
 8005938:	4608      	mov	r0, r1
 800593a:	4770      	bx	lr

0800593c <fiprintf>:
 800593c:	b40e      	push	{r1, r2, r3}
 800593e:	b503      	push	{r0, r1, lr}
 8005940:	4601      	mov	r1, r0
 8005942:	ab03      	add	r3, sp, #12
 8005944:	4805      	ldr	r0, [pc, #20]	; (800595c <fiprintf+0x20>)
 8005946:	f853 2b04 	ldr.w	r2, [r3], #4
 800594a:	6800      	ldr	r0, [r0, #0]
 800594c:	9301      	str	r3, [sp, #4]
 800594e:	f000 f83f 	bl	80059d0 <_vfiprintf_r>
 8005952:	b002      	add	sp, #8
 8005954:	f85d eb04 	ldr.w	lr, [sp], #4
 8005958:	b003      	add	sp, #12
 800595a:	4770      	bx	lr
 800595c:	2000005c 	.word	0x2000005c

08005960 <abort>:
 8005960:	b508      	push	{r3, lr}
 8005962:	2006      	movs	r0, #6
 8005964:	f000 fa0c 	bl	8005d80 <raise>
 8005968:	2001      	movs	r0, #1
 800596a:	f7fc fe5d 	bl	8002628 <_exit>

0800596e <_malloc_usable_size_r>:
 800596e:	f851 3c04 	ldr.w	r3, [r1, #-4]
 8005972:	1f18      	subs	r0, r3, #4
 8005974:	2b00      	cmp	r3, #0
 8005976:	bfbc      	itt	lt
 8005978:	580b      	ldrlt	r3, [r1, r0]
 800597a:	18c0      	addlt	r0, r0, r3
 800597c:	4770      	bx	lr

0800597e <__sfputc_r>:
 800597e:	6893      	ldr	r3, [r2, #8]
 8005980:	3b01      	subs	r3, #1
 8005982:	2b00      	cmp	r3, #0
 8005984:	b410      	push	{r4}
 8005986:	6093      	str	r3, [r2, #8]
 8005988:	da08      	bge.n	800599c <__sfputc_r+0x1e>
 800598a:	6994      	ldr	r4, [r2, #24]
 800598c:	42a3      	cmp	r3, r4
 800598e:	db01      	blt.n	8005994 <__sfputc_r+0x16>
 8005990:	290a      	cmp	r1, #10
 8005992:	d103      	bne.n	800599c <__sfputc_r+0x1e>
 8005994:	f85d 4b04 	ldr.w	r4, [sp], #4
 8005998:	f000 b934 	b.w	8005c04 <__swbuf_r>
 800599c:	6813      	ldr	r3, [r2, #0]
 800599e:	1c58      	adds	r0, r3, #1
 80059a0:	6010      	str	r0, [r2, #0]
 80059a2:	7019      	strb	r1, [r3, #0]
 80059a4:	4608      	mov	r0, r1
 80059a6:	f85d 4b04 	ldr.w	r4, [sp], #4
 80059aa:	4770      	bx	lr

080059ac <__sfputs_r>:
 80059ac:	b5f8      	push	{r3, r4, r5, r6, r7, lr}
 80059ae:	4606      	mov	r6, r0
 80059b0:	460f      	mov	r7, r1
 80059b2:	4614      	mov	r4, r2
 80059b4:	18d5      	adds	r5, r2, r3
 80059b6:	42ac      	cmp	r4, r5
 80059b8:	d101      	bne.n	80059be <__sfputs_r+0x12>
 80059ba:	2000      	movs	r0, #0
 80059bc:	e007      	b.n	80059ce <__sfputs_r+0x22>
 80059be:	f814 1b01 	ldrb.w	r1, [r4], #1
 80059c2:	463a      	mov	r2, r7
 80059c4:	4630      	mov	r0, r6
 80059c6:	f7ff ffda 	bl	800597e <__sfputc_r>
 80059ca:	1c43      	adds	r3, r0, #1
 80059cc:	d1f3      	bne.n	80059b6 <__sfputs_r+0xa>
 80059ce:	bdf8      	pop	{r3, r4, r5, r6, r7, pc}

080059d0 <_vfiprintf_r>:
 80059d0:	e92d 4ff0 	stmdb	sp!, {r4, r5, r6, r7, r8, r9, sl, fp, lr}
 80059d4:	460d      	mov	r5, r1
 80059d6:	b09d      	sub	sp, #116	; 0x74
 80059d8:	4614      	mov	r4, r2
 80059da:	4698      	mov	r8, r3
 80059dc:	4606      	mov	r6, r0
 80059de:	b118      	cbz	r0, 80059e8 <_vfiprintf_r+0x18>
 80059e0:	6a03      	ldr	r3, [r0, #32]
 80059e2:	b90b      	cbnz	r3, 80059e8 <_vfiprintf_r+0x18>
 80059e4:	f7fe f8da 	bl	8003b9c <__sinit>
 80059e8:	6e6b      	ldr	r3, [r5, #100]	; 0x64
 80059ea:	07d9      	lsls	r1, r3, #31
 80059ec:	d405      	bmi.n	80059fa <_vfiprintf_r+0x2a>
 80059ee:	89ab      	ldrh	r3, [r5, #12]
 80059f0:	059a      	lsls	r2, r3, #22
 80059f2:	d402      	bmi.n	80059fa <_vfiprintf_r+0x2a>
 80059f4:	6da8      	ldr	r0, [r5, #88]	; 0x58
 80059f6:	f7fe f9e8 	bl	8003dca <__retarget_lock_acquire_recursive>
 80059fa:	89ab      	ldrh	r3, [r5, #12]
 80059fc:	071b      	lsls	r3, r3, #28
 80059fe:	d501      	bpl.n	8005a04 <_vfiprintf_r+0x34>
 8005a00:	692b      	ldr	r3, [r5, #16]
 8005a02:	b99b      	cbnz	r3, 8005a2c <_vfiprintf_r+0x5c>
 8005a04:	4629      	mov	r1, r5
 8005a06:	4630      	mov	r0, r6
 8005a08:	f000 f93a 	bl	8005c80 <__swsetup_r>
 8005a0c:	b170      	cbz	r0, 8005a2c <_vfiprintf_r+0x5c>
 8005a0e:	6e6b      	ldr	r3, [r5, #100]	; 0x64
 8005a10:	07dc      	lsls	r4, r3, #31
 8005a12:	d504      	bpl.n	8005a1e <_vfiprintf_r+0x4e>
 8005a14:	f04f 30ff 	mov.w	r0, #4294967295
 8005a18:	b01d      	add	sp, #116	; 0x74
 8005a1a:	e8bd 8ff0 	ldmia.w	sp!, {r4, r5, r6, r7, r8, r9, sl, fp, pc}
 8005a1e:	89ab      	ldrh	r3, [r5, #12]
 8005a20:	0598      	lsls	r0, r3, #22
 8005a22:	d4f7      	bmi.n	8005a14 <_vfiprintf_r+0x44>
 8005a24:	6da8      	ldr	r0, [r5, #88]	; 0x58
 8005a26:	f7fe f9d1 	bl	8003dcc <__retarget_lock_release_recursive>
 8005a2a:	e7f3      	b.n	8005a14 <_vfiprintf_r+0x44>
 8005a2c:	2300      	movs	r3, #0
 8005a2e:	9309      	str	r3, [sp, #36]	; 0x24
 8005a30:	2320      	movs	r3, #32
 8005a32:	f88d 3029 	strb.w	r3, [sp, #41]	; 0x29
 8005a36:	f8cd 800c 	str.w	r8, [sp, #12]
 8005a3a:	2330      	movs	r3, #48	; 0x30
 8005a3c:	f8df 81b0 	ldr.w	r8, [pc, #432]	; 8005bf0 <_vfiprintf_r+0x220>
 8005a40:	f88d 302a 	strb.w	r3, [sp, #42]	; 0x2a
 8005a44:	f04f 0901 	mov.w	r9, #1
 8005a48:	4623      	mov	r3, r4
 8005a4a:	469a      	mov	sl, r3
 8005a4c:	f813 2b01 	ldrb.w	r2, [r3], #1
 8005a50:	b10a      	cbz	r2, 8005a56 <_vfiprintf_r+0x86>
 8005a52:	2a25      	cmp	r2, #37	; 0x25
 8005a54:	d1f9      	bne.n	8005a4a <_vfiprintf_r+0x7a>
 8005a56:	ebba 0b04 	subs.w	fp, sl, r4
 8005a5a:	d00b      	beq.n	8005a74 <_vfiprintf_r+0xa4>
 8005a5c:	465b      	mov	r3, fp
 8005a5e:	4622      	mov	r2, r4
 8005a60:	4629      	mov	r1, r5
 8005a62:	4630      	mov	r0, r6
 8005a64:	f7ff ffa2 	bl	80059ac <__sfputs_r>
 8005a68:	3001      	adds	r0, #1
 8005a6a:	f000 80a9 	beq.w	8005bc0 <_vfiprintf_r+0x1f0>
 8005a6e:	9a09      	ldr	r2, [sp, #36]	; 0x24
 8005a70:	445a      	add	r2, fp
 8005a72:	9209      	str	r2, [sp, #36]	; 0x24
 8005a74:	f89a 3000 	ldrb.w	r3, [sl]
 8005a78:	2b00      	cmp	r3, #0
 8005a7a:	f000 80a1 	beq.w	8005bc0 <_vfiprintf_r+0x1f0>
 8005a7e:	2300      	movs	r3, #0
 8005a80:	f04f 32ff 	mov.w	r2, #4294967295
 8005a84:	e9cd 2305 	strd	r2, r3, [sp, #20]
 8005a88:	f10a 0a01 	add.w	sl, sl, #1
 8005a8c:	9304      	str	r3, [sp, #16]
 8005a8e:	9307      	str	r3, [sp, #28]
 8005a90:	f88d 3053 	strb.w	r3, [sp, #83]	; 0x53
 8005a94:	931a      	str	r3, [sp, #104]	; 0x68
 8005a96:	4654      	mov	r4, sl
 8005a98:	2205      	movs	r2, #5
 8005a9a:	f814 1b01 	ldrb.w	r1, [r4], #1
 8005a9e:	4854      	ldr	r0, [pc, #336]	; (8005bf0 <_vfiprintf_r+0x220>)
 8005aa0:	f7fa fb96 	bl	80001d0 <memchr>
 8005aa4:	9a04      	ldr	r2, [sp, #16]
 8005aa6:	b9d8      	cbnz	r0, 8005ae0 <_vfiprintf_r+0x110>
 8005aa8:	06d1      	lsls	r1, r2, #27
 8005aaa:	bf44      	itt	mi
 8005aac:	2320      	movmi	r3, #32
 8005aae:	f88d 3053 	strbmi.w	r3, [sp, #83]	; 0x53
 8005ab2:	0713      	lsls	r3, r2, #28
 8005ab4:	bf44      	itt	mi
 8005ab6:	232b      	movmi	r3, #43	; 0x2b
 8005ab8:	f88d 3053 	strbmi.w	r3, [sp, #83]	; 0x53
 8005abc:	f89a 3000 	ldrb.w	r3, [sl]
 8005ac0:	2b2a      	cmp	r3, #42	; 0x2a
 8005ac2:	d015      	beq.n	8005af0 <_vfiprintf_r+0x120>
 8005ac4:	9a07      	ldr	r2, [sp, #28]
 8005ac6:	4654      	mov	r4, sl
 8005ac8:	2000      	movs	r0, #0
 8005aca:	f04f 0c0a 	mov.w	ip, #10
 8005ace:	4621      	mov	r1, r4
 8005ad0:	f811 3b01 	ldrb.w	r3, [r1], #1
 8005ad4:	3b30      	subs	r3, #48	; 0x30
 8005ad6:	2b09      	cmp	r3, #9
 8005ad8:	d94d      	bls.n	8005b76 <_vfiprintf_r+0x1a6>
 8005ada:	b1b0      	cbz	r0, 8005b0a <_vfiprintf_r+0x13a>
 8005adc:	9207      	str	r2, [sp, #28]
 8005ade:	e014      	b.n	8005b0a <_vfiprintf_r+0x13a>
 8005ae0:	eba0 0308 	sub.w	r3, r0, r8
 8005ae4:	fa09 f303 	lsl.w	r3, r9, r3
 8005ae8:	4313      	orrs	r3, r2
 8005aea:	9304      	str	r3, [sp, #16]
 8005aec:	46a2      	mov	sl, r4
 8005aee:	e7d2      	b.n	8005a96 <_vfiprintf_r+0xc6>
 8005af0:	9b03      	ldr	r3, [sp, #12]
 8005af2:	1d19      	adds	r1, r3, #4
 8005af4:	681b      	ldr	r3, [r3, #0]
 8005af6:	9103      	str	r1, [sp, #12]
 8005af8:	2b00      	cmp	r3, #0
 8005afa:	bfbb      	ittet	lt
 8005afc:	425b      	neglt	r3, r3
 8005afe:	f042 0202 	orrlt.w	r2, r2, #2
 8005b02:	9307      	strge	r3, [sp, #28]
 8005b04:	9307      	strlt	r3, [sp, #28]
 8005b06:	bfb8      	it	lt
 8005b08:	9204      	strlt	r2, [sp, #16]
 8005b0a:	7823      	ldrb	r3, [r4, #0]
 8005b0c:	2b2e      	cmp	r3, #46	; 0x2e
 8005b0e:	d10c      	bne.n	8005b2a <_vfiprintf_r+0x15a>
 8005b10:	7863      	ldrb	r3, [r4, #1]
 8005b12:	2b2a      	cmp	r3, #42	; 0x2a
 8005b14:	d134      	bne.n	8005b80 <_vfiprintf_r+0x1b0>
 8005b16:	9b03      	ldr	r3, [sp, #12]
 8005b18:	1d1a      	adds	r2, r3, #4
 8005b1a:	681b      	ldr	r3, [r3, #0]
 8005b1c:	9203      	str	r2, [sp, #12]
 8005b1e:	2b00      	cmp	r3, #0
 8005b20:	bfb8      	it	lt
 8005b22:	f04f 33ff 	movlt.w	r3, #4294967295
 8005b26:	3402      	adds	r4, #2
 8005b28:	9305      	str	r3, [sp, #20]
 8005b2a:	f8df a0d4 	ldr.w	sl, [pc, #212]	; 8005c00 <_vfiprintf_r+0x230>
 8005b2e:	7821      	ldrb	r1, [r4, #0]
 8005b30:	2203      	movs	r2, #3
 8005b32:	4650      	mov	r0, sl
 8005b34:	f7fa fb4c 	bl	80001d0 <memchr>
 8005b38:	b138      	cbz	r0, 8005b4a <_vfiprintf_r+0x17a>
 8005b3a:	9b04      	ldr	r3, [sp, #16]
 8005b3c:	eba0 000a 	sub.w	r0, r0, sl
 8005b40:	2240      	movs	r2, #64	; 0x40
 8005b42:	4082      	lsls	r2, r0
 8005b44:	4313      	orrs	r3, r2
 8005b46:	3401      	adds	r4, #1
 8005b48:	9304      	str	r3, [sp, #16]
 8005b4a:	f814 1b01 	ldrb.w	r1, [r4], #1
 8005b4e:	4829      	ldr	r0, [pc, #164]	; (8005bf4 <_vfiprintf_r+0x224>)
 8005b50:	f88d 1028 	strb.w	r1, [sp, #40]	; 0x28
 8005b54:	2206      	movs	r2, #6
 8005b56:	f7fa fb3b 	bl	80001d0 <memchr>
 8005b5a:	2800      	cmp	r0, #0
 8005b5c:	d03f      	beq.n	8005bde <_vfiprintf_r+0x20e>
 8005b5e:	4b26      	ldr	r3, [pc, #152]	; (8005bf8 <_vfiprintf_r+0x228>)
 8005b60:	bb1b      	cbnz	r3, 8005baa <_vfiprintf_r+0x1da>
 8005b62:	9b03      	ldr	r3, [sp, #12]
 8005b64:	3307      	adds	r3, #7
 8005b66:	f023 0307 	bic.w	r3, r3, #7
 8005b6a:	3308      	adds	r3, #8
 8005b6c:	9303      	str	r3, [sp, #12]
 8005b6e:	9b09      	ldr	r3, [sp, #36]	; 0x24
 8005b70:	443b      	add	r3, r7
 8005b72:	9309      	str	r3, [sp, #36]	; 0x24
 8005b74:	e768      	b.n	8005a48 <_vfiprintf_r+0x78>
 8005b76:	fb0c 3202 	mla	r2, ip, r2, r3
 8005b7a:	460c      	mov	r4, r1
 8005b7c:	2001      	movs	r0, #1
 8005b7e:	e7a6      	b.n	8005ace <_vfiprintf_r+0xfe>
 8005b80:	2300      	movs	r3, #0
 8005b82:	3401      	adds	r4, #1
 8005b84:	9305      	str	r3, [sp, #20]
 8005b86:	4619      	mov	r1, r3
 8005b88:	f04f 0c0a 	mov.w	ip, #10
 8005b8c:	4620      	mov	r0, r4
 8005b8e:	f810 2b01 	ldrb.w	r2, [r0], #1
 8005b92:	3a30      	subs	r2, #48	; 0x30
 8005b94:	2a09      	cmp	r2, #9
 8005b96:	d903      	bls.n	8005ba0 <_vfiprintf_r+0x1d0>
 8005b98:	2b00      	cmp	r3, #0
 8005b9a:	d0c6      	beq.n	8005b2a <_vfiprintf_r+0x15a>
 8005b9c:	9105      	str	r1, [sp, #20]
 8005b9e:	e7c4      	b.n	8005b2a <_vfiprintf_r+0x15a>
 8005ba0:	fb0c 2101 	mla	r1, ip, r1, r2
 8005ba4:	4604      	mov	r4, r0
 8005ba6:	2301      	movs	r3, #1
 8005ba8:	e7f0      	b.n	8005b8c <_vfiprintf_r+0x1bc>
 8005baa:	ab03      	add	r3, sp, #12
 8005bac:	9300      	str	r3, [sp, #0]
 8005bae:	462a      	mov	r2, r5
 8005bb0:	4b12      	ldr	r3, [pc, #72]	; (8005bfc <_vfiprintf_r+0x22c>)
 8005bb2:	a904      	add	r1, sp, #16
 8005bb4:	4630      	mov	r0, r6
 8005bb6:	f7fd fb9f 	bl	80032f8 <_printf_float>
 8005bba:	4607      	mov	r7, r0
 8005bbc:	1c78      	adds	r0, r7, #1
 8005bbe:	d1d6      	bne.n	8005b6e <_vfiprintf_r+0x19e>
 8005bc0:	6e6b      	ldr	r3, [r5, #100]	; 0x64
 8005bc2:	07d9      	lsls	r1, r3, #31
 8005bc4:	d405      	bmi.n	8005bd2 <_vfiprintf_r+0x202>
 8005bc6:	89ab      	ldrh	r3, [r5, #12]
 8005bc8:	059a      	lsls	r2, r3, #22
 8005bca:	d402      	bmi.n	8005bd2 <_vfiprintf_r+0x202>
 8005bcc:	6da8      	ldr	r0, [r5, #88]	; 0x58
 8005bce:	f7fe f8fd 	bl	8003dcc <__retarget_lock_release_recursive>
 8005bd2:	89ab      	ldrh	r3, [r5, #12]
 8005bd4:	065b      	lsls	r3, r3, #25
 8005bd6:	f53f af1d 	bmi.w	8005a14 <_vfiprintf_r+0x44>
 8005bda:	9809      	ldr	r0, [sp, #36]	; 0x24
 8005bdc:	e71c      	b.n	8005a18 <_vfiprintf_r+0x48>
 8005bde:	ab03      	add	r3, sp, #12
 8005be0:	9300      	str	r3, [sp, #0]
 8005be2:	462a      	mov	r2, r5
 8005be4:	4b05      	ldr	r3, [pc, #20]	; (8005bfc <_vfiprintf_r+0x22c>)
 8005be6:	a904      	add	r1, sp, #16
 8005be8:	4630      	mov	r0, r6
 8005bea:	f7fd fe29 	bl	8003840 <_printf_i>
 8005bee:	e7e4      	b.n	8005bba <_vfiprintf_r+0x1ea>
 8005bf0:	08006914 	.word	0x08006914
 8005bf4:	0800691e 	.word	0x0800691e
 8005bf8:	080032f9 	.word	0x080032f9
 8005bfc:	080059ad 	.word	0x080059ad
 8005c00:	0800691a 	.word	0x0800691a

08005c04 <__swbuf_r>:
 8005c04:	b5f8      	push	{r3, r4, r5, r6, r7, lr}
 8005c06:	460e      	mov	r6, r1
 8005c08:	4614      	mov	r4, r2
 8005c0a:	4605      	mov	r5, r0
 8005c0c:	b118      	cbz	r0, 8005c16 <__swbuf_r+0x12>
 8005c0e:	6a03      	ldr	r3, [r0, #32]
 8005c10:	b90b      	cbnz	r3, 8005c16 <__swbuf_r+0x12>
 8005c12:	f7fd ffc3 	bl	8003b9c <__sinit>
 8005c16:	69a3      	ldr	r3, [r4, #24]
 8005c18:	60a3      	str	r3, [r4, #8]
 8005c1a:	89a3      	ldrh	r3, [r4, #12]
 8005c1c:	071a      	lsls	r2, r3, #28
 8005c1e:	d525      	bpl.n	8005c6c <__swbuf_r+0x68>
 8005c20:	6923      	ldr	r3, [r4, #16]
 8005c22:	b31b      	cbz	r3, 8005c6c <__swbuf_r+0x68>
 8005c24:	6823      	ldr	r3, [r4, #0]
 8005c26:	6922      	ldr	r2, [r4, #16]
 8005c28:	1a98      	subs	r0, r3, r2
 8005c2a:	6963      	ldr	r3, [r4, #20]
 8005c2c:	b2f6      	uxtb	r6, r6
 8005c2e:	4283      	cmp	r3, r0
 8005c30:	4637      	mov	r7, r6
 8005c32:	dc04      	bgt.n	8005c3e <__swbuf_r+0x3a>
 8005c34:	4621      	mov	r1, r4
 8005c36:	4628      	mov	r0, r5
 8005c38:	f7ff fd9e 	bl	8005778 <_fflush_r>
 8005c3c:	b9e0      	cbnz	r0, 8005c78 <__swbuf_r+0x74>
 8005c3e:	68a3      	ldr	r3, [r4, #8]
 8005c40:	3b01      	subs	r3, #1
 8005c42:	60a3      	str	r3, [r4, #8]
 8005c44:	6823      	ldr	r3, [r4, #0]
 8005c46:	1c5a      	adds	r2, r3, #1
 8005c48:	6022      	str	r2, [r4, #0]
 8005c4a:	701e      	strb	r6, [r3, #0]
 8005c4c:	6962      	ldr	r2, [r4, #20]
 8005c4e:	1c43      	adds	r3, r0, #1
 8005c50:	429a      	cmp	r2, r3
 8005c52:	d004      	beq.n	8005c5e <__swbuf_r+0x5a>
 8005c54:	89a3      	ldrh	r3, [r4, #12]
 8005c56:	07db      	lsls	r3, r3, #31
 8005c58:	d506      	bpl.n	8005c68 <__swbuf_r+0x64>
 8005c5a:	2e0a      	cmp	r6, #10
 8005c5c:	d104      	bne.n	8005c68 <__swbuf_r+0x64>
 8005c5e:	4621      	mov	r1, r4
 8005c60:	4628      	mov	r0, r5
 8005c62:	f7ff fd89 	bl	8005778 <_fflush_r>
 8005c66:	b938      	cbnz	r0, 8005c78 <__swbuf_r+0x74>
 8005c68:	4638      	mov	r0, r7
 8005c6a:	bdf8      	pop	{r3, r4, r5, r6, r7, pc}
 8005c6c:	4621      	mov	r1, r4
 8005c6e:	4628      	mov	r0, r5
 8005c70:	f000 f806 	bl	8005c80 <__swsetup_r>
 8005c74:	2800      	cmp	r0, #0
 8005c76:	d0d5      	beq.n	8005c24 <__swbuf_r+0x20>
 8005c78:	f04f 37ff 	mov.w	r7, #4294967295
 8005c7c:	e7f4      	b.n	8005c68 <__swbuf_r+0x64>
	...

08005c80 <__swsetup_r>:
 8005c80:	b538      	push	{r3, r4, r5, lr}
 8005c82:	4b2a      	ldr	r3, [pc, #168]	; (8005d2c <__swsetup_r+0xac>)
 8005c84:	4605      	mov	r5, r0
 8005c86:	6818      	ldr	r0, [r3, #0]
 8005c88:	460c      	mov	r4, r1
 8005c8a:	b118      	cbz	r0, 8005c94 <__swsetup_r+0x14>
 8005c8c:	6a03      	ldr	r3, [r0, #32]
 8005c8e:	b90b      	cbnz	r3, 8005c94 <__swsetup_r+0x14>
 8005c90:	f7fd ff84 	bl	8003b9c <__sinit>
 8005c94:	89a3      	ldrh	r3, [r4, #12]
 8005c96:	f9b4 200c 	ldrsh.w	r2, [r4, #12]
 8005c9a:	0718      	lsls	r0, r3, #28
 8005c9c:	d422      	bmi.n	8005ce4 <__swsetup_r+0x64>
 8005c9e:	06d9      	lsls	r1, r3, #27
 8005ca0:	d407      	bmi.n	8005cb2 <__swsetup_r+0x32>
 8005ca2:	2309      	movs	r3, #9
 8005ca4:	602b      	str	r3, [r5, #0]
 8005ca6:	f042 0340 	orr.w	r3, r2, #64	; 0x40
 8005caa:	81a3      	strh	r3, [r4, #12]
 8005cac:	f04f 30ff 	mov.w	r0, #4294967295
 8005cb0:	e034      	b.n	8005d1c <__swsetup_r+0x9c>
 8005cb2:	0758      	lsls	r0, r3, #29
 8005cb4:	d512      	bpl.n	8005cdc <__swsetup_r+0x5c>
 8005cb6:	6b61      	ldr	r1, [r4, #52]	; 0x34
 8005cb8:	b141      	cbz	r1, 8005ccc <__swsetup_r+0x4c>
 8005cba:	f104 0344 	add.w	r3, r4, #68	; 0x44
 8005cbe:	4299      	cmp	r1, r3
 8005cc0:	d002      	beq.n	8005cc8 <__swsetup_r+0x48>
 8005cc2:	4628      	mov	r0, r5
 8005cc4:	f7fe fefe 	bl	8004ac4 <_free_r>
 8005cc8:	2300      	movs	r3, #0
 8005cca:	6363      	str	r3, [r4, #52]	; 0x34
 8005ccc:	89a3      	ldrh	r3, [r4, #12]
 8005cce:	f023 0324 	bic.w	r3, r3, #36	; 0x24
 8005cd2:	81a3      	strh	r3, [r4, #12]
 8005cd4:	2300      	movs	r3, #0
 8005cd6:	6063      	str	r3, [r4, #4]
 8005cd8:	6923      	ldr	r3, [r4, #16]
 8005cda:	6023      	str	r3, [r4, #0]
 8005cdc:	89a3      	ldrh	r3, [r4, #12]
 8005cde:	f043 0308 	orr.w	r3, r3, #8
 8005ce2:	81a3      	strh	r3, [r4, #12]
 8005ce4:	6923      	ldr	r3, [r4, #16]
 8005ce6:	b94b      	cbnz	r3, 8005cfc <__swsetup_r+0x7c>
 8005ce8:	89a3      	ldrh	r3, [r4, #12]
 8005cea:	f403 7320 	and.w	r3, r3, #640	; 0x280
 8005cee:	f5b3 7f00 	cmp.w	r3, #512	; 0x200
 8005cf2:	d003      	beq.n	8005cfc <__swsetup_r+0x7c>
 8005cf4:	4621      	mov	r1, r4
 8005cf6:	4628      	mov	r0, r5
 8005cf8:	f000 f884 	bl	8005e04 <__smakebuf_r>
 8005cfc:	89a0      	ldrh	r0, [r4, #12]
 8005cfe:	f9b4 200c 	ldrsh.w	r2, [r4, #12]
 8005d02:	f010 0301 	ands.w	r3, r0, #1
 8005d06:	d00a      	beq.n	8005d1e <__swsetup_r+0x9e>
 8005d08:	2300      	movs	r3, #0
 8005d0a:	60a3      	str	r3, [r4, #8]
 8005d0c:	6963      	ldr	r3, [r4, #20]
 8005d0e:	425b      	negs	r3, r3
 8005d10:	61a3      	str	r3, [r4, #24]
 8005d12:	6923      	ldr	r3, [r4, #16]
 8005d14:	b943      	cbnz	r3, 8005d28 <__swsetup_r+0xa8>
 8005d16:	f010 0080 	ands.w	r0, r0, #128	; 0x80
 8005d1a:	d1c4      	bne.n	8005ca6 <__swsetup_r+0x26>
 8005d1c:	bd38      	pop	{r3, r4, r5, pc}
 8005d1e:	0781      	lsls	r1, r0, #30
 8005d20:	bf58      	it	pl
 8005d22:	6963      	ldrpl	r3, [r4, #20]
 8005d24:	60a3      	str	r3, [r4, #8]
 8005d26:	e7f4      	b.n	8005d12 <__swsetup_r+0x92>
 8005d28:	2000      	movs	r0, #0
 8005d2a:	e7f7      	b.n	8005d1c <__swsetup_r+0x9c>
 8005d2c:	2000005c 	.word	0x2000005c

08005d30 <_raise_r>:
 8005d30:	291f      	cmp	r1, #31
 8005d32:	b538      	push	{r3, r4, r5, lr}
 8005d34:	4604      	mov	r4, r0
 8005d36:	460d      	mov	r5, r1
 8005d38:	d904      	bls.n	8005d44 <_raise_r+0x14>
 8005d3a:	2316      	movs	r3, #22
 8005d3c:	6003      	str	r3, [r0, #0]
 8005d3e:	f04f 30ff 	mov.w	r0, #4294967295
 8005d42:	bd38      	pop	{r3, r4, r5, pc}
 8005d44:	6bc2      	ldr	r2, [r0, #60]	; 0x3c
 8005d46:	b112      	cbz	r2, 8005d4e <_raise_r+0x1e>
 8005d48:	f852 3021 	ldr.w	r3, [r2, r1, lsl #2]
 8005d4c:	b94b      	cbnz	r3, 8005d62 <_raise_r+0x32>
 8005d4e:	4620      	mov	r0, r4
 8005d50:	f000 f830 	bl	8005db4 <_getpid_r>
 8005d54:	462a      	mov	r2, r5
 8005d56:	4601      	mov	r1, r0
 8005d58:	4620      	mov	r0, r4
 8005d5a:	e8bd 4038 	ldmia.w	sp!, {r3, r4, r5, lr}
 8005d5e:	f000 b817 	b.w	8005d90 <_kill_r>
 8005d62:	2b01      	cmp	r3, #1
 8005d64:	d00a      	beq.n	8005d7c <_raise_r+0x4c>
 8005d66:	1c59      	adds	r1, r3, #1
 8005d68:	d103      	bne.n	8005d72 <_raise_r+0x42>
 8005d6a:	2316      	movs	r3, #22
 8005d6c:	6003      	str	r3, [r0, #0]
 8005d6e:	2001      	movs	r0, #1
 8005d70:	e7e7      	b.n	8005d42 <_raise_r+0x12>
 8005d72:	2400      	movs	r4, #0
 8005d74:	f842 4025 	str.w	r4, [r2, r5, lsl #2]
 8005d78:	4628      	mov	r0, r5
 8005d7a:	4798      	blx	r3
 8005d7c:	2000      	movs	r0, #0
 8005d7e:	e7e0      	b.n	8005d42 <_raise_r+0x12>

08005d80 <raise>:
 8005d80:	4b02      	ldr	r3, [pc, #8]	; (8005d8c <raise+0xc>)
 8005d82:	4601      	mov	r1, r0
 8005d84:	6818      	ldr	r0, [r3, #0]
 8005d86:	f7ff bfd3 	b.w	8005d30 <_raise_r>
 8005d8a:	bf00      	nop
 8005d8c:	2000005c 	.word	0x2000005c

08005d90 <_kill_r>:
 8005d90:	b538      	push	{r3, r4, r5, lr}
 8005d92:	4d07      	ldr	r5, [pc, #28]	; (8005db0 <_kill_r+0x20>)
 8005d94:	2300      	movs	r3, #0
 8005d96:	4604      	mov	r4, r0
 8005d98:	4608      	mov	r0, r1
 8005d9a:	4611      	mov	r1, r2
 8005d9c:	602b      	str	r3, [r5, #0]
 8005d9e:	f7fc fc33 	bl	8002608 <_kill>
 8005da2:	1c43      	adds	r3, r0, #1
 8005da4:	d102      	bne.n	8005dac <_kill_r+0x1c>
 8005da6:	682b      	ldr	r3, [r5, #0]
 8005da8:	b103      	cbz	r3, 8005dac <_kill_r+0x1c>
 8005daa:	6023      	str	r3, [r4, #0]
 8005dac:	bd38      	pop	{r3, r4, r5, pc}
 8005dae:	bf00      	nop
 8005db0:	200005ac 	.word	0x200005ac

08005db4 <_getpid_r>:
 8005db4:	f7fc bc20 	b.w	80025f8 <_getpid>

08005db8 <__swhatbuf_r>:
 8005db8:	b570      	push	{r4, r5, r6, lr}
 8005dba:	460c      	mov	r4, r1
 8005dbc:	f9b1 100e 	ldrsh.w	r1, [r1, #14]
 8005dc0:	2900      	cmp	r1, #0
 8005dc2:	b096      	sub	sp, #88	; 0x58
 8005dc4:	4615      	mov	r5, r2
 8005dc6:	461e      	mov	r6, r3
 8005dc8:	da0d      	bge.n	8005de6 <__swhatbuf_r+0x2e>
 8005dca:	89a3      	ldrh	r3, [r4, #12]
 8005dcc:	f013 0f80 	tst.w	r3, #128	; 0x80
 8005dd0:	f04f 0100 	mov.w	r1, #0
 8005dd4:	bf0c      	ite	eq
 8005dd6:	f44f 6380 	moveq.w	r3, #1024	; 0x400
 8005dda:	2340      	movne	r3, #64	; 0x40
 8005ddc:	2000      	movs	r0, #0
 8005dde:	6031      	str	r1, [r6, #0]
 8005de0:	602b      	str	r3, [r5, #0]
 8005de2:	b016      	add	sp, #88	; 0x58
 8005de4:	bd70      	pop	{r4, r5, r6, pc}
 8005de6:	466a      	mov	r2, sp
 8005de8:	f000 f848 	bl	8005e7c <_fstat_r>
 8005dec:	2800      	cmp	r0, #0
 8005dee:	dbec      	blt.n	8005dca <__swhatbuf_r+0x12>
 8005df0:	9901      	ldr	r1, [sp, #4]
 8005df2:	f401 4170 	and.w	r1, r1, #61440	; 0xf000
 8005df6:	f5a1 5300 	sub.w	r3, r1, #8192	; 0x2000
 8005dfa:	4259      	negs	r1, r3
 8005dfc:	4159      	adcs	r1, r3
 8005dfe:	f44f 6380 	mov.w	r3, #1024	; 0x400
 8005e02:	e7eb      	b.n	8005ddc <__swhatbuf_r+0x24>

08005e04 <__smakebuf_r>:
 8005e04:	898b      	ldrh	r3, [r1, #12]
 8005e06:	b573      	push	{r0, r1, r4, r5, r6, lr}
 8005e08:	079d      	lsls	r5, r3, #30
 8005e0a:	4606      	mov	r6, r0
 8005e0c:	460c      	mov	r4, r1
 8005e0e:	d507      	bpl.n	8005e20 <__smakebuf_r+0x1c>
 8005e10:	f104 0347 	add.w	r3, r4, #71	; 0x47
 8005e14:	6023      	str	r3, [r4, #0]
 8005e16:	6123      	str	r3, [r4, #16]
 8005e18:	2301      	movs	r3, #1
 8005e1a:	6163      	str	r3, [r4, #20]
 8005e1c:	b002      	add	sp, #8
 8005e1e:	bd70      	pop	{r4, r5, r6, pc}
 8005e20:	ab01      	add	r3, sp, #4
 8005e22:	466a      	mov	r2, sp
 8005e24:	f7ff ffc8 	bl	8005db8 <__swhatbuf_r>
 8005e28:	9900      	ldr	r1, [sp, #0]
 8005e2a:	4605      	mov	r5, r0
 8005e2c:	4630      	mov	r0, r6
 8005e2e:	f7fe febd 	bl	8004bac <_malloc_r>
 8005e32:	b948      	cbnz	r0, 8005e48 <__smakebuf_r+0x44>
 8005e34:	f9b4 300c 	ldrsh.w	r3, [r4, #12]
 8005e38:	059a      	lsls	r2, r3, #22
 8005e3a:	d4ef      	bmi.n	8005e1c <__smakebuf_r+0x18>
 8005e3c:	f023 0303 	bic.w	r3, r3, #3
 8005e40:	f043 0302 	orr.w	r3, r3, #2
 8005e44:	81a3      	strh	r3, [r4, #12]
 8005e46:	e7e3      	b.n	8005e10 <__smakebuf_r+0xc>
 8005e48:	89a3      	ldrh	r3, [r4, #12]
 8005e4a:	6020      	str	r0, [r4, #0]
 8005e4c:	f043 0380 	orr.w	r3, r3, #128	; 0x80
 8005e50:	81a3      	strh	r3, [r4, #12]
 8005e52:	9b00      	ldr	r3, [sp, #0]
 8005e54:	6163      	str	r3, [r4, #20]
 8005e56:	9b01      	ldr	r3, [sp, #4]
 8005e58:	6120      	str	r0, [r4, #16]
 8005e5a:	b15b      	cbz	r3, 8005e74 <__smakebuf_r+0x70>
 8005e5c:	f9b4 100e 	ldrsh.w	r1, [r4, #14]
 8005e60:	4630      	mov	r0, r6
 8005e62:	f000 f81d 	bl	8005ea0 <_isatty_r>
 8005e66:	b128      	cbz	r0, 8005e74 <__smakebuf_r+0x70>
 8005e68:	89a3      	ldrh	r3, [r4, #12]
 8005e6a:	f023 0303 	bic.w	r3, r3, #3
 8005e6e:	f043 0301 	orr.w	r3, r3, #1
 8005e72:	81a3      	strh	r3, [r4, #12]
 8005e74:	89a3      	ldrh	r3, [r4, #12]
 8005e76:	431d      	orrs	r5, r3
 8005e78:	81a5      	strh	r5, [r4, #12]
 8005e7a:	e7cf      	b.n	8005e1c <__smakebuf_r+0x18>

08005e7c <_fstat_r>:
 8005e7c:	b538      	push	{r3, r4, r5, lr}
 8005e7e:	4d07      	ldr	r5, [pc, #28]	; (8005e9c <_fstat_r+0x20>)
 8005e80:	2300      	movs	r3, #0
 8005e82:	4604      	mov	r4, r0
 8005e84:	4608      	mov	r0, r1
 8005e86:	4611      	mov	r1, r2
 8005e88:	602b      	str	r3, [r5, #0]
 8005e8a:	f7fc fc1c 	bl	80026c6 <_fstat>
 8005e8e:	1c43      	adds	r3, r0, #1
 8005e90:	d102      	bne.n	8005e98 <_fstat_r+0x1c>
 8005e92:	682b      	ldr	r3, [r5, #0]
 8005e94:	b103      	cbz	r3, 8005e98 <_fstat_r+0x1c>
 8005e96:	6023      	str	r3, [r4, #0]
 8005e98:	bd38      	pop	{r3, r4, r5, pc}
 8005e9a:	bf00      	nop
 8005e9c:	200005ac 	.word	0x200005ac

08005ea0 <_isatty_r>:
 8005ea0:	b538      	push	{r3, r4, r5, lr}
 8005ea2:	4d06      	ldr	r5, [pc, #24]	; (8005ebc <_isatty_r+0x1c>)
 8005ea4:	2300      	movs	r3, #0
 8005ea6:	4604      	mov	r4, r0
 8005ea8:	4608      	mov	r0, r1
 8005eaa:	602b      	str	r3, [r5, #0]
 8005eac:	f7fc fc1b 	bl	80026e6 <_isatty>
 8005eb0:	1c43      	adds	r3, r0, #1
 8005eb2:	d102      	bne.n	8005eba <_isatty_r+0x1a>
 8005eb4:	682b      	ldr	r3, [r5, #0]
 8005eb6:	b103      	cbz	r3, 8005eba <_isatty_r+0x1a>
 8005eb8:	6023      	str	r3, [r4, #0]
 8005eba:	bd38      	pop	{r3, r4, r5, pc}
 8005ebc:	200005ac 	.word	0x200005ac

08005ec0 <powf>:
 8005ec0:	b508      	push	{r3, lr}
 8005ec2:	ed2d 8b04 	vpush	{d8-d9}
 8005ec6:	eeb0 8a60 	vmov.f32	s16, s1
 8005eca:	eeb0 9a40 	vmov.f32	s18, s0
 8005ece:	f000 f85b 	bl	8005f88 <__ieee754_powf>
 8005ed2:	eeb4 8a48 	vcmp.f32	s16, s16
 8005ed6:	eef1 fa10 	vmrs	APSR_nzcv, fpscr
 8005eda:	eef0 8a40 	vmov.f32	s17, s0
 8005ede:	d63e      	bvs.n	8005f5e <powf+0x9e>
 8005ee0:	eeb5 9a40 	vcmp.f32	s18, #0.0
 8005ee4:	eef1 fa10 	vmrs	APSR_nzcv, fpscr
 8005ee8:	d112      	bne.n	8005f10 <powf+0x50>
 8005eea:	eeb5 8a40 	vcmp.f32	s16, #0.0
 8005eee:	eef1 fa10 	vmrs	APSR_nzcv, fpscr
 8005ef2:	d039      	beq.n	8005f68 <powf+0xa8>
 8005ef4:	eeb0 0a48 	vmov.f32	s0, s16
 8005ef8:	f000 f839 	bl	8005f6e <finitef>
 8005efc:	b378      	cbz	r0, 8005f5e <powf+0x9e>
 8005efe:	eeb5 8ac0 	vcmpe.f32	s16, #0.0
 8005f02:	eef1 fa10 	vmrs	APSR_nzcv, fpscr
 8005f06:	d52a      	bpl.n	8005f5e <powf+0x9e>
 8005f08:	f7fd ff34 	bl	8003d74 <__errno>
 8005f0c:	2322      	movs	r3, #34	; 0x22
 8005f0e:	e014      	b.n	8005f3a <powf+0x7a>
 8005f10:	f000 f82d 	bl	8005f6e <finitef>
 8005f14:	b998      	cbnz	r0, 8005f3e <powf+0x7e>
 8005f16:	eeb0 0a49 	vmov.f32	s0, s18
 8005f1a:	f000 f828 	bl	8005f6e <finitef>
 8005f1e:	b170      	cbz	r0, 8005f3e <powf+0x7e>
 8005f20:	eeb0 0a48 	vmov.f32	s0, s16
 8005f24:	f000 f823 	bl	8005f6e <finitef>
 8005f28:	b148      	cbz	r0, 8005f3e <powf+0x7e>
 8005f2a:	eef4 8a68 	vcmp.f32	s17, s17
 8005f2e:	eef1 fa10 	vmrs	APSR_nzcv, fpscr
 8005f32:	d7e9      	bvc.n	8005f08 <powf+0x48>
 8005f34:	f7fd ff1e 	bl	8003d74 <__errno>
 8005f38:	2321      	movs	r3, #33	; 0x21
 8005f3a:	6003      	str	r3, [r0, #0]
 8005f3c:	e00f      	b.n	8005f5e <powf+0x9e>
 8005f3e:	eef5 8a40 	vcmp.f32	s17, #0.0
 8005f42:	eef1 fa10 	vmrs	APSR_nzcv, fpscr
 8005f46:	d10a      	bne.n	8005f5e <powf+0x9e>
 8005f48:	eeb0 0a49 	vmov.f32	s0, s18
 8005f4c:	f000 f80f 	bl	8005f6e <finitef>
 8005f50:	b128      	cbz	r0, 8005f5e <powf+0x9e>
 8005f52:	eeb0 0a48 	vmov.f32	s0, s16
 8005f56:	f000 f80a 	bl	8005f6e <finitef>
 8005f5a:	2800      	cmp	r0, #0
 8005f5c:	d1d4      	bne.n	8005f08 <powf+0x48>
 8005f5e:	eeb0 0a68 	vmov.f32	s0, s17
 8005f62:	ecbd 8b04 	vpop	{d8-d9}
 8005f66:	bd08      	pop	{r3, pc}
 8005f68:	eef7 8a00 	vmov.f32	s17, #112	; 0x3f800000  1.0
 8005f6c:	e7f7      	b.n	8005f5e <powf+0x9e>

08005f6e <finitef>:
 8005f6e:	b082      	sub	sp, #8
 8005f70:	ed8d 0a01 	vstr	s0, [sp, #4]
 8005f74:	9801      	ldr	r0, [sp, #4]
 8005f76:	f020 4000 	bic.w	r0, r0, #2147483648	; 0x80000000
 8005f7a:	f1b0 4fff 	cmp.w	r0, #2139095040	; 0x7f800000
 8005f7e:	bfac      	ite	ge
 8005f80:	2000      	movge	r0, #0
 8005f82:	2001      	movlt	r0, #1
 8005f84:	b002      	add	sp, #8
 8005f86:	4770      	bx	lr

08005f88 <__ieee754_powf>:
 8005f88:	e92d 41f0 	stmdb	sp!, {r4, r5, r6, r7, r8, lr}
 8005f8c:	ee10 4a90 	vmov	r4, s1
 8005f90:	f034 4800 	bics.w	r8, r4, #2147483648	; 0x80000000
 8005f94:	ed2d 8b02 	vpush	{d8}
 8005f98:	ee10 7a10 	vmov	r7, s0
 8005f9c:	eeb0 8a40 	vmov.f32	s16, s0
 8005fa0:	eef0 8a60 	vmov.f32	s17, s1
 8005fa4:	d10c      	bne.n	8005fc0 <__ieee754_powf+0x38>
 8005fa6:	f487 0780 	eor.w	r7, r7, #4194304	; 0x400000
 8005faa:	007f      	lsls	r7, r7, #1
 8005fac:	f517 0f00 	cmn.w	r7, #8388608	; 0x800000
 8005fb0:	f240 8292 	bls.w	80064d8 <__ieee754_powf+0x550>
 8005fb4:	ee38 0a28 	vadd.f32	s0, s16, s17
 8005fb8:	ecbd 8b02 	vpop	{d8}
 8005fbc:	e8bd 81f0 	ldmia.w	sp!, {r4, r5, r6, r7, r8, pc}
 8005fc0:	f027 4500 	bic.w	r5, r7, #2147483648	; 0x80000000
 8005fc4:	f1b5 4fff 	cmp.w	r5, #2139095040	; 0x7f800000
 8005fc8:	dcf4      	bgt.n	8005fb4 <__ieee754_powf+0x2c>
 8005fca:	f1b8 4fff 	cmp.w	r8, #2139095040	; 0x7f800000
 8005fce:	dd08      	ble.n	8005fe2 <__ieee754_powf+0x5a>
 8005fd0:	f1b7 5f7e 	cmp.w	r7, #1065353216	; 0x3f800000
 8005fd4:	d1ee      	bne.n	8005fb4 <__ieee754_powf+0x2c>
 8005fd6:	f484 0480 	eor.w	r4, r4, #4194304	; 0x400000
 8005fda:	0064      	lsls	r4, r4, #1
 8005fdc:	f514 0f00 	cmn.w	r4, #8388608	; 0x800000
 8005fe0:	e7e6      	b.n	8005fb0 <__ieee754_powf+0x28>
 8005fe2:	2f00      	cmp	r7, #0
 8005fe4:	da20      	bge.n	8006028 <__ieee754_powf+0xa0>
 8005fe6:	f1b8 4f97 	cmp.w	r8, #1266679808	; 0x4b800000
 8005fea:	da2d      	bge.n	8006048 <__ieee754_powf+0xc0>
 8005fec:	f1b8 5f7e 	cmp.w	r8, #1065353216	; 0x3f800000
 8005ff0:	f2c0 827b 	blt.w	80064ea <__ieee754_powf+0x562>
 8005ff4:	ea4f 53e8 	mov.w	r3, r8, asr #23
 8005ff8:	f1c3 0396 	rsb	r3, r3, #150	; 0x96
 8005ffc:	fa48 f603 	asr.w	r6, r8, r3
 8006000:	fa06 f303 	lsl.w	r3, r6, r3
 8006004:	4543      	cmp	r3, r8
 8006006:	f040 8270 	bne.w	80064ea <__ieee754_powf+0x562>
 800600a:	f006 0601 	and.w	r6, r6, #1
 800600e:	f1c6 0602 	rsb	r6, r6, #2
 8006012:	f1b8 5f7e 	cmp.w	r8, #1065353216	; 0x3f800000
 8006016:	d11f      	bne.n	8006058 <__ieee754_powf+0xd0>
 8006018:	2c00      	cmp	r4, #0
 800601a:	f280 8263 	bge.w	80064e4 <__ieee754_powf+0x55c>
 800601e:	eef7 7a00 	vmov.f32	s15, #112	; 0x3f800000  1.0
 8006022:	ee87 0a88 	vdiv.f32	s0, s15, s16
 8006026:	e7c7      	b.n	8005fb8 <__ieee754_powf+0x30>
 8006028:	2600      	movs	r6, #0
 800602a:	f1b8 4fff 	cmp.w	r8, #2139095040	; 0x7f800000
 800602e:	d1f0      	bne.n	8006012 <__ieee754_powf+0x8a>
 8006030:	f1b5 5f7e 	cmp.w	r5, #1065353216	; 0x3f800000
 8006034:	f000 8250 	beq.w	80064d8 <__ieee754_powf+0x550>
 8006038:	dd08      	ble.n	800604c <__ieee754_powf+0xc4>
 800603a:	ed9f 0ac1 	vldr	s0, [pc, #772]	; 8006340 <__ieee754_powf+0x3b8>
 800603e:	2c00      	cmp	r4, #0
 8006040:	bfa8      	it	ge
 8006042:	eeb0 0a68 	vmovge.f32	s0, s17
 8006046:	e7b7      	b.n	8005fb8 <__ieee754_powf+0x30>
 8006048:	2602      	movs	r6, #2
 800604a:	e7ee      	b.n	800602a <__ieee754_powf+0xa2>
 800604c:	2c00      	cmp	r4, #0
 800604e:	f280 8246 	bge.w	80064de <__ieee754_powf+0x556>
 8006052:	eeb1 0a68 	vneg.f32	s0, s17
 8006056:	e7af      	b.n	8005fb8 <__ieee754_powf+0x30>
 8006058:	f1b4 4f80 	cmp.w	r4, #1073741824	; 0x40000000
 800605c:	d102      	bne.n	8006064 <__ieee754_powf+0xdc>
 800605e:	ee28 0a08 	vmul.f32	s0, s16, s16
 8006062:	e7a9      	b.n	8005fb8 <__ieee754_powf+0x30>
 8006064:	f1b4 5f7c 	cmp.w	r4, #1056964608	; 0x3f000000
 8006068:	eeb0 0a48 	vmov.f32	s0, s16
 800606c:	d107      	bne.n	800607e <__ieee754_powf+0xf6>
 800606e:	2f00      	cmp	r7, #0
 8006070:	db05      	blt.n	800607e <__ieee754_powf+0xf6>
 8006072:	ecbd 8b02 	vpop	{d8}
 8006076:	e8bd 41f0 	ldmia.w	sp!, {r4, r5, r6, r7, r8, lr}
 800607a:	f000 badf 	b.w	800663c <__ieee754_sqrtf>
 800607e:	f000 fa4d 	bl	800651c <fabsf>
 8006082:	b125      	cbz	r5, 800608e <__ieee754_powf+0x106>
 8006084:	f027 4340 	bic.w	r3, r7, #3221225472	; 0xc0000000
 8006088:	f1b3 5f7e 	cmp.w	r3, #1065353216	; 0x3f800000
 800608c:	d115      	bne.n	80060ba <__ieee754_powf+0x132>
 800608e:	2c00      	cmp	r4, #0
 8006090:	bfbc      	itt	lt
 8006092:	eef7 7a00 	vmovlt.f32	s15, #112	; 0x3f800000  1.0
 8006096:	ee87 0a80 	vdivlt.f32	s0, s15, s0
 800609a:	2f00      	cmp	r7, #0
 800609c:	da8c      	bge.n	8005fb8 <__ieee754_powf+0x30>
 800609e:	f1a5 557e 	sub.w	r5, r5, #1065353216	; 0x3f800000
 80060a2:	4335      	orrs	r5, r6
 80060a4:	d104      	bne.n	80060b0 <__ieee754_powf+0x128>
 80060a6:	ee70 7a40 	vsub.f32	s15, s0, s0
 80060aa:	ee87 0aa7 	vdiv.f32	s0, s15, s15
 80060ae:	e783      	b.n	8005fb8 <__ieee754_powf+0x30>
 80060b0:	2e01      	cmp	r6, #1
 80060b2:	d181      	bne.n	8005fb8 <__ieee754_powf+0x30>
 80060b4:	eeb1 0a40 	vneg.f32	s0, s0
 80060b8:	e77e      	b.n	8005fb8 <__ieee754_powf+0x30>
 80060ba:	0ff8      	lsrs	r0, r7, #31
 80060bc:	3801      	subs	r0, #1
 80060be:	ea56 0300 	orrs.w	r3, r6, r0
 80060c2:	d104      	bne.n	80060ce <__ieee754_powf+0x146>
 80060c4:	ee38 8a48 	vsub.f32	s16, s16, s16
 80060c8:	ee88 0a08 	vdiv.f32	s0, s16, s16
 80060cc:	e774      	b.n	8005fb8 <__ieee754_powf+0x30>
 80060ce:	f1b8 4f9a 	cmp.w	r8, #1291845632	; 0x4d000000
 80060d2:	dd73      	ble.n	80061bc <__ieee754_powf+0x234>
 80060d4:	4b9b      	ldr	r3, [pc, #620]	; (8006344 <__ieee754_powf+0x3bc>)
 80060d6:	429d      	cmp	r5, r3
 80060d8:	dc08      	bgt.n	80060ec <__ieee754_powf+0x164>
 80060da:	2c00      	cmp	r4, #0
 80060dc:	da0b      	bge.n	80060f6 <__ieee754_powf+0x16e>
 80060de:	2000      	movs	r0, #0
 80060e0:	ecbd 8b02 	vpop	{d8}
 80060e4:	e8bd 41f0 	ldmia.w	sp!, {r4, r5, r6, r7, r8, lr}
 80060e8:	f000 baa2 	b.w	8006630 <__math_oflowf>
 80060ec:	4b96      	ldr	r3, [pc, #600]	; (8006348 <__ieee754_powf+0x3c0>)
 80060ee:	429d      	cmp	r5, r3
 80060f0:	dd08      	ble.n	8006104 <__ieee754_powf+0x17c>
 80060f2:	2c00      	cmp	r4, #0
 80060f4:	dcf3      	bgt.n	80060de <__ieee754_powf+0x156>
 80060f6:	2000      	movs	r0, #0
 80060f8:	ecbd 8b02 	vpop	{d8}
 80060fc:	e8bd 41f0 	ldmia.w	sp!, {r4, r5, r6, r7, r8, lr}
 8006100:	f000 ba90 	b.w	8006624 <__math_uflowf>
 8006104:	eef7 7a00 	vmov.f32	s15, #112	; 0x3f800000  1.0
 8006108:	ee30 0a67 	vsub.f32	s0, s0, s15
 800610c:	eddf 6a8f 	vldr	s13, [pc, #572]	; 800634c <__ieee754_powf+0x3c4>
 8006110:	eef5 7a00 	vmov.f32	s15, #80	; 0x3e800000  0.250
 8006114:	eee0 6a67 	vfms.f32	s13, s0, s15
 8006118:	eef6 7a00 	vmov.f32	s15, #96	; 0x3f000000  0.5
 800611c:	eee6 7ac0 	vfms.f32	s15, s13, s0
 8006120:	ee20 7a00 	vmul.f32	s14, s0, s0
 8006124:	ee27 7a27 	vmul.f32	s14, s14, s15
 8006128:	eddf 7a89 	vldr	s15, [pc, #548]	; 8006350 <__ieee754_powf+0x3c8>
 800612c:	ee67 7ac7 	vnmul.f32	s15, s15, s14
 8006130:	ed9f 7a88 	vldr	s14, [pc, #544]	; 8006354 <__ieee754_powf+0x3cc>
 8006134:	eee0 7a07 	vfma.f32	s15, s0, s14
 8006138:	ed9f 7a87 	vldr	s14, [pc, #540]	; 8006358 <__ieee754_powf+0x3d0>
 800613c:	eef0 6a67 	vmov.f32	s13, s15
 8006140:	eee0 6a07 	vfma.f32	s13, s0, s14
 8006144:	ee16 3a90 	vmov	r3, s13
 8006148:	f423 637f 	bic.w	r3, r3, #4080	; 0xff0
 800614c:	f023 030f 	bic.w	r3, r3, #15
 8006150:	ee06 3a90 	vmov	s13, r3
 8006154:	eee0 6a47 	vfms.f32	s13, s0, s14
 8006158:	ee77 7ae6 	vsub.f32	s15, s15, s13
 800615c:	3e01      	subs	r6, #1
 800615e:	f424 647f 	bic.w	r4, r4, #4080	; 0xff0
 8006162:	4306      	orrs	r6, r0
 8006164:	eebf 7a00 	vmov.f32	s14, #240	; 0xbf800000 -1.0
 8006168:	f024 040f 	bic.w	r4, r4, #15
 800616c:	eeb7 8a00 	vmov.f32	s16, #112	; 0x3f800000  1.0
 8006170:	bf08      	it	eq
 8006172:	eeb0 8a47 	vmoveq.f32	s16, s14
 8006176:	ee07 4a10 	vmov	s14, r4
 800617a:	ee67 0aa8 	vmul.f32	s1, s15, s17
 800617e:	ee38 7ac7 	vsub.f32	s14, s17, s14
 8006182:	ee07 3a90 	vmov	s15, r3
 8006186:	eee7 0a27 	vfma.f32	s1, s14, s15
 800618a:	ee07 4a10 	vmov	s14, r4
 800618e:	ee67 7a87 	vmul.f32	s15, s15, s14
 8006192:	ee30 7aa7 	vadd.f32	s14, s1, s15
 8006196:	ee17 1a10 	vmov	r1, s14
 800619a:	2900      	cmp	r1, #0
 800619c:	f021 4300 	bic.w	r3, r1, #2147483648	; 0x80000000
 80061a0:	f340 817c 	ble.w	800649c <__ieee754_powf+0x514>
 80061a4:	f1b3 4f86 	cmp.w	r3, #1124073472	; 0x43000000
 80061a8:	f340 80f8 	ble.w	800639c <__ieee754_powf+0x414>
 80061ac:	eeb5 8ac0 	vcmpe.f32	s16, #0.0
 80061b0:	eef1 fa10 	vmrs	APSR_nzcv, fpscr
 80061b4:	bf4c      	ite	mi
 80061b6:	2001      	movmi	r0, #1
 80061b8:	2000      	movpl	r0, #0
 80061ba:	e791      	b.n	80060e0 <__ieee754_powf+0x158>
 80061bc:	f017 4fff 	tst.w	r7, #2139095040	; 0x7f800000
 80061c0:	bf01      	itttt	eq
 80061c2:	eddf 7a66 	vldreq	s15, [pc, #408]	; 800635c <__ieee754_powf+0x3d4>
 80061c6:	ee60 7a27 	vmuleq.f32	s15, s0, s15
 80061ca:	f06f 0317 	mvneq.w	r3, #23
 80061ce:	ee17 5a90 	vmoveq	r5, s15
 80061d2:	ea4f 52e5 	mov.w	r2, r5, asr #23
 80061d6:	bf18      	it	ne
 80061d8:	2300      	movne	r3, #0
 80061da:	3a7f      	subs	r2, #127	; 0x7f
 80061dc:	441a      	add	r2, r3
 80061de:	4b60      	ldr	r3, [pc, #384]	; (8006360 <__ieee754_powf+0x3d8>)
 80061e0:	f3c5 0516 	ubfx	r5, r5, #0, #23
 80061e4:	429d      	cmp	r5, r3
 80061e6:	f045 517e 	orr.w	r1, r5, #1065353216	; 0x3f800000
 80061ea:	dd06      	ble.n	80061fa <__ieee754_powf+0x272>
 80061ec:	4b5d      	ldr	r3, [pc, #372]	; (8006364 <__ieee754_powf+0x3dc>)
 80061ee:	429d      	cmp	r5, r3
 80061f0:	f340 80a4 	ble.w	800633c <__ieee754_powf+0x3b4>
 80061f4:	3201      	adds	r2, #1
 80061f6:	f5a1 0100 	sub.w	r1, r1, #8388608	; 0x800000
 80061fa:	2500      	movs	r5, #0
 80061fc:	4b5a      	ldr	r3, [pc, #360]	; (8006368 <__ieee754_powf+0x3e0>)
 80061fe:	eb03 0385 	add.w	r3, r3, r5, lsl #2
 8006202:	ee07 1a10 	vmov	s14, r1
 8006206:	edd3 5a00 	vldr	s11, [r3]
 800620a:	4b58      	ldr	r3, [pc, #352]	; (800636c <__ieee754_powf+0x3e4>)
 800620c:	ee75 7a87 	vadd.f32	s15, s11, s14
 8006210:	eef7 6a00 	vmov.f32	s13, #112	; 0x3f800000  1.0
 8006214:	eec6 4aa7 	vdiv.f32	s9, s13, s15
 8006218:	1049      	asrs	r1, r1, #1
 800621a:	f041 5100 	orr.w	r1, r1, #536870912	; 0x20000000
 800621e:	f501 2180 	add.w	r1, r1, #262144	; 0x40000
 8006222:	eb01 5145 	add.w	r1, r1, r5, lsl #21
 8006226:	ee37 6a65 	vsub.f32	s12, s14, s11
 800622a:	ee07 1a90 	vmov	s15, r1
 800622e:	ee26 5a24 	vmul.f32	s10, s12, s9
 8006232:	ee77 5ae5 	vsub.f32	s11, s15, s11
 8006236:	ee15 7a10 	vmov	r7, s10
 800623a:	401f      	ands	r7, r3
 800623c:	ee06 7a90 	vmov	s13, r7
 8006240:	eea6 6ae7 	vfms.f32	s12, s13, s15
 8006244:	ee37 7a65 	vsub.f32	s14, s14, s11
 8006248:	ee65 7a05 	vmul.f32	s15, s10, s10
 800624c:	eea6 6ac7 	vfms.f32	s12, s13, s14
 8006250:	eddf 5a47 	vldr	s11, [pc, #284]	; 8006370 <__ieee754_powf+0x3e8>
 8006254:	ed9f 7a47 	vldr	s14, [pc, #284]	; 8006374 <__ieee754_powf+0x3ec>
 8006258:	eee7 5a87 	vfma.f32	s11, s15, s14
 800625c:	ed9f 7a46 	vldr	s14, [pc, #280]	; 8006378 <__ieee754_powf+0x3f0>
 8006260:	eea5 7aa7 	vfma.f32	s14, s11, s15
 8006264:	eddf 5a39 	vldr	s11, [pc, #228]	; 800634c <__ieee754_powf+0x3c4>
 8006268:	eee7 5a27 	vfma.f32	s11, s14, s15
 800626c:	ed9f 7a43 	vldr	s14, [pc, #268]	; 800637c <__ieee754_powf+0x3f4>
 8006270:	eea5 7aa7 	vfma.f32	s14, s11, s15
 8006274:	eddf 5a42 	vldr	s11, [pc, #264]	; 8006380 <__ieee754_powf+0x3f8>
 8006278:	ee26 6a24 	vmul.f32	s12, s12, s9
 800627c:	eee7 5a27 	vfma.f32	s11, s14, s15
 8006280:	ee35 7a26 	vadd.f32	s14, s10, s13
 8006284:	ee67 4aa7 	vmul.f32	s9, s15, s15
 8006288:	ee27 7a06 	vmul.f32	s14, s14, s12
 800628c:	eef0 7a08 	vmov.f32	s15, #8	; 0x40400000  3.0
 8006290:	eea4 7aa5 	vfma.f32	s14, s9, s11
 8006294:	eef0 5a67 	vmov.f32	s11, s15
 8006298:	eee6 5aa6 	vfma.f32	s11, s13, s13
 800629c:	ee75 5a87 	vadd.f32	s11, s11, s14
 80062a0:	ee15 1a90 	vmov	r1, s11
 80062a4:	4019      	ands	r1, r3
 80062a6:	ee05 1a90 	vmov	s11, r1
 80062aa:	ee75 7ae7 	vsub.f32	s15, s11, s15
 80062ae:	eee6 7ae6 	vfms.f32	s15, s13, s13
 80062b2:	ee77 7a67 	vsub.f32	s15, s14, s15
 80062b6:	ee67 7a85 	vmul.f32	s15, s15, s10
 80062ba:	eee6 7a25 	vfma.f32	s15, s12, s11
 80062be:	eeb0 6a67 	vmov.f32	s12, s15
 80062c2:	eea6 6aa5 	vfma.f32	s12, s13, s11
 80062c6:	ee16 1a10 	vmov	r1, s12
 80062ca:	4019      	ands	r1, r3
 80062cc:	ee07 1a10 	vmov	s14, r1
 80062d0:	eea6 7ae5 	vfms.f32	s14, s13, s11
 80062d4:	ee06 1a10 	vmov	s12, r1
 80062d8:	ee77 7ac7 	vsub.f32	s15, s15, s14
 80062dc:	ed9f 7a29 	vldr	s14, [pc, #164]	; 8006384 <__ieee754_powf+0x3fc>
 80062e0:	4929      	ldr	r1, [pc, #164]	; (8006388 <__ieee754_powf+0x400>)
 80062e2:	eddf 5a2a 	vldr	s11, [pc, #168]	; 800638c <__ieee754_powf+0x404>
 80062e6:	ee67 7a87 	vmul.f32	s15, s15, s14
 80062ea:	ed9f 7a29 	vldr	s14, [pc, #164]	; 8006390 <__ieee754_powf+0x408>
 80062ee:	eee6 7a07 	vfma.f32	s15, s12, s14
 80062f2:	eb01 0185 	add.w	r1, r1, r5, lsl #2
 80062f6:	ed91 7a00 	vldr	s14, [r1]
 80062fa:	ee77 7a87 	vadd.f32	s15, s15, s14
 80062fe:	ee07 2a10 	vmov	s14, r2
 8006302:	eef0 6a67 	vmov.f32	s13, s15
 8006306:	4a23      	ldr	r2, [pc, #140]	; (8006394 <__ieee754_powf+0x40c>)
 8006308:	eee6 6a25 	vfma.f32	s13, s12, s11
 800630c:	eb02 0285 	add.w	r2, r2, r5, lsl #2
 8006310:	ed92 5a00 	vldr	s10, [r2]
 8006314:	eeb8 7ac7 	vcvt.f32.s32	s14, s14
 8006318:	ee76 6a85 	vadd.f32	s13, s13, s10
 800631c:	ee76 6a87 	vadd.f32	s13, s13, s14
 8006320:	ee16 2a90 	vmov	r2, s13
 8006324:	4013      	ands	r3, r2
 8006326:	ee06 3a90 	vmov	s13, r3
 800632a:	ee36 7ac7 	vsub.f32	s14, s13, s14
 800632e:	ee37 7a45 	vsub.f32	s14, s14, s10
 8006332:	eea6 7a65 	vfms.f32	s14, s12, s11
 8006336:	ee77 7ac7 	vsub.f32	s15, s15, s14
 800633a:	e70f      	b.n	800615c <__ieee754_powf+0x1d4>
 800633c:	2501      	movs	r5, #1
 800633e:	e75d      	b.n	80061fc <__ieee754_powf+0x274>
 8006340:	00000000 	.word	0x00000000
 8006344:	3f7ffff3 	.word	0x3f7ffff3
 8006348:	3f800007 	.word	0x3f800007
 800634c:	3eaaaaab 	.word	0x3eaaaaab
 8006350:	3fb8aa3b 	.word	0x3fb8aa3b
 8006354:	36eca570 	.word	0x36eca570
 8006358:	3fb8aa00 	.word	0x3fb8aa00
 800635c:	4b800000 	.word	0x4b800000
 8006360:	001cc471 	.word	0x001cc471
 8006364:	005db3d6 	.word	0x005db3d6
 8006368:	08006a6c 	.word	0x08006a6c
 800636c:	fffff000 	.word	0xfffff000
 8006370:	3e6c3255 	.word	0x3e6c3255
 8006374:	3e53f142 	.word	0x3e53f142
 8006378:	3e8ba305 	.word	0x3e8ba305
 800637c:	3edb6db7 	.word	0x3edb6db7
 8006380:	3f19999a 	.word	0x3f19999a
 8006384:	3f76384f 	.word	0x3f76384f
 8006388:	08006a7c 	.word	0x08006a7c
 800638c:	3f763800 	.word	0x3f763800
 8006390:	369dc3a0 	.word	0x369dc3a0
 8006394:	08006a74 	.word	0x08006a74
 8006398:	3338aa3c 	.word	0x3338aa3c
 800639c:	f040 8093 	bne.w	80064c6 <__ieee754_powf+0x53e>
 80063a0:	ed5f 6a03 	vldr	s13, [pc, #-12]	; 8006398 <__ieee754_powf+0x410>
 80063a4:	ee37 7a67 	vsub.f32	s14, s14, s15
 80063a8:	ee70 6aa6 	vadd.f32	s13, s1, s13
 80063ac:	eef4 6ac7 	vcmpe.f32	s13, s14
 80063b0:	eef1 fa10 	vmrs	APSR_nzcv, fpscr
 80063b4:	f73f aefa 	bgt.w	80061ac <__ieee754_powf+0x224>
 80063b8:	15db      	asrs	r3, r3, #23
 80063ba:	3b7e      	subs	r3, #126	; 0x7e
 80063bc:	f44f 0000 	mov.w	r0, #8388608	; 0x800000
 80063c0:	4118      	asrs	r0, r3
 80063c2:	4408      	add	r0, r1
 80063c4:	f3c0 53c7 	ubfx	r3, r0, #23, #8
 80063c8:	4a49      	ldr	r2, [pc, #292]	; (80064f0 <__ieee754_powf+0x568>)
 80063ca:	3b7f      	subs	r3, #127	; 0x7f
 80063cc:	411a      	asrs	r2, r3
 80063ce:	4002      	ands	r2, r0
 80063d0:	ee07 2a10 	vmov	s14, r2
 80063d4:	f3c0 0016 	ubfx	r0, r0, #0, #23
 80063d8:	f440 0000 	orr.w	r0, r0, #8388608	; 0x800000
 80063dc:	f1c3 0317 	rsb	r3, r3, #23
 80063e0:	4118      	asrs	r0, r3
 80063e2:	2900      	cmp	r1, #0
 80063e4:	ee77 7ac7 	vsub.f32	s15, s15, s14
 80063e8:	bfb8      	it	lt
 80063ea:	4240      	neglt	r0, r0
 80063ec:	ee37 7aa0 	vadd.f32	s14, s15, s1
 80063f0:	eddf 6a40 	vldr	s13, [pc, #256]	; 80064f4 <__ieee754_powf+0x56c>
 80063f4:	ed9f 6a40 	vldr	s12, [pc, #256]	; 80064f8 <__ieee754_powf+0x570>
 80063f8:	ee17 3a10 	vmov	r3, s14
 80063fc:	f423 637f 	bic.w	r3, r3, #4080	; 0xff0
 8006400:	f023 030f 	bic.w	r3, r3, #15
 8006404:	ee07 3a10 	vmov	s14, r3
 8006408:	ee77 7a67 	vsub.f32	s15, s14, s15
 800640c:	eeb7 0a00 	vmov.f32	s0, #112	; 0x3f800000  1.0
 8006410:	ee70 0ae7 	vsub.f32	s1, s1, s15
 8006414:	eddf 7a39 	vldr	s15, [pc, #228]	; 80064fc <__ieee754_powf+0x574>
 8006418:	ee67 7a27 	vmul.f32	s15, s14, s15
 800641c:	eee0 7aa6 	vfma.f32	s15, s1, s13
 8006420:	eef0 6a67 	vmov.f32	s13, s15
 8006424:	eee7 6a06 	vfma.f32	s13, s14, s12
 8006428:	eef0 5a66 	vmov.f32	s11, s13
 800642c:	eee7 5a46 	vfms.f32	s11, s14, s12
 8006430:	ee26 7aa6 	vmul.f32	s14, s13, s13
 8006434:	ee77 7ae5 	vsub.f32	s15, s15, s11
 8006438:	ed9f 6a31 	vldr	s12, [pc, #196]	; 8006500 <__ieee754_powf+0x578>
 800643c:	eddf 5a31 	vldr	s11, [pc, #196]	; 8006504 <__ieee754_powf+0x57c>
 8006440:	eea7 6a25 	vfma.f32	s12, s14, s11
 8006444:	eddf 5a30 	vldr	s11, [pc, #192]	; 8006508 <__ieee754_powf+0x580>
 8006448:	eee6 5a07 	vfma.f32	s11, s12, s14
 800644c:	ed9f 6a2f 	vldr	s12, [pc, #188]	; 800650c <__ieee754_powf+0x584>
 8006450:	eea5 6a87 	vfma.f32	s12, s11, s14
 8006454:	eddf 5a2e 	vldr	s11, [pc, #184]	; 8006510 <__ieee754_powf+0x588>
 8006458:	eee6 5a07 	vfma.f32	s11, s12, s14
 800645c:	eeb0 6a66 	vmov.f32	s12, s13
 8006460:	eea5 6ac7 	vfms.f32	s12, s11, s14
 8006464:	eeb0 7a00 	vmov.f32	s14, #0	; 0x40000000  2.0
 8006468:	ee66 5a86 	vmul.f32	s11, s13, s12
 800646c:	ee36 6a47 	vsub.f32	s12, s12, s14
 8006470:	eee6 7aa7 	vfma.f32	s15, s13, s15
 8006474:	ee85 7a86 	vdiv.f32	s14, s11, s12
 8006478:	ee77 7a67 	vsub.f32	s15, s14, s15
 800647c:	ee77 7ae6 	vsub.f32	s15, s15, s13
 8006480:	ee30 0a67 	vsub.f32	s0, s0, s15
 8006484:	ee10 3a10 	vmov	r3, s0
 8006488:	eb03 53c0 	add.w	r3, r3, r0, lsl #23
 800648c:	f5b3 0f00 	cmp.w	r3, #8388608	; 0x800000
 8006490:	da1f      	bge.n	80064d2 <__ieee754_powf+0x54a>
 8006492:	f000 f84b 	bl	800652c <scalbnf>
 8006496:	ee20 0a08 	vmul.f32	s0, s0, s16
 800649a:	e58d      	b.n	8005fb8 <__ieee754_powf+0x30>
 800649c:	4a1d      	ldr	r2, [pc, #116]	; (8006514 <__ieee754_powf+0x58c>)
 800649e:	4293      	cmp	r3, r2
 80064a0:	dd07      	ble.n	80064b2 <__ieee754_powf+0x52a>
 80064a2:	eeb5 8ac0 	vcmpe.f32	s16, #0.0
 80064a6:	eef1 fa10 	vmrs	APSR_nzcv, fpscr
 80064aa:	bf4c      	ite	mi
 80064ac:	2001      	movmi	r0, #1
 80064ae:	2000      	movpl	r0, #0
 80064b0:	e622      	b.n	80060f8 <__ieee754_powf+0x170>
 80064b2:	d108      	bne.n	80064c6 <__ieee754_powf+0x53e>
 80064b4:	ee37 7a67 	vsub.f32	s14, s14, s15
 80064b8:	eeb4 7ae0 	vcmpe.f32	s14, s1
 80064bc:	eef1 fa10 	vmrs	APSR_nzcv, fpscr
 80064c0:	f6ff af7a 	blt.w	80063b8 <__ieee754_powf+0x430>
 80064c4:	e7ed      	b.n	80064a2 <__ieee754_powf+0x51a>
 80064c6:	f1b3 5f7c 	cmp.w	r3, #1056964608	; 0x3f000000
 80064ca:	f73f af75 	bgt.w	80063b8 <__ieee754_powf+0x430>
 80064ce:	2000      	movs	r0, #0
 80064d0:	e78c      	b.n	80063ec <__ieee754_powf+0x464>
 80064d2:	ee00 3a10 	vmov	s0, r3
 80064d6:	e7de      	b.n	8006496 <__ieee754_powf+0x50e>
 80064d8:	eeb7 0a00 	vmov.f32	s0, #112	; 0x3f800000  1.0
 80064dc:	e56c      	b.n	8005fb8 <__ieee754_powf+0x30>
 80064de:	ed9f 0a0e 	vldr	s0, [pc, #56]	; 8006518 <__ieee754_powf+0x590>
 80064e2:	e569      	b.n	8005fb8 <__ieee754_powf+0x30>
 80064e4:	eeb0 0a48 	vmov.f32	s0, s16
 80064e8:	e566      	b.n	8005fb8 <__ieee754_powf+0x30>
 80064ea:	2600      	movs	r6, #0
 80064ec:	e591      	b.n	8006012 <__ieee754_powf+0x8a>
 80064ee:	bf00      	nop
 80064f0:	ff800000 	.word	0xff800000
 80064f4:	3f317218 	.word	0x3f317218
 80064f8:	3f317200 	.word	0x3f317200
 80064fc:	35bfbe8c 	.word	0x35bfbe8c
 8006500:	b5ddea0e 	.word	0xb5ddea0e
 8006504:	3331bb4c 	.word	0x3331bb4c
 8006508:	388ab355 	.word	0x388ab355
 800650c:	bb360b61 	.word	0xbb360b61
 8006510:	3e2aaaab 	.word	0x3e2aaaab
 8006514:	43160000 	.word	0x43160000
 8006518:	00000000 	.word	0x00000000

0800651c <fabsf>:
 800651c:	ee10 3a10 	vmov	r3, s0
 8006520:	f023 4300 	bic.w	r3, r3, #2147483648	; 0x80000000
 8006524:	ee00 3a10 	vmov	s0, r3
 8006528:	4770      	bx	lr
	...

0800652c <scalbnf>:
 800652c:	ee10 3a10 	vmov	r3, s0
 8006530:	f033 4200 	bics.w	r2, r3, #2147483648	; 0x80000000
 8006534:	d02b      	beq.n	800658e <scalbnf+0x62>
 8006536:	f1b2 4fff 	cmp.w	r2, #2139095040	; 0x7f800000
 800653a:	d302      	bcc.n	8006542 <scalbnf+0x16>
 800653c:	ee30 0a00 	vadd.f32	s0, s0, s0
 8006540:	4770      	bx	lr
 8006542:	f013 4fff 	tst.w	r3, #2139095040	; 0x7f800000
 8006546:	d123      	bne.n	8006590 <scalbnf+0x64>
 8006548:	4b24      	ldr	r3, [pc, #144]	; (80065dc <scalbnf+0xb0>)
 800654a:	eddf 7a25 	vldr	s15, [pc, #148]	; 80065e0 <scalbnf+0xb4>
 800654e:	4298      	cmp	r0, r3
 8006550:	ee20 0a27 	vmul.f32	s0, s0, s15
 8006554:	db17      	blt.n	8006586 <scalbnf+0x5a>
 8006556:	ee10 3a10 	vmov	r3, s0
 800655a:	f3c3 52c7 	ubfx	r2, r3, #23, #8
 800655e:	3a19      	subs	r2, #25
 8006560:	f24c 3150 	movw	r1, #50000	; 0xc350
 8006564:	4288      	cmp	r0, r1
 8006566:	dd15      	ble.n	8006594 <scalbnf+0x68>
 8006568:	eddf 7a1e 	vldr	s15, [pc, #120]	; 80065e4 <scalbnf+0xb8>
 800656c:	eddf 6a1e 	vldr	s13, [pc, #120]	; 80065e8 <scalbnf+0xbc>
 8006570:	ee10 3a10 	vmov	r3, s0
 8006574:	eeb0 7a67 	vmov.f32	s14, s15
 8006578:	2b00      	cmp	r3, #0
 800657a:	bfb8      	it	lt
 800657c:	eef0 7a66 	vmovlt.f32	s15, s13
 8006580:	ee27 0a87 	vmul.f32	s0, s15, s14
 8006584:	4770      	bx	lr
 8006586:	eddf 7a19 	vldr	s15, [pc, #100]	; 80065ec <scalbnf+0xc0>
 800658a:	ee27 0a80 	vmul.f32	s0, s15, s0
 800658e:	4770      	bx	lr
 8006590:	0dd2      	lsrs	r2, r2, #23
 8006592:	e7e5      	b.n	8006560 <scalbnf+0x34>
 8006594:	4410      	add	r0, r2
 8006596:	28fe      	cmp	r0, #254	; 0xfe
 8006598:	dce6      	bgt.n	8006568 <scalbnf+0x3c>
 800659a:	2800      	cmp	r0, #0
 800659c:	dd06      	ble.n	80065ac <scalbnf+0x80>
 800659e:	f023 43ff 	bic.w	r3, r3, #2139095040	; 0x7f800000
 80065a2:	ea43 53c0 	orr.w	r3, r3, r0, lsl #23
 80065a6:	ee00 3a10 	vmov	s0, r3
 80065aa:	4770      	bx	lr
 80065ac:	f110 0f16 	cmn.w	r0, #22
 80065b0:	da09      	bge.n	80065c6 <scalbnf+0x9a>
 80065b2:	eddf 7a0e 	vldr	s15, [pc, #56]	; 80065ec <scalbnf+0xc0>
 80065b6:	eddf 6a0e 	vldr	s13, [pc, #56]	; 80065f0 <scalbnf+0xc4>
 80065ba:	ee10 3a10 	vmov	r3, s0
 80065be:	eeb0 7a67 	vmov.f32	s14, s15
 80065c2:	2b00      	cmp	r3, #0
 80065c4:	e7d9      	b.n	800657a <scalbnf+0x4e>
 80065c6:	3019      	adds	r0, #25
 80065c8:	f023 43ff 	bic.w	r3, r3, #2139095040	; 0x7f800000
 80065cc:	ea43 53c0 	orr.w	r3, r3, r0, lsl #23
 80065d0:	ed9f 0a08 	vldr	s0, [pc, #32]	; 80065f4 <scalbnf+0xc8>
 80065d4:	ee07 3a90 	vmov	s15, r3
 80065d8:	e7d7      	b.n	800658a <scalbnf+0x5e>
 80065da:	bf00      	nop
 80065dc:	ffff3cb0 	.word	0xffff3cb0
 80065e0:	4c000000 	.word	0x4c000000
 80065e4:	7149f2ca 	.word	0x7149f2ca
 80065e8:	f149f2ca 	.word	0xf149f2ca
 80065ec:	0da24260 	.word	0x0da24260
 80065f0:	8da24260 	.word	0x8da24260
 80065f4:	33000000 	.word	0x33000000

080065f8 <with_errnof>:
 80065f8:	b513      	push	{r0, r1, r4, lr}
 80065fa:	4604      	mov	r4, r0
 80065fc:	ed8d 0a01 	vstr	s0, [sp, #4]
 8006600:	f7fd fbb8 	bl	8003d74 <__errno>
 8006604:	ed9d 0a01 	vldr	s0, [sp, #4]
 8006608:	6004      	str	r4, [r0, #0]
 800660a:	b002      	add	sp, #8
 800660c:	bd10      	pop	{r4, pc}

0800660e <xflowf>:
 800660e:	b130      	cbz	r0, 800661e <xflowf+0x10>
 8006610:	eef1 7a40 	vneg.f32	s15, s0
 8006614:	ee27 0a80 	vmul.f32	s0, s15, s0
 8006618:	2022      	movs	r0, #34	; 0x22
 800661a:	f7ff bfed 	b.w	80065f8 <with_errnof>
 800661e:	eef0 7a40 	vmov.f32	s15, s0
 8006622:	e7f7      	b.n	8006614 <xflowf+0x6>

08006624 <__math_uflowf>:
 8006624:	ed9f 0a01 	vldr	s0, [pc, #4]	; 800662c <__math_uflowf+0x8>
 8006628:	f7ff bff1 	b.w	800660e <xflowf>
 800662c:	10000000 	.word	0x10000000

08006630 <__math_oflowf>:
 8006630:	ed9f 0a01 	vldr	s0, [pc, #4]	; 8006638 <__math_oflowf+0x8>
 8006634:	f7ff bfeb 	b.w	800660e <xflowf>
 8006638:	70000000 	.word	0x70000000

0800663c <__ieee754_sqrtf>:
 800663c:	eeb1 0ac0 	vsqrt.f32	s0, s0
 8006640:	4770      	bx	lr
	...

08006644 <_init>:
 8006644:	b5f8      	push	{r3, r4, r5, r6, r7, lr}
 8006646:	bf00      	nop
 8006648:	bcf8      	pop	{r3, r4, r5, r6, r7}
 800664a:	bc08      	pop	{r3}
 800664c:	469e      	mov	lr, r3
 800664e:	4770      	bx	lr

08006650 <_fini>:
 8006650:	b5f8      	push	{r3, r4, r5, r6, r7, lr}
 8006652:	bf00      	nop
 8006654:	bcf8      	pop	{r3, r4, r5, r6, r7}
 8006656:	bc08      	pop	{r3}
 8006658:	469e      	mov	lr, r3
 800665a:	4770      	bx	lr
